 BugSplat

 Timestamp is 5b84398d (Mon Aug 27 17:49:01 2018)

 Preferred load address is 10000000

 Start         Length     Name                   Class
 0001:00000000 0000011cH .text$di                CODE
 0001:00000120 000363d0H .text$mn                CODE
 0001:000364f0 0000097cH .text$x                 CODE
 0001:00036e6c 000000daH .text$yd                CODE
 0002:00000000 00000278H .idata$5                DATA
 0002:00000278 00000004H .CRT$XCA                DATA
 0002:0000027c 00000004H .CRT$XCL                DATA
 0002:00000280 0000001cH .CRT$XCU                DATA
 0002:0000029c 00000004H .CRT$XCZ                DATA
 0002:000002a0 00000004H .CRT$XIA                DATA
 0002:000002a4 00000010H .CRT$XIC                DATA
 0002:000002b4 00000004H .CRT$XIZ                DATA
 0002:000002b8 00000004H .CRT$XPA                DATA
 0002:000002bc 00000008H .CRT$XPX                DATA
 0002:000002c4 00000004H .CRT$XPXA               DATA
 0002:000002c8 00000004H .CRT$XPZ                DATA
 0002:000002cc 00000004H .CRT$XTA                DATA
 0002:000002d0 00000004H .CRT$XTZ                DATA
 0002:000002e0 00008e18H .rdata                  DATA
 0002:000090f8 00000054H .rdata$debug            DATA
 0002:0000914c 00000a38H .rdata$r                DATA
 0002:00009b90 000000ccH .rdata$sxdata           DATA
 0002:00009c5c 00000004H .rtc$IAA                DATA
 0002:00009c60 00000004H .rtc$IZZ                DATA
 0002:00009c64 00000004H .rtc$TAA                DATA
 0002:00009c68 00000004H .rtc$TZZ                DATA
 0002:00009c70 0000180cH .xdata$x                DATA
 0002:0000b47c 00000004H ATL$__a                 DATA
 0002:0000b480 00000004H ATL$__z                 DATA
 0002:0000b490 0000091eH .edata                  DATA
 0002:0000bdb0 000000a0H .idata$2                DATA
 0002:0000be50 00000014H .idata$3                DATA
 0002:0000be64 00000278H .idata$4                DATA
 0002:0000c0dc 00000acaH .idata$6                DATA
 0003:00000000 00001450H .data                   DATA
 0003:00001450 0000048eH .data$r                 DATA
 0003:000018e0 0000485cH .bss                    DATA
 0004:00000000 00000118H .rsrc$01                DATA
 0004:00000120 00000af8H .rsrc$02                DATA

  Address         Publics by Value              Rva+Base       Lib:Object

 0000:00000000       __except_list              00000000     <absolute>
 0000:00000000       ___guard_flags             00000000     <absolute>
 0000:00000000       ___guard_fids_table        00000000     <absolute>
 0000:00000000       ___guard_fids_count        00000000     <absolute>
 0000:00000033       ___safe_se_handler_count   00000033     <absolute>
 0000:00000000       ___ImageBase               10000000     <linker-defined>
 0001:00000120       ??0BugSplatImp@@QAE@XZ     10001120 f   BugSplatImp.obj
 0001:0000013e       ??0CString@WTL@@QAE@ABV01@@Z 1000113e f i BugSplatImp.obj
 0001:00000174       ??0CString@WTL@@QAE@PB_W@Z 10001174 f i BugSplatImp.obj
 0001:000001d0       ??0CString@WTL@@QAE@XZ     100011d0 f i BugSplatImp.obj
 0001:000001da       ??0MiniDmpSender@@QAE@ABV0@@Z 100011da f i BugSplatImp.obj
 0001:000001f2       ??1CString@WTL@@QAE@XZ     100011f2 f i BugSplatImp.obj
 0001:0000021e       ??4BugSplatImp@@QAEAAV0@ABV0@@Z 1000121e f i BugSplatImp.obj
 0001:0000023c       ??4CString@WTL@@QAEAAV01@ABV01@@Z 1000123c f i BugSplatImp.obj
 0001:0000028f       ??4CString@WTL@@QAEAAV01@PB_W@Z 1000128f f i BugSplatImp.obj
 0001:000002ba       ??4MiniDmpSender@@QAEAAV0@ABV0@@Z 100012ba f i BugSplatImp.obj
 0001:000002cc       ??ACString@WTL@@QBE_WH@Z   100012cc f i BugSplatImp.obj
 0001:000002dc       ??BCString@WTL@@QBEPB_WXZ  100012dc f i BugSplatImp.obj
 0001:000002df       ??HWTL@@YG?AVCString@0@ABV10@0@Z 100012df f i BugSplatImp.obj
 0001:00000327       ??YCString@WTL@@QAEAAV01@PB_W@Z 10001327 f i BugSplatImp.obj
 0001:00000352       ??YCString@WTL@@QAEAAV01@_W@Z 10001352 f i BugSplatImp.obj
 0001:0000036a       ??_EMiniDmpSender@@UAEPAXI@Z 1000136a f i BugSplatImp.obj
 0001:000003b4       ??_GMiniDmpSender@@UAEPAXI@Z 100013b4 f i BugSplatImp.obj
 0001:000003d3       ?AllocBeforeWrite@CString@WTL@@IAEHH@Z 100013d3 f i BugSplatImp.obj
 0001:00000401       ?AllocBuffer@CString@WTL@@IAEHH@Z 10001401 f i BugSplatImp.obj
 0001:00000470       ?AllocCopy@CString@WTL@@IBEHAAV12@HHH@Z 10001470 f i BugSplatImp.obj
 0001:000004ce       ?AssignCopy@CString@WTL@@IAEXHPB_W@Z 100014ce f i BugSplatImp.obj
 0001:00000508       ?CalculateBeginningOfCallInstruction@@YAHAAI@Z 10001508 f   BugSplatImp.obj
 0001:00000553       ?ConcatCopy@CString@WTL@@IAEHHPB_WH0@Z 10001553 f i BugSplatImp.obj
 0001:000005b7       ?ConcatInPlace@CString@WTL@@IAEXHPB_W@Z 100015b7 f i BugSplatImp.obj
 0001:00000620       ?CopyBeforeWrite@CString@WTL@@IAEXXZ 10001620 f i BugSplatImp.obj
 0001:00000658       ?CreateMiniDump@BugSplatImp@@QAEHPAUHINSTANCE__@@KPAXKPAU_EXCEPTION_POINTERS@@PB_WPA_WK@Z 10001658 f   BugSplatImp.obj
 0001:0000084a       ?CreateMiniDumpFromSnap@@YAHPAXKKP6GH0K0W4_MINIDUMP_TYPE@@QAU_MINIDUMP_EXCEPTION_INFORMATION@@QAU_MINIDUMP_USER_STREAM_INFORMATION@@QAU_MINIDUMP_CALLBACK_INFORMATION@@@Z0PAU_CONTEXT@@@Z 1000184a f   BugSplatImp.obj
 0001:0000099e       ?Find@CString@WTL@@QBEHPB_W@Z 1000199e f i BugSplatImp.obj
 0001:000009af       ?Find@CString@WTL@@QBEHPB_WH@Z 100019af f i BugSplatImp.obj
 0001:000009e3       ?GetBuffer@CString@WTL@@QAEPA_WH@Z 100019e3 f i BugSplatImp.obj
 0001:00000a3b       ?GetData@CString@WTL@@IBEPAUCStringData@2@XZ 10001a3b f i BugSplatImp.obj
 0001:00000a41       ?GetLength@CString@WTL@@QBEHXZ 10001a41 f i BugSplatImp.obj
 0001:00000a47       ?GetReducedGuid@BugSplatImp@@QAEXPA_WK@Z 10001a47 f   BugSplatImp.obj
 0001:00000ad2       ?GetResourceInstance@CAtlBaseModule@ATL@@QAEPAUHINSTANCE__@@XZ 10001ad2 f i BugSplatImp.obj
 0001:00000ad6       ?Init@CString@WTL@@IAEXXZ  10001ad6 f i BugSplatImp.obj
 0001:00000ade       ?Left@CString@WTL@@QBE?AV12@H@Z 10001ade f i BugSplatImp.obj
 0001:00000b2a       ?LoadStringW@CString@WTL@@QAEHI@Z 10001b2a f i BugSplatImp.obj
 0001:00000bca       ?MakeUpper@CString@WTL@@QAEXXZ 10001bca f i BugSplatImp.obj
 0001:00000bdc       ?Mid@CString@WTL@@QBE?AV12@H@Z 10001bdc f i BugSplatImp.obj
 0001:00000c01       ?Mid@CString@WTL@@QBE?AV12@HH@Z 10001c01 f i BugSplatImp.obj
 0001:00000c67       ?ReduceGuidString@BugSplatImp@@QAEXPA_WK@Z 10001c67 f   BugSplatImp.obj
 0001:00000f50       ?Release@CString@WTL@@IAEXXZ 10001f50 f i BugSplatImp.obj
 0001:00000f83       ?Release@CString@WTL@@KGXPAUCStringData@2@@Z 10001f83 f i BugSplatImp.obj
 0001:00000fa9       ?ReleaseBuffer@CString@WTL@@QAEXH@Z 10001fa9 f i BugSplatImp.obj
 0001:00000fd6       ?ResumeSuspendedThreads@BugSplatImp@@QAEXXZ 10001fd6 f   BugSplatImp.obj
 0001:0000100c       ?SafeStrlen@CString@WTL@@KGHPB_W@Z 1000200c f i BugSplatImp.obj
 0001:00001022       ?SnapCurrentProcessMinidump@@YAHPAXKKP6GH0K0W4_MINIDUMP_TYPE@@QAU_MINIDUMP_EXCEPTION_INFORMATION@@QAU_MINIDUMP_USER_STREAM_INFORMATION@@QAU_MINIDUMP_CALLBACK_INFORMATION@@@Z0@Z 10002022 f   BugSplatImp.obj
 0001:000011e5       ?SuspendAllThreadsInProcess@BugSplatImp@@QAEXPAX@Z 100021e5 f   BugSplatImp.obj
 0001:00001291       ?SuspendThreadsInCurrentProcess@BugSplatImp@@QAEXXZ 10002291 f   BugSplatImp.obj
 0001:00001351       ?UINTtoWchar_t@@YA_WI@Z    10002351 f   BugSplatImp.obj
 0001:00001376       ?Wchar_tToUINT@@YAI_W@Z    10002376 f   BugSplatImp.obj
 0001:000013a2       ?_GetEmptyString@CString@WTL@@KGABV12@XZ 100023a2 f i BugSplatImp.obj
 0001:000013a8       ?_LoadString@CString@WTL@@KGHIPA_WI@Z 100023a8 f i BugSplatImp.obj
 0001:000013d0       ?_cstrstr@CString@WTL@@KAPB_WPB_W0@Z 100023d0 f i BugSplatImp.obj
 0001:000013d9       ?combine1_4@@YAIII@Z       100023d9 f   BugSplatImp.obj
 0001:000013ea       ?combine2_3@@YAIII@Z       100023ea f   BugSplatImp.obj
 0001:000013ff       ?combine3_2@@YAIII@Z       100023ff f   BugSplatImp.obj
 0001:00001415       ?combine4_1@@YAIII@Z       10002415 f   BugSplatImp.obj
 0001:00001427       ?combineLast3@@YAII@Z      10002427 f   BugSplatImp.obj
 0001:00001432       ?createReportAndExit@MiniDmpSender@@QAEXXZ 10002432 f i BugSplatImp.obj
 0001:0000145c       ?data@CStringData@WTL@@QAEPA_WXZ 1000245c f i BugSplatImp.obj
 0001:00001460       ??$_Allocate@D@std@@YAPADIPAD@Z 10002460 f i mdump.obj
 0001:00001487       ??$_Allocate@VCString@WTL@@@std@@YAPAVCString@WTL@@IPAV12@@Z 10002487 f i mdump.obj
 0001:000014b3       ??$_Destroy_range@U?$_Wrap_alloc@V?$allocator@VCString@WTL@@@std@@@std@@@std@@YAXPAVCString@WTL@@0AAU?$_Wrap_alloc@V?$allocator@VCString@WTL@@@std@@@0@@Z 100024b3 f i mdump.obj
 0001:000014ce       ??$_Destroy_range@U?$_Wrap_alloc@V?$allocator@VCString@WTL@@@std@@@std@@@std@@YAXPAVCString@WTL@@0AAU?$_Wrap_alloc@V?$allocator@VCString@WTL@@@std@@@0@U_Nonscalar_ptr_iterator_tag@0@@Z 100024ce f i mdump.obj
 0001:000014e9       ??$_Ptr_cat@VCString@WTL@@V12@@std@@YA?AU_Nonscalar_ptr_iterator_tag@0@PAVCString@WTL@@0@Z 100024e9 f i mdump.obj
 0001:000014f4       ??$_Rechecked@PAVCString@WTL@@PAV12@@std@@YAAAPAVCString@WTL@@AAPAV12@PAV12@@Z 100024f4 f i mdump.obj
 0001:00001501       ??$_Umove@PAVCString@WTL@@@?$vector@VCString@WTL@@V?$allocator@VCString@WTL@@@std@@@std@@IAEPAVCString@WTL@@PAV23@00@Z 10002501 f i mdump.obj
 0001:00001525       ??$_Unchecked@PAVCString@WTL@@@std@@YAPAVCString@WTL@@PAV12@@Z 10002525 f i mdump.obj
 0001:0000152d       ??$_Uninit_move@PAVCString@WTL@@PAV12@U?$_Wrap_alloc@V?$allocator@VCString@WTL@@@std@@@std@@@std@@YAPAVCString@WTL@@PAV12@00AAU?$_Wrap_alloc@V?$allocator@VCString@WTL@@@std@@@0@@Z 1000252d f i mdump.obj
 0001:0000154e       ??$_Uninit_move@PAVCString@WTL@@PAV12@V?$allocator@VCString@WTL@@@std@@V12@@std@@YAPAVCString@WTL@@PAV12@00AAU?$_Wrap_alloc@V?$allocator@VCString@WTL@@@std@@@0@0U_Nonscalar_ptr_iterator_tag@0@@Z 1000254e f i mdump.obj
 0001:000015b3       ??$_Uninitialized_move@PAVCString@WTL@@PAV12@U?$_Wrap_alloc@V?$allocator@VCString@WTL@@@std@@@std@@@std@@YAPAVCString@WTL@@PAV12@00AAU?$_Wrap_alloc@V?$allocator@VCString@WTL@@@std@@@0@@Z 100025b3 f i mdump.obj
 0001:000015bc       ??$_Val_type@PAVCString@WTL@@@std@@YAPAVCString@WTL@@PAV12@@Z 100025bc f i mdump.obj
 0001:000015bf       ??$addressof@D@std@@YAPADAAD@Z 100025bf f i mdump.obj
 0001:000015c7       ??$addressof@VCString@WTL@@@std@@YAPAVCString@WTL@@AAV12@@Z 100025c7 f i mdump.obj
 0001:000015cf       ??$construct@PADAAPAD@?$_Wrap_alloc@V?$allocator@D@std@@@std@@QAEXPAPADAAPAD@Z 100025cf f i mdump.obj
 0001:000015e4       ??$construct@PADAAPAD@?$allocator@D@std@@QAEXPAPADAAPAD@Z 100025e4 f i mdump.obj
 0001:000015f9       ??$construct@PADAAPAD@?$allocator_traits@V?$allocator@D@std@@@std@@SAXAAV?$allocator@D@1@PAPADAAPAD@Z 100025f9 f i mdump.obj
 0001:0000160c       ??$construct@VCString@WTL@@V12@@?$_Wrap_alloc@V?$allocator@VCString@WTL@@@std@@@std@@QAEXPAVCString@WTL@@$$QAV23@@Z 1000260c f i mdump.obj
 0001:00001636       ??$construct@VCString@WTL@@V12@@?$allocator@VCString@WTL@@@std@@QAEXPAVCString@WTL@@$$QAV23@@Z 10002636 f i mdump.obj
 0001:00001660       ??$construct@VCString@WTL@@V12@@?$allocator_traits@V?$allocator@VCString@WTL@@@std@@@std@@SAXAAV?$allocator@VCString@WTL@@@1@PAVCString@WTL@@$$QAV34@@Z 10002660 f i mdump.obj
 0001:00001688       ??$destroy@PAD@?$_Wrap_alloc@V?$allocator@D@std@@@std@@QAEXPAPAD@Z 10002688 f i mdump.obj
 0001:0000168b       ??$destroy@PAD@?$allocator@D@std@@QAEXPAPAD@Z 1000268b f i mdump.obj
 0001:0000168e       ??$destroy@PAD@?$allocator_traits@V?$allocator@D@std@@@std@@SAXAAV?$allocator@D@1@PAPAD@Z 1000268e f i mdump.obj
 0001:0000168f       ??$destroy@VCString@WTL@@@?$_Wrap_alloc@V?$allocator@VCString@WTL@@@std@@@std@@QAEXPAVCString@WTL@@@Z 1000268f f i mdump.obj
 0001:0000169e       ??$destroy@VCString@WTL@@@?$allocator@VCString@WTL@@@std@@QAEXPAVCString@WTL@@@Z 1000269e f i mdump.obj
 0001:000016ad       ??$destroy@VCString@WTL@@@?$allocator_traits@V?$allocator@VCString@WTL@@@std@@@std@@SAXAAV?$allocator@VCString@WTL@@@1@PAVCString@WTL@@@Z 100026ad f i mdump.obj
 0001:000016b9       ??$forward@AAPAD@std@@YAAAPADAAPAD@Z 100026b9 f i mdump.obj
 0001:000016c1       ??$forward@VCString@WTL@@@std@@YA$$QAVCString@WTL@@AAV12@@Z 100026c1 f i mdump.obj
 0001:000016c9       ??0?$_String_alloc@$0A@U?$_String_base_types@DV?$allocator@D@std@@@std@@@std@@QAE@ABV?$allocator@D@1@@Z 100026c9 f i mdump.obj
 0001:000016d6       ??0?$_String_val@U?$_Simple_types@D@std@@@std@@QAE@XZ 100026d6 f i mdump.obj
 0001:000016e1       ??0?$_Vector_alloc@$0A@U?$_Vec_base_types@VCString@WTL@@V?$allocator@VCString@WTL@@@std@@@std@@@std@@QAE@ABV?$allocator@VCString@WTL@@@1@@Z 100026e1 f i mdump.obj
 0001:000016f0       ??0?$_Vector_const_iterator@V?$_Vector_val@U?$_Simple_types@VCString@WTL@@@std@@@std@@@std@@QAE@PAVCString@WTL@@PBU_Container_base0@1@@Z 100026f0 f i mdump.obj
 0001:000016fe       ??0?$_Vector_iterator@V?$_Vector_val@U?$_Simple_types@VCString@WTL@@@std@@@std@@@std@@QAE@PAVCString@WTL@@PBU_Container_base0@1@@Z 100026fe f i mdump.obj
 0001:0000170c       ??0?$_Vector_val@U?$_Simple_types@VCString@WTL@@@std@@@std@@QAE@XZ 1000270c f i mdump.obj
 0001:00001719       ??0?$_Wrap_alloc@V?$allocator@D@std@@@std@@QAE@XZ 10002719 f i mdump.obj
 0001:0000171c       ??0?$_Wrap_alloc@V?$allocator@VCString@WTL@@@std@@@std@@QAE@XZ 1000271c f i mdump.obj
 0001:0000171f       ??0?$allocator@D@std@@QAE@XZ 1000271f f i mdump.obj
 0001:00001722       ??0?$allocator@VCString@WTL@@@std@@QAE@XZ 10002722 f i mdump.obj
 0001:00001725       ??0?$basic_string@DU?$char_traits@D@std@@V?$allocator@D@2@@std@@QAE@PBD@Z 10002725 f i mdump.obj
 0001:00001754       ??0?$vector@VCString@WTL@@V?$allocator@VCString@WTL@@@std@@@std@@QAE@XZ 10002754 f i mdump.obj
 0001:00001761       ??0DumpData@@QAE@XZ        10002761 f i mdump.obj
 0001:0000176c       ??0MiniDumper@@QAE@XZ      1000276c f   mdump.obj
 0001:00001859       ??0ResourceSwitch@@QAE@PB_W@Z 10002859 f i mdump.obj
 0001:00001889       ??0TotalUptimeAndCrashCalculator@@QAE@PB_W00@Z 10002889 f i mdump.obj
 0001:0000198c       ??0_Generic_error_category@std@@QAE@XZ 1000298c f i mdump.obj
 0001:00001995       ??0_Iostream_error_category@std@@QAE@XZ 10002995 f i mdump.obj
 0001:0000199e       ??0_System_error_category@std@@QAE@XZ 1000299e f i mdump.obj
 0001:000019a7       ??0_U_STRINGorID@ATL@@QAE@PB_W@Z 100029a7 f i mdump.obj
 0001:000019b5       ??0error_category@std@@QAE@XZ 100029b5 f i mdump.obj
 0001:000019be       ??0error_condition@std@@QAE@HABVerror_category@1@@Z 100029be f i mdump.obj
 0001:000019d2       ??0id@locale@std@@QAE@I@Z  100029d2 f i mdump.obj
 0001:000019e0       ??1?$basic_string@DU?$char_traits@D@std@@V?$allocator@D@2@@std@@QAE@XZ 100029e0 f i mdump.obj
 0001:000019ea       ??1?$vector@VCString@WTL@@V?$allocator@VCString@WTL@@@std@@@std@@QAE@XZ 100029ea f i mdump.obj
 0001:000019ef       ??1DumpData@@QAE@XZ        100029ef f i mdump.obj
 0001:000019f7       ??1MiniDumper@@UAE@XZ      100029f7 f   mdump.obj
 0001:00001aa8       ??1ResourceSwitch@@QAE@XZ  10002aa8 f i mdump.obj
 0001:00001ac3       ??1TotalUptimeAndCrashCalculator@@QAE@XZ 10002ac3 f i mdump.obj
 0001:00001b17       ??1_Generic_error_category@std@@UAE@XZ 10002b17 f i mdump.obj
 0001:00001b1e       ??1_Iostream_error_category@std@@UAE@XZ 10002b1e f i mdump.obj
 0001:00001b25       ??1_System_error_category@std@@UAE@XZ 10002b25 f i mdump.obj
 0001:00001b2c       ??1error_category@std@@UAE@XZ 10002b2c f i mdump.obj
 0001:00001b33       ??2@YAPAXIPAX@Z            10002b33 f i mdump.obj
 0001:00001b3b       ??3@YAXPAX0@Z              10002b3b f i mdump.obj
 0001:00001b3c       ??8error_category@std@@QBE_NABV01@@Z 10002b3c f i mdump.obj
 0001:00001b4b       ??8error_condition@std@@QBE_NABV01@@Z 10002b4b f i mdump.obj
 0001:00001b6a       ??C?$_Vector_iterator@V?$_Vector_val@U?$_Simple_types@VCString@WTL@@@std@@@std@@@std@@QBEPAVCString@WTL@@XZ 10002b6a f i mdump.obj
 0001:00001b6d       ??D?$_Vector_const_iterator@V?$_Vector_val@U?$_Simple_types@VCString@WTL@@@std@@@std@@@std@@QBEABVCString@WTL@@XZ 10002b6d f i mdump.obj
 0001:00001b70       ??D?$_Vector_iterator@V?$_Vector_val@U?$_Simple_types@VCString@WTL@@@std@@@std@@@std@@QBEAAVCString@WTL@@XZ 10002b70 f i mdump.obj
 0001:00001b73       ??E?$_Vector_const_iterator@V?$_Vector_val@U?$_Simple_types@VCString@WTL@@@std@@@std@@@std@@QAEAAV01@XZ 10002b73 f i mdump.obj
 0001:00001b79       ??E?$_Vector_iterator@V?$_Vector_val@U?$_Simple_types@VCString@WTL@@@std@@@std@@@std@@QAEAAV01@XZ 10002b79 f i mdump.obj
 0001:00001b7f       ??M?$_Vector_const_iterator@V?$_Vector_val@U?$_Simple_types@VCString@WTL@@@std@@@std@@@std@@QBE_NABV01@@Z 10002b7f f i mdump.obj
 0001:00001b91       ??YCString@WTL@@QAEAAV01@ABV01@@Z 10002b91 f i mdump.obj
 0001:00001bac       ??_GCString@WTL@@QAEPAXI@Z 10002bac f i mdump.obj
 0001:00001bcb       ??_EMiniDumper@@UAEPAXI@Z  10002bcb f i mdump.obj
 0001:00001bcb       ??_GMiniDumper@@UAEPAXI@Z  10002bcb f i mdump.obj
 0001:00001bea       ??_GTotalUptimeAndCrashCalculator@@QAEPAXI@Z 10002bea f i mdump.obj
 0001:00001c09       ??_E_Generic_error_category@std@@UAEPAXI@Z 10002c09 f i mdump.obj
 0001:00001c09       ??_G_Generic_error_category@std@@UAEPAXI@Z 10002c09 f i mdump.obj
 0001:00001c29       ??_E_Iostream_error_category@std@@UAEPAXI@Z 10002c29 f i mdump.obj
 0001:00001c29       ??_G_Iostream_error_category@std@@UAEPAXI@Z 10002c29 f i mdump.obj
 0001:00001c49       ??_E_System_error_category@std@@UAEPAXI@Z 10002c49 f i mdump.obj
 0001:00001c49       ??_G_System_error_category@std@@UAEPAXI@Z 10002c49 f i mdump.obj
 0001:00001c69       ??_Eerror_category@std@@UAEPAXI@Z 10002c69 f i mdump.obj
 0001:00001c69       ??_Gerror_category@std@@UAEPAXI@Z 10002c69 f i mdump.obj
 0001:00001c89       ?AllocGuardMemory@MiniDumper@@QAE_NXZ 10002c89 f   mdump.obj
 0001:00001cae       ?AtlMessageBox@WTL@@YAHPAUHWND__@@V_U_STRINGorID@ATL@@1I@Z 10002cae f i mdump.obj
 0001:00001dfe       ?Compare@CString@WTL@@QBEHPB_W@Z 10002dfe f i mdump.obj
 0001:00001e11       ?CreateReportThreaded@MiniDumper@@SGIPAX@Z 10002e11 f   mdump.obj
 0001:0000206c       ?Delete@CString@WTL@@QAEHHH@Z 1000306c f i mdump.obj
 0001:000020db       ?Delta@TotalUptimeAndCrashCalculator@@QAE_JU_SYSTEMTIME@@0@Z 100030db f i mdump.obj
 0001:00002139       ?ExceptionHandler@MiniDumper@@SGJPAU_EXCEPTION_POINTERS@@K@Z 10003139 f   mdump.obj
 0001:000023b0       ?Format@CString@WTL@@QAAHPB_WZZ 100033b0 f i mdump.obj
 0001:000023c4       ?FormatMessageW@CString@WTL@@QAAHIZZ 100033c4 f i mdump.obj
 0001:0000243c       ?FormatV@CString@WTL@@QAEHPB_WPAD@Z 1000343c f i mdump.obj
 0001:00002760       ?FreeGuardMemory@MiniDumper@@QAE_NXZ 10003760 f   mdump.obj
 0001:0000277e       ?GetMFA@MiniDumper@@SA_NPAXPA_WH@Z 1000377e f   mdump.obj
 0001:000028a2       ?GetModuleInstance@CComModule@ATL@@QAEPAUHINSTANCE__@@XZ 100038a2 f i mdump.obj
 0001:000028a8       ?GetResourceInstance@CComModule@ATL@@QAEPAUHINSTANCE__@@XZ 100038a8 f i mdump.obj
 0001:000028ae       ?InterlockedExchangePointer@@YGPAXPAPAXPAX@Z 100038ae f i mdump.obj
 0001:000028b8       ?IsEmpty@CString@WTL@@QBEHXZ 100038b8 f i mdump.obj
 0001:000028c3       ?LaunchHangDetection@MiniDumper@@QAEXXZ 100038c3 f   mdump.obj
 0001:000029ae       ?MakeLower@CString@WTL@@QAEXXZ 100039ae f i mdump.obj
 0001:000029c0       ?SendReportThreaded@MiniDumper@@SGIPAX@Z 100039c0 f   mdump.obj
 0001:00002dbf       ?SetResourceInstance@CAtlBaseModule@ATL@@QAEPAUHINSTANCE__@@PAU3@@Z 10003dbf f i mdump.obj
 0001:00002dd3       ?SetResourceInstance@CComModule@ATL@@QAEPAUHINSTANCE__@@PAU3@@Z 10003dd3 f i mdump.obj
 0001:00002de8       ?TerminateHangDetection@MiniDumper@@QAEXXZ 10003de8 f   mdump.obj
 0001:00002e1c       ?TopLevelUnhandledExceptionFilter@MiniDumper@@SGJPAU_EXCEPTION_POINTERS@@@Z 10003e1c f   mdump.obj
 0001:00002e9f       ?TrimLeft@CString@WTL@@QAEXXZ 10003e9f f i mdump.obj
 0001:00002ef0       ?TrimRight@CString@WTL@@QAEXXZ 10003ef0 f i mdump.obj
 0001:00002f45       ?_Adopt@_Iterator_base0@std@@QAEXPBX@Z 10003f45 f i mdump.obj
 0001:00002f48       ?_Compat@?$_Vector_const_iterator@V?$_Vector_val@U?$_Simple_types@VCString@WTL@@@std@@@std@@@std@@QBEXABV12@@Z 10003f48 f i mdump.obj
 0001:00002f4b       ?_Copy@?$basic_string@DU?$char_traits@D@std@@V?$allocator@D@2@@std@@QAEXII@Z 10003f4b f i mdump.obj
 0001:00003042       ?_Destroy@?$vector@VCString@WTL@@V?$allocator@VCString@WTL@@@std@@@std@@IAEXPAVCString@WTL@@0@Z 10004042 f i mdump.obj
 0001:0000305f       ?_Eos@?$basic_string@DU?$char_traits@D@std@@V?$allocator@D@2@@std@@QAEXI@Z 1000405f f i mdump.obj
 0001:00003078       ?_Getal@?$_String_alloc@$0A@U?$_String_base_types@DV?$allocator@D@std@@@std@@@std@@QBE?AU?$_Wrap_alloc@V?$allocator@D@std@@@2@XZ 10004078 f i mdump.obj
 0001:00003082       ?_Getal@?$_Vector_alloc@$0A@U?$_Vec_base_types@VCString@WTL@@V?$allocator@VCString@WTL@@@std@@@std@@@std@@QBE?AU?$_Wrap_alloc@V?$allocator@VCString@WTL@@@std@@@2@XZ 10004082 f i mdump.obj
 0001:0000308c       ?_Grow@?$basic_string@DU?$char_traits@D@std@@V?$allocator@D@2@@std@@QAE_NI_N@Z 1000408c f i mdump.obj
 0001:000030ef       ?_Grow_to@?$vector@VCString@WTL@@V?$allocator@VCString@WTL@@@std@@@std@@IBEII@Z 100040ef f i mdump.obj
 0001:0000311c       ?_Inside@?$basic_string@DU?$char_traits@D@std@@V?$allocator@D@2@@std@@QAE_NPBD@Z 1000411c f i mdump.obj
 0001:00003157       ?_Inside@?$vector@VCString@WTL@@V?$allocator@VCString@WTL@@@std@@@std@@IBE_NPBVCString@WTL@@@Z 10004157 f i mdump.obj
 0001:00003171       ?_Myptr@?$_String_val@U?$_Simple_types@D@std@@@std@@QAEPADXZ 10004171 f i mdump.obj
 0001:0000317c       ?_Myptr@?$_String_val@U?$_Simple_types@D@std@@@std@@QBEPBDXZ 1000417c f i mdump.obj
 0001:00003187       ?_Orphan_all@_Container_base0@std@@QAEXXZ 10004187 f i mdump.obj
 0001:00003188       ?_Orphan_range@?$vector@VCString@WTL@@V?$allocator@VCString@WTL@@@std@@@std@@IBEXPAVCString@WTL@@0@Z 10004188 f i mdump.obj
 0001:0000318b       ?_Reallocate@?$vector@VCString@WTL@@V?$allocator@VCString@WTL@@@std@@@std@@IAEXI@Z 1000418b f i mdump.obj
 0001:0000321b       ?_Reserve@?$vector@VCString@WTL@@V?$allocator@VCString@WTL@@@std@@@std@@IAEXI@Z 1000421b f i mdump.obj
 0001:00003266       ?_Tidy@?$basic_string@DU?$char_traits@D@std@@V?$allocator@D@2@@std@@QAEX_NI@Z 10004266 f i mdump.obj
 0001:000032aa       ?_Tidy@?$vector@VCString@WTL@@V?$allocator@VCString@WTL@@@std@@@std@@IAEXXZ 100042aa f i mdump.obj
 0001:000032de       ?_Unused_capacity@?$vector@VCString@WTL@@V?$allocator@VCString@WTL@@@std@@@std@@QBEIXZ 100042de f i mdump.obj
 0001:000032e8       ?_Xlen@?$basic_string@DU?$char_traits@D@std@@V?$allocator@D@2@@std@@QBEXXZ 100042e8 f i mdump.obj
 0001:000032f3       ?_Xlen@?$vector@VCString@WTL@@V?$allocator@VCString@WTL@@@std@@@std@@IBEXXZ 100042f3 f i mdump.obj
 0001:000032fe       ?_Xran@?$basic_string@DU?$char_traits@D@std@@V?$allocator@D@2@@std@@QBEXXZ 100042fe f i mdump.obj
 0001:00003309       ?_cstrcmp@CString@WTL@@KAHPB_W0@Z 10004309 f i mdump.obj
 0001:00003312       ?_cstrisdigit@CString@WTL@@KAH_W@Z 10004312 f i mdump.obj
 0001:0000331b       ?_cstrisspace@CString@WTL@@KAH_W@Z 1000431b f i mdump.obj
 0001:00003324       ?_cstrtoi@CString@WTL@@KAHPB_W@Z 10004324 f i mdump.obj
 0001:0000332d       ?allocate@?$_Wrap_alloc@V?$allocator@D@std@@@std@@QAEPADI@Z 1000432d f i mdump.obj
 0001:00003340       ?allocate@?$_Wrap_alloc@V?$allocator@VCString@WTL@@@std@@@std@@QAEPAVCString@WTL@@I@Z 10004340 f i mdump.obj
 0001:00003353       ?allocate@?$allocator@D@std@@QAEPADI@Z 10004353 f i mdump.obj
 0001:00003366       ?allocate@?$allocator@VCString@WTL@@@std@@QAEPAVCString@WTL@@I@Z 10004366 f i mdump.obj
 0001:00003379       ?assign@?$basic_string@DU?$char_traits@D@std@@V?$allocator@D@2@@std@@QAEAAV12@ABV12@II@Z 10004379 f i mdump.obj
 0001:0000340d       ?assign@?$basic_string@DU?$char_traits@D@std@@V?$allocator@D@2@@std@@QAEAAV12@PBD@Z 1000440d f i mdump.obj
 0001:0000342c       ?assign@?$basic_string@DU?$char_traits@D@std@@V?$allocator@D@2@@std@@QAEAAV12@PBDI@Z 1000442c f i mdump.obj
 0001:000034a5       ?assign@?$char_traits@D@std@@SAXAADABD@Z 100044a5 f i mdump.obj
 0001:000034b4       ?begin@?$vector@VCString@WTL@@V?$allocator@VCString@WTL@@@std@@@std@@QAE?AV?$_Vector_iterator@V?$_Vector_val@U?$_Simple_types@VCString@WTL@@@std@@@std@@@2@XZ 100044b4 f i mdump.obj
 0001:000034c2       ?bugsplatMessage@MiniDumper@@SAIPB_WII@Z 100044c2 f   mdump.obj
 0001:000034ff       ?capacity@?$vector@VCString@WTL@@V?$allocator@VCString@WTL@@@std@@@std@@QBEIXZ 100044ff f i mdump.obj
 0001:00003508       ?capture@TotalUptimeAndCrashCalculator@@QAEX_N@Z 10004508 f i mdump.obj
 0001:00003657       ?category@error_code@std@@QBEABVerror_category@2@XZ 10004657 f i mdump.obj
 0001:0000365b       ?category@error_condition@std@@QBEABVerror_category@2@XZ 1000465b f i mdump.obj
 0001:0000365f       ?copy@?$char_traits@D@std@@SAPADPADPBDI@Z 1000465f f i mdump.obj
 0001:00003673       ?createReport@MiniDumper@@QAEXK@Z 10004673 f   mdump.obj
 0001:00003695       ?createReport@MiniDumper@@QAEXPAU_EXCEPTION_POINTERS@@@Z 10004695 f   mdump.obj
 0001:000036b7       ?createReport@MiniDumper@@QAEXPB_W@Z 100046b7 f   mdump.obj
 0001:000036e4       ?deallocate@?$_Wrap_alloc@V?$allocator@D@std@@@std@@QAEXPADI@Z 100046e4 f i mdump.obj
 0001:000036f4       ?deallocate@?$_Wrap_alloc@V?$allocator@VCString@WTL@@@std@@@std@@QAEXPAVCString@WTL@@I@Z 100046f4 f i mdump.obj
 0001:00003704       ?deallocate@?$allocator@D@std@@QAEXPADI@Z 10004704 f i mdump.obj
 0001:00003714       ?deallocate@?$allocator@VCString@WTL@@@std@@QAEXPAVCString@WTL@@I@Z 10004714 f i mdump.obj
 0001:00003724       ?debugMode@@YA_NXZ         10004724 f   mdump.obj
 0001:00003795       ?default_error_condition@_System_error_category@std@@UBE?AVerror_condition@2@H@Z 10004795 f i mdump.obj
 0001:000037c1       ?default_error_condition@error_category@std@@UBE?AVerror_condition@2@H@Z 100047c1 f i mdump.obj
 0001:000037d3       ?eatException@@YA_NK@Z     100047d3 f i mdump.obj
 0001:00003839       ?enableExceptionFilter@MiniDumper@@QAE_N_N@Z 10004839 f   mdump.obj
 0001:00003859       ?enableFullMemoryDumpAndExit@MiniDumper@@QAE_N_N@Z 10004859 f   mdump.obj
 0001:00003868       ?end@?$vector@VCString@WTL@@V?$allocator@VCString@WTL@@@std@@@std@@QAE?AV?$_Vector_iterator@V?$_Vector_val@U?$_Simple_types@VCString@WTL@@@std@@@std@@@2@XZ 10004868 f i mdump.obj
 0001:00003877       ?equivalent@error_category@std@@UBE_NABVerror_code@2@H@Z 10004877 f i mdump.obj
 0001:00003894       ?equivalent@error_category@std@@UBE_NHABVerror_condition@2@@Z 10004894 f i mdump.obj
 0001:000038b5       ?erase@?$basic_string@DU?$char_traits@D@std@@V?$allocator@D@2@@std@@QAEAAV12@I@Z 100048b5 f i mdump.obj
 0001:000038e4       ?erase@?$basic_string@DU?$char_traits@D@std@@V?$allocator@D@2@@std@@QAEAAV12@II@Z 100048e4 f i mdump.obj
 0001:00003966       ?fileVersionInfo@@YA_NPA_WAAK1@Z 10004966 f   mdump.obj
 0001:000039d8       ?foundResources@ResourceSwitch@@QAE_NXZ 100049d8 f i mdump.obj
 0001:000039e1       ?generic_category@std@@YAABVerror_category@1@XZ 100049e1 f i mdump.obj
 0001:000039e7       ?getFlags@MiniDumper@@QBEKXZ 100049e7 f i mdump.obj
 0001:000039eb       ?getLogFilePath@MiniDumper@@QAEPB_WXZ 100049eb f   mdump.obj
 0001:000039ef       ?getMiniDumpType@MiniDumper@@QBE?AW4_BS_MINIDUMP_TYPE@MiniDmpSender@@XZ 100049ef f   mdump.obj
 0001:000039f5       ?getRegistryBase@@YAXAAVCString@WTL@@@Z 100049f5 f   mdump.obj
 0001:00003a07       ?getRegistryRoot@@YAXAAVCString@WTL@@PB_W11@Z 10004a07 f   mdump.obj
 0001:00003a6b       ?initExceptionHandler@MiniDumper@@QAEXPB_W000K@Z 10004a6b f   mdump.obj
 0001:00003c7a       ?invalid_parameter_handler@@YAXPB_W00II@Z 10004c7a f i mdump.obj
 0001:00003c83       ?isExceptionFilterEnabled@MiniDumper@@QBE_NXZ 10004c83 f   mdump.obj
 0001:00003c89       ?isFullMemoryDumpAndExitEnabled@MiniDumper@@QBE_NXZ 10004c89 f   mdump.obj
 0001:00003c8f       ?length@?$char_traits@D@std@@SAIPBD@Z 10004c8f f i mdump.obj
 0001:00003ca7       ?logOutput@@YAXIPB_W_N@Z   10004ca7 f   mdump.obj
 0001:00003eaa       ?max_size@?$_Wrap_alloc@V?$allocator@D@std@@@std@@QBEIXZ 10004eaa f i mdump.obj
 0001:00003eae       ?max_size@?$_Wrap_alloc@V?$allocator@VCString@WTL@@@std@@@std@@QBEIXZ 10004eae f i mdump.obj
 0001:00003eb4       ?max_size@?$allocator@D@std@@QBEIXZ 10004eb4 f i mdump.obj
 0001:00003eb8       ?max_size@?$allocator@VCString@WTL@@@std@@QBEIXZ 10004eb8 f i mdump.obj
 0001:00003ebe       ?max_size@?$allocator_traits@V?$allocator@D@std@@@std@@SAIABV?$allocator@D@2@@Z 10004ebe f i mdump.obj
 0001:00003ec2       ?max_size@?$allocator_traits@V?$allocator@VCString@WTL@@@std@@@std@@SAIABV?$allocator@VCString@WTL@@@2@@Z 10004ec2 f i mdump.obj
 0001:00003ec8       ?max_size@?$basic_string@DU?$char_traits@D@std@@V?$allocator@D@2@@std@@QBEIXZ 10004ec8 f i mdump.obj
 0001:00003ecc       ?max_size@?$vector@VCString@WTL@@V?$allocator@VCString@WTL@@@std@@@std@@QBEIXZ 10004ecc f i mdump.obj
 0001:00003ed2       ?message@_Generic_error_category@std@@UBE?AV?$basic_string@DU?$char_traits@D@std@@V?$allocator@D@2@@2@H@Z 10004ed2 f i mdump.obj
 0001:00003eff       ?message@_Iostream_error_category@std@@UBE?AV?$basic_string@DU?$char_traits@D@std@@V?$allocator@D@2@@2@H@Z 10004eff f i mdump.obj
 0001:00003f30       ?message@_System_error_category@std@@UBE?AV?$basic_string@DU?$char_traits@D@std@@V?$allocator@D@2@@2@H@Z 10004f30 f i mdump.obj
 0001:00003f5d       ?move@?$char_traits@D@std@@SAPADPADPBDI@Z 10004f5d f i mdump.obj
 0001:00003f71       ?name@_Generic_error_category@std@@UBEPBDXZ 10004f71 f i mdump.obj
 0001:00003f77       ?name@_Iostream_error_category@std@@UBEPBDXZ 10004f77 f i mdump.obj
 0001:00003f7d       ?name@_System_error_category@std@@UBEPBDXZ 10004f7d f i mdump.obj
 0001:00003f83       ?pointer_to@?$pointer_traits@PAVCString@WTL@@@std@@SAPAVCString@WTL@@AAV34@@Z 10004f83 f i mdump.obj
 0001:00003f8b       ?push_back@?$vector@VCString@WTL@@V?$allocator@VCString@WTL@@@std@@@std@@QAEX$$QAVCString@WTL@@@Z 10004f8b f i mdump.obj
 0001:00004003       ?removeAdditionalFile@MiniDumper@@QAE_NPB_W@Z 10005003 f   mdump.obj
 0001:00004042       ?resetDescriptionString@MiniDumper@@QAEXPB_W@Z 10005042 f   mdump.obj
 0001:0000404e       ?resetVersionString@MiniDumper@@QAEXPB_W@Z 1000504e f   mdump.obj
 0001:0000405a       ?sendAdditionalFile@MiniDumper@@QAEXPB_W@Z 1000505a f   mdump.obj
 0001:00004093       ?setCallback@MiniDumper@@QAEXP6A_NIPAX0@Z@Z 10005093 f   mdump.obj
 0001:000040a0       ?setDefaultUserDescription@MiniDumper@@QAEXPB_W@Z 100050a0 f   mdump.obj
 0001:000040ac       ?setDefaultUserEmail@MiniDumper@@QAEXPB_W@Z 100050ac f   mdump.obj
 0001:000040b8       ?setDefaultUserName@MiniDumper@@QAEXPB_W@Z 100050b8 f   mdump.obj
 0001:000040c4       ?setFlags@MiniDumper@@QAE_NK@Z 100050c4 f   mdump.obj
 0001:00004103       ?setGuardByteBufferSize@MiniDumper@@QAEHH@Z 10005103 f   mdump.obj
 0001:0000412f       ?setLogFilePath@MiniDumper@@QAEXPB_W@Z 1000512f f   mdump.obj
 0001:0000413b       ?setMiniDumpType@MiniDumper@@QAEXW4_BS_MINIDUMP_TYPE@MiniDmpSender@@@Z 1000513b f   mdump.obj
 0001:0000414a       ?setResourceDllPath@MiniDumper@@QAEXPB_W@Z 1000514a f   mdump.obj
 0001:00004156       ?setUserZipPath@MiniDumper@@QAEXPB_W@Z 10005156 f   mdump.obj
 0001:00004162       ?signal_handler@@YAXH@Z    10005162 f i mdump.obj
 0001:0000416b       ?size@?$basic_string@DU?$char_traits@D@std@@V?$allocator@D@2@@std@@QBEIXZ 1000516b f i mdump.obj
 0001:0000416f       ?size@?$vector@VCString@WTL@@V?$allocator@VCString@WTL@@@std@@@std@@QBEIXZ 1000516f f i mdump.obj
 0001:00004178       ?system_category@std@@YAABVerror_category@1@XZ 10005178 f i mdump.obj
 0001:0000417e       ?terminator@@YAXXZ         1000517e f i mdump.obj
 0001:00004187       ?value@error_code@std@@QBEHXZ 10005187 f i mdump.obj
 0001:0000418a       ?value@error_condition@std@@QBEHXZ 1000518a f i mdump.obj
 0001:0000418d       ?wcsrchr@@YAPA_WPA_W_W@Z   1000518d f i mdump.obj
 0001:00004196       _hypot                     10005196 f i mdump.obj
 0001:000041cd       ??0MiniDmpSender@@QAE@PB_W000K@Z 100051cd f   sbSender.obj
 0001:00004227       ??1MiniDmpSender@@UAE@XZ   10005227 f   sbSender.obj
 0001:00004243       ?createReport@MiniDmpSender@@QAEXPAU_EXCEPTION_POINTERS@@@Z 10005243 f   sbSender.obj
 0001:0000424f       ?createReport@MiniDmpSender@@QAEXPB_W@Z 1000524f f   sbSender.obj
 0001:0000425b       ?enableExceptionFilter@MiniDmpSender@@QAE_N_N@Z 1000525b f   sbSender.obj
 0001:00004267       ?enableFullMemoryDumpAndExit@MiniDmpSender@@QAE_N_N@Z 10005267 f   sbSender.obj
 0001:00004273       ?getFlags@MiniDmpSender@@QBEKXZ 10005273 f   sbSender.obj
 0001:0000427a       ?getMiniDumpType@MiniDmpSender@@QBE?AW4_BS_MINIDUMP_TYPE@1@XZ 1000527a f   sbSender.obj
 0001:00004282       ?getMinidumpPath@MiniDmpSender@@QAEXPA_WI@Z 10005282 f   sbSender.obj
 0001:0000429f       ?imp@MiniDmpSender@@QAEPAXXZ 1000529f f   sbSender.obj
 0001:000042a5       ?imp@MiniDumper@@QAEPAXXZ  100052a5 f i sbSender.obj
 0001:000042ab       ?isExceptionFilterEnabled@MiniDmpSender@@QBE_NXZ 100052ab f   sbSender.obj
 0001:000042b3       ?isFullMemoryDumpAndExitEnabled@MiniDmpSender@@QBE_NXZ 100052b3 f   sbSender.obj
 0001:000042bb       ?removeAdditionalFile@MiniDmpSender@@QAE_NPB_W@Z 100052bb f   sbSender.obj
 0001:000042c7       ?resetAppIdentifier@MiniDmpSender@@QAEXPB_W@Z 100052c7 f   sbSender.obj
 0001:000042d3       ?resetVersionString@MiniDmpSender@@QAEXPB_W@Z 100052d3 f   sbSender.obj
 0001:000042df       ?sendAdditionalFile@MiniDmpSender@@QAEXPB_W@Z 100052df f   sbSender.obj
 0001:000042eb       ?setCallback@MiniDmpSender@@QAEXP6A_NIPAX0@Z@Z 100052eb f   sbSender.obj
 0001:000042f7       ?setDefaultUserDescription@MiniDmpSender@@QAEXPB_W@Z 100052f7 f   sbSender.obj
 0001:00004303       ?setDefaultUserEmail@MiniDmpSender@@QAEXPB_W@Z 10005303 f   sbSender.obj
 0001:0000430f       ?setDefaultUserName@MiniDmpSender@@QAEXPB_W@Z 1000530f f   sbSender.obj
 0001:0000431b       ?setFlags@MiniDmpSender@@QAE_NK@Z 1000531b f   sbSender.obj
 0001:00004327       ?setGuardByteBufferSize@MiniDmpSender@@QAEHH@Z 10005327 f   sbSender.obj
 0001:00004333       ?setLogFilePath@MiniDmpSender@@QAEXPB_W@Z 10005333 f   sbSender.obj
 0001:0000433f       ?setMiniDumpType@MiniDmpSender@@QAEXW4_BS_MINIDUMP_TYPE@1@@Z 1000533f f   sbSender.obj
 0001:0000434b       ?setResourceDllPath@MiniDmpSender@@QAEXPB_W@Z 1000534b f   sbSender.obj
 0001:00004357       ?setUserZipPath@MiniDmpSender@@QAEXPB_W@Z 10005357 f   sbSender.obj
 0001:00004363       ?unhandledExceptionHandler@MiniDmpSender@@QAEJPAU_EXCEPTION_POINTERS@@@Z 10005363 f   sbSender.obj
 0001:0000436c       ??$?2PA_W@?$Wrapper@PA_W@?$CSimpleMap@PA_WPA_WVCExpansionVectorEqualHelper@ATL@@@ATL@@SAPAXIPAPA_W@Z 1000536c f i sbSenderApp.obj
 0001:00004374       ??$?3PA_W@?$Wrapper@PA_W@?$CSimpleMap@PA_WPA_WVCExpansionVectorEqualHelper@ATL@@@ATL@@SAXPAXPAPA_W@Z 10005374 f i sbSenderApp.obj
 0001:00004375       ??$AtlMultiply@I@ATL@@YAJPAIII@Z 10005375 f i sbSenderApp.obj
 0001:00004397       ??$AtlMultiply@K@ATL@@YAJPAKKK@Z 10005397 f i sbSenderApp.obj
 0001:000043b9       ??$AtlMultiplyThrow@I@ATL@@YAIII@Z 100053b9 f i sbSenderApp.obj
 0001:000043e1       ??0?$CAtlModuleT@VCComModule@ATL@@@ATL@@QAE@XZ 100053e1 f i sbSenderApp.obj
 0001:000043ed       ??0?$CAtlSafeAllocBufferManager@VCCRTAllocator@ATL@@@_ATL_SAFE_ALLOCA_IMPL@ATL@@QAE@XZ 100053ed f i sbSenderApp.obj
 0001:000043f3       ??0?$CAutoVectorPtr@_W@ATL@@QAE@XZ 100053f3 f i sbSenderApp.obj
 0001:000043f9       ??0?$CComCritSecLock@VCComCriticalSection@ATL@@@ATL@@QAE@AAVCComCriticalSection@1@_N@Z 100053f9 f i sbSenderApp.obj
 0001:00004420       ??0?$CSimpleMap@KPAVCMessageLoop@WTL@@V?$CSimpleMapEqualHelper@KPAVCMessageLoop@WTL@@@ATL@@@ATL@@QAE@XZ 10005420 f i sbSenderApp.obj
 0001:0000442d       ??0?$CSimpleMap@PA_WPA_WVCExpansionVectorEqualHelper@ATL@@@ATL@@QAE@XZ 1000542d f i sbSenderApp.obj
 0001:0000443a       ??0?$CTempBuffer@E$0BAA@VCCRTAllocator@ATL@@@ATL@@QAE@XZ 1000543a f i sbSenderApp.obj
 0001:00004440       ??0?$CTempBuffer@_W$0BAA@VCCRTAllocator@ATL@@@ATL@@QAE@XZ 10005440 f i sbSenderApp.obj
 0001:00004446       ??0?$CTempBuffer@_W$0EAA@VCCRTAllocator@ATL@@@ATL@@QAE@XZ 10005446 f i sbSenderApp.obj
 0001:0000444c       ??0?$Wrapper@PA_W@?$CSimpleMap@PA_WPA_WVCExpansionVectorEqualHelper@ATL@@@ATL@@QAE@ABQA_W@Z 1000544c f i sbSenderApp.obj
 0001:0000445c       ??0CAppModule@WTL@@QAE@XZ  1000545c f i sbSenderApp.obj
 0001:0000446e       ??0CAtlComModule@ATL@@QAE@XZ 1000546e f i sbSenderApp.obj
 0001:000044ad       ??0CAtlException@ATL@@QAE@J@Z 100054ad f i sbSenderApp.obj
 0001:000044bb       ??0CAtlModule@ATL@@QAE@XZ  100054bb f i sbSenderApp.obj
 0001:000044fc       ??0CComAutoDeleteCriticalSection@ATL@@QAE@XZ 100054fc f i sbSenderApp.obj
 0001:00004514       ??0CComCriticalSection@ATL@@QAE@XZ 10005514 f i sbSenderApp.obj
 0001:00004528       ??0CComModule@ATL@@QAE@XZ  10005528 f i sbSenderApp.obj
 0001:00004540       ??0CComSafeDeleteCriticalSection@ATL@@QAE@XZ 10005540 f i sbSenderApp.obj
 0001:00004558       ??0CExpansionVector@ATL@@QAE@XZ 10005558 f i sbSenderApp.obj
 0001:00004565       ??0CParseBuffer@CRegParser@ATL@@QAE@H@Z 10005565 f i sbSenderApp.obj
 0001:0000459c       ??0CRegKey@ATL@@QAE@PAVCAtlTransactionManager@1@@Z 1000559c f i sbSenderApp.obj
 0001:000045b2       ??0CRegObject@ATL@@QAE@XZ  100055b2 f i sbSenderApp.obj
 0001:000045e0       ??0CRegParser@ATL@@QAE@PAVCRegObject@1@@Z 100055e0 f i sbSenderApp.obj
 0001:000045f2       ??0CStaticDataInitCriticalSectionLock@WTL@@QAE@XZ 100055f2 f i sbSenderApp.obj
 0001:00004603       ??0IRegistrarBase@@QAE@XZ  10005603 f i sbSenderApp.obj
 0001:00004606       ??0IUnknown@@QAE@XZ        10005606 f i sbSenderApp.obj
 0001:00004609       ??0_ATL_COM_MODULE70@ATL@@QAE@XZ 10005609 f i sbSenderApp.obj
 0001:00004620       ??0_ATL_MODULE70@ATL@@QAE@XZ 10005620 f i sbSenderApp.obj
 0001:00004637       ??1?$CAtlModuleT@VCComModule@ATL@@@ATL@@UAE@XZ 10005637 f i sbSenderApp.obj
 0001:0000463c       ??1?$CAtlSafeAllocBufferManager@VCCRTAllocator@ATL@@@_ATL_SAFE_ALLOCA_IMPL@ATL@@QAE@XZ 1000563c f i sbSenderApp.obj
 0001:00004655       ??1?$CAutoVectorPtr@_W@ATL@@QAE@XZ 10005655 f i sbSenderApp.obj
 0001:00004665       ??1?$CComCritSecLock@VCComCriticalSection@ATL@@@ATL@@QAE@XZ 10005665 f i sbSenderApp.obj
 0001:0000467c       ??1?$CSimpleArray@PAUHWND__@@V?$CSimpleArrayEqualHelper@PAUHWND__@@@ATL@@@ATL@@QAE@XZ 1000567c f i sbSenderApp.obj
 0001:00004681       ??1?$CSimpleMap@KPAVCMessageLoop@WTL@@V?$CSimpleMapEqualHelper@KPAVCMessageLoop@WTL@@@ATL@@@ATL@@QAE@XZ 10005681 f i sbSenderApp.obj
 0001:00004686       ??1?$CSimpleMap@PA_WPA_WVCExpansionVectorEqualHelper@ATL@@@ATL@@QAE@XZ 10005686 f i sbSenderApp.obj
 0001:0000468b       ??1?$CTempBuffer@E$0BAA@VCCRTAllocator@ATL@@@ATL@@QAE@XZ 1000568b f i sbSenderApp.obj
 0001:00004697       ??1?$CTempBuffer@_W$0BAA@VCCRTAllocator@ATL@@@ATL@@QAE@XZ 10005697 f i sbSenderApp.obj
 0001:000046a3       ??1?$CTempBuffer@_W$0EAA@VCCRTAllocator@ATL@@@ATL@@QAE@XZ 100056a3 f i sbSenderApp.obj
 0001:000046af       ??1CAppModule@WTL@@UAE@XZ  100056af f i sbSenderApp.obj
 0001:000046ba       ??1CAtlComModule@ATL@@QAE@XZ 100056ba f i sbSenderApp.obj
 0001:000046bf       ??1CAtlModule@ATL@@UAE@XZ  100056bf f i sbSenderApp.obj
 0001:000046c4       ??1CComAutoDeleteCriticalSection@ATL@@QAE@XZ 100056c4 f i sbSenderApp.obj
 0001:000046d6       ??1CComCriticalSection@ATL@@QAE@XZ 100056d6 f i sbSenderApp.obj
 0001:000046d7       ??1CComModule@ATL@@UAE@XZ  100056d7 f i sbSenderApp.obj
 0001:000046e2       ??1CComSafeDeleteCriticalSection@ATL@@QAE@XZ 100056e2 f i sbSenderApp.obj
 0001:000046f4       ??1CExpansionVector@ATL@@QAE@XZ 100056f4 f i sbSenderApp.obj
 0001:0000471b       ??1CParseBuffer@CRegParser@ATL@@QAE@XZ 1000571b f i sbSenderApp.obj
 0001:00004725       ??1CRegKey@ATL@@QAE@XZ     10005725 f i sbSenderApp.obj
 0001:0000472a       ??1CRegObject@ATL@@UAE@XZ  1000572a f i sbSenderApp.obj
 0001:00004783       ??1CStaticDataInitCriticalSectionLock@WTL@@QAE@XZ 10005783 f i sbSenderApp.obj
 0001:00004788       ??1_ATL_COM_MODULE70@ATL@@QAE@XZ 10005788 f i sbSenderApp.obj
 0001:00004789       ??1_ATL_MODULE70@ATL@@QAE@XZ 10005789 f i sbSenderApp.obj
 0001:0000478a       ??A?$CSimpleArray@PAUHWND__@@V?$CSimpleArrayEqualHelper@PAUHWND__@@@ATL@@@ATL@@QAEAAPAUHWND__@@H@Z 1000578a f i sbSenderApp.obj
 0001:000047b4       ??B?$CTempBuffer@E$0BAA@VCCRTAllocator@ATL@@@ATL@@QBEPAEXZ 100057b4 f i sbSenderApp.obj
 0001:000047b7       ??B?$CTempBuffer@_W$0BAA@VCCRTAllocator@ATL@@@ATL@@QBEPA_WXZ 100057b7 f i sbSenderApp.obj
 0001:000047ba       ??B?$CTempBuffer@_W$0EAA@VCCRTAllocator@ATL@@@ATL@@QBEPA_WXZ 100057ba f i sbSenderApp.obj
 0001:000047bd       ??BCRegKey@ATL@@QBEPAUHKEY__@@XZ 100057bd f i sbSenderApp.obj
 0001:000047c0       ??_G?$CSimpleArray@PAUHWND__@@V?$CSimpleArrayEqualHelper@PAUHWND__@@@ATL@@@ATL@@QAEPAXI@Z 100057c0 f i sbSenderApp.obj
 0001:000047df       ??_G?$CSimpleMap@KPAVCMessageLoop@WTL@@V?$CSimpleMapEqualHelper@KPAVCMessageLoop@WTL@@@ATL@@@ATL@@QAEPAXI@Z 100057df f i sbSenderApp.obj
 0001:000047fe       ??_GCAppModule@WTL@@UAEPAXI@Z 100057fe f i sbSenderApp.obj
 0001:000047fe       ??_ECAppModule@WTL@@UAEPAXI@Z 100057fe f i sbSenderApp.obj
 0001:00004823       ??_ECComModule@ATL@@UAEPAXI@Z 10005823 f i sbSenderApp.obj
 0001:00004823       ??_GCComModule@ATL@@UAEPAXI@Z 10005823 f i sbSenderApp.obj
 0001:00004848       ??_ECRegObject@ATL@@UAEPAXI@Z 10005848 f i sbSenderApp.obj
 0001:00004848       ??_GCRegObject@ATL@@UAEPAXI@Z 10005848 f i sbSenderApp.obj
 0001:00004867       ?Add@?$CSimpleMap@PA_WPA_WVCExpansionVectorEqualHelper@ATL@@@ATL@@QAEHABQA_W0@Z 10005867 f i sbSenderApp.obj
 0001:000048bc       ?Add@CExpansionVector@ATL@@QAEHPB_W0@Z 100058bc f i sbSenderApp.obj
 0001:000049c5       ?AddChar@CParseBuffer@CRegParser@ATL@@QAEHPB_W@Z 100059c5 f i sbSenderApp.obj
 0001:000049d6       ?AddCommonRGSReplacements@?$CAtlModuleT@VCComModule@ATL@@@ATL@@UAEJPAUIRegistrarBase@@@Z 100059d6 f i sbSenderApp.obj
 0001:000049f0       ?AddRef@CRegObject@ATL@@UAGKXZ 100059f0 f i sbSenderApp.obj
 0001:000049f6       ?AddReplacement@CRegObject@ATL@@UAGJPB_W0@Z 100059f6 f i sbSenderApp.obj
 0001:00004a55       ?AddString@CParseBuffer@CRegParser@ATL@@QAEHPB_W@Z 10005a55 f i sbSenderApp.obj
 0001:00004a91       ?AddValue@CRegParser@ATL@@IAEJAAVCRegKey@2@PB_WPA_W@Z 10005a91 f i sbSenderApp.obj
 0001:00004e25       ?Allocate@?$CTempBuffer@E$0BAA@VCCRTAllocator@ATL@@@ATL@@QAEPAEI@Z 10005e25 f i sbSenderApp.obj
 0001:00004e54       ?Allocate@?$CTempBuffer@_W$0BAA@VCCRTAllocator@ATL@@@ATL@@QAEPA_WI@Z 10005e54 f i sbSenderApp.obj
 0001:00004e83       ?Allocate@?$CTempBuffer@_W$0EAA@VCCRTAllocator@ATL@@@ATL@@QAEPA_WI@Z 10005e83 f i sbSenderApp.obj
 0001:00004eb2       ?Allocate@CCRTAllocator@ATL@@SAPAXI@Z 10005eb2 f i sbSenderApp.obj
 0001:00004ebb       ?AllocateBytes@?$CTempBuffer@E$0BAA@VCCRTAllocator@ATL@@@ATL@@QAEPAEI@Z 10005ebb f i sbSenderApp.obj
 0001:00004ee0       ?AllocateBytes@?$CTempBuffer@_W$0BAA@VCCRTAllocator@ATL@@@ATL@@QAEPA_WI@Z 10005ee0 f i sbSenderApp.obj
 0001:00004f05       ?AllocateBytes@?$CTempBuffer@_W$0EAA@VCCRTAllocator@ATL@@@ATL@@QAEPA_WI@Z 10005f05 f i sbSenderApp.obj
 0001:00004f2a       ?AllocateHeap@?$CTempBuffer@E$0BAA@VCCRTAllocator@ATL@@@ATL@@AAEXI@Z 10005f2a f i sbSenderApp.obj
 0001:00004f4f       ?AllocateHeap@?$CTempBuffer@_W$0BAA@VCCRTAllocator@ATL@@@ATL@@AAEXI@Z 10005f4f f i sbSenderApp.obj
 0001:00004f74       ?AllocateHeap@?$CTempBuffer@_W$0EAA@VCCRTAllocator@ATL@@@ATL@@AAEXI@Z 10005f74 f i sbSenderApp.obj
 0001:00004f99       ?Append@CParseBuffer@CRegParser@ATL@@QAEHPB_WH@Z 10005f99 f i sbSenderApp.obj
 0001:00005026       ?AtlCallTermFunc@ATL@@YGXPAU_ATL_MODULE70@1@@Z 10006026 f i sbSenderApp.obj
 0001:00005069       ?AtlCoTaskMemCAlloc@ATL@@YAPAXKK@Z 10006069 f i sbSenderApp.obj
 0001:00005098       ?AtlCoTaskMemRecalloc@ATL@@YAPAXPAXKK@Z 10006098 f i sbSenderApp.obj
 0001:000050ca       ?AtlCrtErrorCheck@ATL@@YAHH@Z 100060ca f i sbSenderApp.obj
 0001:00005105       ?AtlGetPerUserRegistration@ATL@@YGJPA_N@Z 10006105 f i sbSenderApp.obj
 0001:00005123       ?AtlHresultFromLastError@ATL@@YAJXZ 10006123 f i sbSenderApp.obj
 0001:0000513a       ?AtlHresultFromWin32@ATL@@YAJK@Z 1000613a f i sbSenderApp.obj
 0001:0000514f       ?AtlThrowImpl@ATL@@YGXJ@Z  1000614f f i sbSenderApp.obj
 0001:00005167       ?Attach@?$CAutoVectorPtr@_W@ATL@@QAEXPA_W@Z 10006167 f i sbSenderApp.obj
 0001:00005173       ?Attach@CRegKey@ATL@@QAEXPAUHKEY__@@@Z 10006173 f i sbSenderApp.obj
 0001:00005187       ?CanForceRemoveKey@CRegParser@ATL@@IAEHPB_W@Z 10006187 f i sbSenderApp.obj
 0001:000051b6       ?ChToByte@CRegParser@ATL@@KAE_W@Z 100061b6 f i sbSenderApp.obj
 0001:000051ee       ?ClearReplacements@CExpansionVector@ATL@@QAEJXZ 100061ee f i sbSenderApp.obj
 0001:0000522b       ?ClearReplacements@CRegObject@ATL@@UAGJXZ 1000622b f i sbSenderApp.obj
 0001:00005256       ?Close@CRegKey@ATL@@QAEJXZ 10006256 f i sbSenderApp.obj
 0001:00005270       ?Create@CRegKey@ATL@@QAEJPAUHKEY__@@PB_WPA_WKKPAU_SECURITY_ATTRIBUTES@@PAK@Z 10006270 f i sbSenderApp.obj
 0001:000052e1       ?Decrement@CComMultiThreadModel@ATL@@SGKPAJ@Z 100062e1 f i sbSenderApp.obj
 0001:000052eb       ?DeleteSubKey@CRegKey@ATL@@QAEJPB_W@Z 100062eb f i sbSenderApp.obj
 0001:00005364       ?DeleteValue@CRegKey@ATL@@QAEJPB_W@Z 10006364 f i sbSenderApp.obj
 0001:00005376       ?Detach@?$CAutoVectorPtr@_W@ATL@@QAEPA_WXZ 10006376 f i sbSenderApp.obj
 0001:0000537c       ?Detach@CParseBuffer@CRegParser@ATL@@QAEPA_WXZ 1000637c f i sbSenderApp.obj
 0001:0000538a       ?Detach@CRegKey@ATL@@QAEPAUHKEY__@@XZ 1000638a f i sbSenderApp.obj
 0001:00005397       ?EndOfVar@CRegParser@ATL@@IAEHXZ 10006397 f i sbSenderApp.obj
 0001:000053b7       ?EscapeSingleQuote@CAtlModule@ATL@@SAXPA_WIPB_W@Z 100063b7 f i sbSenderApp.obj
 0001:00005406       ?FinalConstruct@CRegObject@ATL@@QAEJXZ 10006406 f i sbSenderApp.obj
 0001:0000541b       ?FindKey@?$CSimpleMap@PA_WPA_WVCExpansionVectorEqualHelper@ATL@@@ATL@@QBEHABQA_W@Z 1000641b f i sbSenderApp.obj
 0001:00005452       ?Free@?$CAutoVectorPtr@_W@ATL@@QAEXXZ 10006452 f i sbSenderApp.obj
 0001:00005462       ?Free@CCRTAllocator@ATL@@SAXPAX@Z 10006462 f i sbSenderApp.obj
 0001:00005467       ?FreeHeap@?$CTempBuffer@E$0BAA@VCCRTAllocator@ATL@@@ATL@@AAEXXZ 10006467 f i sbSenderApp.obj
 0001:00005470       ?FreeHeap@?$CTempBuffer@_W$0BAA@VCCRTAllocator@ATL@@@ATL@@AAEXXZ 10006470 f i sbSenderApp.obj
 0001:00005479       ?FreeHeap@?$CTempBuffer@_W$0EAA@VCCRTAllocator@ATL@@@ATL@@AAEXXZ 10006479 f i sbSenderApp.obj
 0001:00005482       ?GenerateError@CRegParser@ATL@@IAEJI@Z 10006482 f i sbSenderApp.obj
 0001:0000548a       ?GetAppId@?$CAtlModuleT@VCComModule@ATL@@@ATL@@SAPB_WXZ 1000648a f i sbSenderApp.obj
 0001:00005490       ?GetGITPtr@CAtlModule@ATL@@UAEJPAPAUIGlobalInterfaceTable@@@Z 10006490 f i sbSenderApp.obj
 0001:000054dc       ?GetKeyAt@?$CSimpleMap@PA_WPA_WVCExpansionVectorEqualHelper@ATL@@@ATL@@QBEAAPA_WH@Z 100064dc f i sbSenderApp.obj
 0001:00005506       ?GetLockCount@CAtlModule@ATL@@UAEJXZ 10006506 f i sbSenderApp.obj
 0001:0000550a       ?GetModuleInstance@CAtlBaseModule@ATL@@QAEPAUHINSTANCE__@@XZ 1000650a f i sbSenderApp.obj
 0001:0000550e       ?GetSize@?$CSimpleArray@PAUHWND__@@V?$CSimpleArrayEqualHelper@PAUHWND__@@@ATL@@@ATL@@QBEHXZ 1000650e f i sbSenderApp.obj
 0001:00005512       ?GetSize@?$CSimpleMap@PA_WPA_WVCExpansionVectorEqualHelper@ATL@@@ATL@@QBEHXZ 10006512 f i sbSenderApp.obj
 0001:00005516       ?GetValueAt@?$CSimpleMap@PA_WPA_WVCExpansionVectorEqualHelper@ATL@@@ATL@@QBEAAPA_WH@Z 10006516 f i sbSenderApp.obj
 0001:00005541       ?HKeyFromString@CRegParser@ATL@@KAPAUHKEY__@@PA_W@Z 10006541 f i sbSenderApp.obj
 0001:0000556f       ?HasSubKeys@CRegParser@ATL@@IAEHPAUHKEY__@@@Z 1000656f f i sbSenderApp.obj
 0001:000055a6       ?Increment@CComMultiThreadModel@ATL@@SGKPAJ@Z 100065a6 f i sbSenderApp.obj
 0001:000055b0       ?Init@CAppModule@WTL@@QAEJPAU_ATL_OBJMAP_ENTRY30@ATL@@PAUHINSTANCE__@@PBU_GUID@@@Z 100065b0 f i sbSenderApp.obj
 0001:0000562d       ?Init@CComCriticalSection@ATL@@QAEJXZ 1000662d f i sbSenderApp.obj
 0001:00005654       ?Init@CComModule@ATL@@QAEJPAU_ATL_OBJMAP_ENTRY30@2@PAUHINSTANCE__@@PBU_GUID@@@Z 10006654 f i sbSenderApp.obj
 0001:000056b3       ?Init@CComSafeDeleteCriticalSection@ATL@@QAEJXZ 100066b3 f i sbSenderApp.obj
 0001:000056c5       ?InitLibId@?$CAtlModuleT@VCComModule@ATL@@@ATL@@SAXXZ 100066c5 f i sbSenderApp.obj
 0001:000056c6       ?InternalSetAtIndex@?$CSimpleMap@PA_WPA_WVCExpansionVectorEqualHelper@ATL@@@ATL@@QAEXHABQA_W0@Z 100066c6 f i sbSenderApp.obj
 0001:000056f0       ?IsEqualKey@CExpansionVectorEqualHelper@ATL@@SA_NQA_W0@Z 100066f0 f i sbSenderApp.obj
 0001:00005707       ?IsSpace@CRegParser@ATL@@IAEH_W@Z 10006707 f i sbSenderApp.obj
 0001:0000572f       ?Lock@?$CComCritSecLock@VCComCriticalSection@ATL@@@ATL@@QAEJXZ 1000672f f i sbSenderApp.obj
 0001:00005742       ?Lock@CAtlModule@ATL@@UAEJXZ 10006742 f i sbSenderApp.obj
 0001:0000574d       ?Lock@CComCriticalSection@ATL@@QAEJXZ 1000674d f i sbSenderApp.obj
 0001:00005757       ?Lock@CComSafeDeleteCriticalSection@ATL@@QAEJXZ 10006757 f i sbSenderApp.obj
 0001:00005761       ?Lock@CStaticDataInitCriticalSectionLock@WTL@@QAEJXZ 10006761 f i sbSenderApp.obj
 0001:00005774       ?Lookup@?$CSimpleMap@PA_WPA_WVCExpansionVectorEqualHelper@ATL@@@ATL@@QBEPA_WABQA_W@Z 10006774 f i sbSenderApp.obj
 0001:0000579a       ?NextToken@CRegParser@ATL@@IAEJPA_W@Z 1000679a f i sbSenderApp.obj
 0001:000058d5       ?OLE2CT_EX@@YAPB_WPB_WI@Z  100068d5 f i sbSenderApp.obj
 0001:000058dd       ?Open@CRegKey@ATL@@QAEJPAUHKEY__@@PB_WK@Z 100068dd f i sbSenderApp.obj
 0001:00005934       ?PreProcessBuffer@CRegParser@ATL@@QAEJPA_WPAPA_W@Z 10006934 f i sbSenderApp.obj
 0001:00005b8a       ?QueryInterface@CRegObject@ATL@@UAGJABU_GUID@@PAPAX@Z 10006b8a f i sbSenderApp.obj
 0001:00005b92       ?RecurseDeleteKey@CRegKey@ATL@@QAEJPB_W@Z 10006b92 f i sbSenderApp.obj
 0001:00005c56       ?RegCreateKeyExW@CAtlTransactionManager@ATL@@QAEJPAUHKEY__@@PB_WKPA_WKKQAU_SECURITY_ATTRIBUTES@@PAPAU3@PAK@Z 10006c56 f i sbSenderApp.obj
 0001:00005cb9       ?RegDeleteKeyW@CAtlTransactionManager@ATL@@QAEJPAUHKEY__@@PB_W@Z 10006cb9 f i sbSenderApp.obj
 0001:00005d0b       ?RegOpenKeyExW@CAtlTransactionManager@ATL@@QAEJPAUHKEY__@@PB_WKKPAPAU3@@Z 10006d0b f i sbSenderApp.obj
 0001:00005d62       ?RegisterBuffer@CRegParser@ATL@@QAEJPA_WH@Z 10006d62 f i sbSenderApp.obj
 0001:00005e9d       ?RegisterFromResource@CRegObject@ATL@@IAEJPB_W00H@Z 10006e9d f i sbSenderApp.obj
 0001:00006014       ?RegisterSubkeys@CRegParser@ATL@@IAEJPA_WPAUHKEY__@@HH@Z 10007014 f i sbSenderApp.obj
 0001:00006607       ?Release@CRegObject@ATL@@UAGKXZ 10007607 f i sbSenderApp.obj
 0001:0000660c       ?RemoveAll@?$CSimpleArray@PAUHWND__@@V?$CSimpleArrayEqualHelper@PAUHWND__@@@ATL@@@ATL@@QAEXXZ 1000760c f i sbSenderApp.obj
 0001:00006629       ?RemoveAll@?$CSimpleMap@KPAVCMessageLoop@WTL@@V?$CSimpleMapEqualHelper@KPAVCMessageLoop@WTL@@@ATL@@@ATL@@QAEXXZ 10007629 f i sbSenderApp.obj
 0001:00006655       ?RemoveAll@?$CSimpleMap@PA_WPA_WVCExpansionVectorEqualHelper@ATL@@@ATL@@QAEXXZ 10007655 f i sbSenderApp.obj
 0001:00006681       ?ResourceRegister@CRegObject@ATL@@QAGJPB_WI0@Z 10007681 f i sbSenderApp.obj
 0001:000066b4       ?ResourceRegisterSz@CRegObject@ATL@@QAGJPB_W00@Z 100076b4 f i sbSenderApp.obj
 0001:000066f6       ?ResourceUnregister@CRegObject@ATL@@QAGJPB_WI0@Z 100076f6 f i sbSenderApp.obj
 0001:00006728       ?ResourceUnregisterSz@CRegObject@ATL@@QAGJPB_W00@Z 10007728 f i sbSenderApp.obj
 0001:00006767       ?SetDWORDValue@CRegKey@ATL@@QAEJPB_WK@Z 10007767 f i sbSenderApp.obj
 0001:00006783       ?SetMultiStringValue@CRegKey@ATL@@QAEJPB_W0@Z 10007783 f i sbSenderApp.obj
 0001:000067cd       ?SetStringValue@CRegKey@ATL@@QAEJPB_W0K@Z 100077cd f i sbSenderApp.obj
 0001:00006807       ?SkipAssignment@CRegParser@ATL@@IAEJPA_W@Z 10007807 f i sbSenderApp.obj
 0001:0000686e       ?SkipWhiteSpace@CRegParser@ATL@@IAEXXZ 1000786e f i sbSenderApp.obj
 0001:00006890       ?StrChrW@CRegParser@ATL@@KAPA_WPA_W_W@Z 10007890 f i sbSenderApp.obj
 0001:000068bd       ?StrFromMap@CRegObject@ATL@@QAEPB_WPA_W@Z 100078bd f i sbSenderApp.obj
 0001:000068eb       ?T2COLE_EX@@YAPB_WPB_WI@Z  100078eb f i sbSenderApp.obj
 0001:000068f3       ?T2OLE_EX@@YAPA_WPA_WI@Z   100078f3 f i sbSenderApp.obj
 0001:000068fb       ?Term@CAppModule@WTL@@QAEXXZ 100078fb f i sbSenderApp.obj
 0001:00006922       ?Term@CAtlComModule@ATL@@QAEXXZ 10007922 f i sbSenderApp.obj
 0001:0000696c       ?Term@CAtlModule@ATL@@QAEXXZ 1000796c f i sbSenderApp.obj
 0001:000069a5       ?Term@CComCriticalSection@ATL@@QAEJXZ 100079a5 f i sbSenderApp.obj
 0001:000069af       ?Term@CComModule@ATL@@QAEXXZ 100079af f i sbSenderApp.obj
 0001:00006a07       ?TermSettingChangeNotify@CAppModule@WTL@@QAEXXZ 10007a07 f i sbSenderApp.obj
 0001:00006a73       ?Unlock@?$CComCritSecLock@VCComCriticalSection@ATL@@@ATL@@QAEXXZ 10007a73 f i sbSenderApp.obj
 0001:00006a84       ?Unlock@CAtlModule@ATL@@UAEJXZ 10007a84 f i sbSenderApp.obj
 0001:00006a8f       ?Unlock@CComCriticalSection@ATL@@QAEJXZ 10007a8f f i sbSenderApp.obj
 0001:00006a99       ?Unlock@CStaticDataInitCriticalSectionLock@WTL@@QAEXXZ 10007a99 f i sbSenderApp.obj
 0001:00006aaa       ?UpdateRegistryFromResource@CAtlModule@ATL@@QAGJIHPAU_ATL_REGMAP_ENTRY@2@@Z 10007aaa f i sbSenderApp.obj
 0001:00006c71       ?UpdateRegistryFromResource@CAtlModule@ATL@@QAGJPB_WHPAU_ATL_REGMAP_ENTRY@2@@Z 10007c71 f i sbSenderApp.obj
 0001:00006e3b       ?UpdateRegistryFromResource@CComModule@ATL@@UAGJIHPAU_ATL_REGMAP_ENTRY@2@@Z 10007e3b f i sbSenderApp.obj
 0001:00006e44       ?UpdateRegistryFromResource@CComModule@ATL@@UAGJPB_WHPAU_ATL_REGMAP_ENTRY@2@@Z 10007e44 f i sbSenderApp.obj
 0001:00006e4d       ?UpdateRegistryFromResourceD@CComModule@ATL@@UAGJIHPAU_ATL_REGMAP_ENTRY@2@@Z 10007e4d f i sbSenderApp.obj
 0001:00006e55       ?UpdateRegistryFromResourceD@CComModule@ATL@@UAGJPB_WHPAU_ATL_REGMAP_ENTRY@2@@Z 10007e55 f i sbSenderApp.obj
 0001:00006e5d       ?VTFromRegType@CRegParser@ATL@@KAHPB_WAAG@Z 10007e5d f i sbSenderApp.obj
 0001:00006ef4       ?_AtlGetConversionACP@ATL@@YGIXZ 10007ef4 f i sbSenderApp.obj
 0001:00006ef8       ?_AtlInitializeCriticalSectionEx@ATL@@YAHPAU_RTL_CRITICAL_SECTION@@KK@Z 10007ef8 f i sbSenderApp.obj
 0001:00006f09       ?_AtlRaiseException@ATL@@YAXKK@Z 10007f09 f i sbSenderApp.obj
 0001:00006f1e       ?memcpy_s@Checked@ATL@@YAXPAXIPBXI@Z 10007f1e f i sbSenderApp.obj
 0001:00006f3d       ?ocscpy_s@@YA_NPA_WIPB_W@Z 10007f3d f i sbSenderApp.obj
 0001:00006f76       ?ocslen@@YAHPB_W@Z         10007f76 f i sbSenderApp.obj
 0001:00006f89       ?tcsncpy_s@Checked@ATL@@YAHPA_WIPB_WI@Z 10007f89 f i sbSenderApp.obj
 0001:00006fa8       ?wcsstr@@YAPA_WPA_WPB_W@Z  10007fa8 f i sbSenderApp.obj
 0001:00006fb1       _DllMain@12                10007fb1 f   sbSenderApp.obj
 0001:00006fe2       _HRESULT_FROM_WIN32        10007fe2 f i sbSenderApp.obj
 0001:00006ff7       ??0?$CSimpleArray@GV?$CSimpleArrayEqualHelper@G@ATL@@@ATL@@QAE@XZ 10007ff7 f i StdAfx.obj
 0001:00007004       ??0?$CTraceCategoryEx@$00$0A@@ATL@@QAE@PB_W@Z 10008004 f i StdAfx.obj
 0001:00007009       ??0?$CTraceCategoryEx@$01$0A@@ATL@@QAE@PB_W@Z 10008009 f i StdAfx.obj
 0001:0000700e       ??0?$CTraceCategoryEx@$03$0A@@ATL@@QAE@PB_W@Z 1000800e f i StdAfx.obj
 0001:00007013       ??0?$CTraceCategoryEx@$07$0A@@ATL@@QAE@PB_W@Z 10008013 f i StdAfx.obj
 0001:00007018       ??0?$CTraceCategoryEx@$0BA@$0A@@ATL@@QAE@PB_W@Z 10008018 f i StdAfx.obj
 0001:0000701d       ??0?$CTraceCategoryEx@$0BAA@$0A@@ATL@@QAE@PB_W@Z 1000801d f i StdAfx.obj
 0001:00007022       ??0?$CTraceCategoryEx@$0BAAA@$0A@@ATL@@QAE@PB_W@Z 10008022 f i StdAfx.obj
 0001:00007027       ??0?$CTraceCategoryEx@$0BAAAA@$0A@@ATL@@QAE@PB_W@Z 10008027 f i StdAfx.obj
 0001:0000702c       ??0?$CTraceCategoryEx@$0BAAAAA@$0A@@ATL@@QAE@PB_W@Z 1000802c f i StdAfx.obj
 0001:00007031       ??0?$CTraceCategoryEx@$0CA@$0A@@ATL@@QAE@PB_W@Z 10008031 f i StdAfx.obj
 0001:00007036       ??0?$CTraceCategoryEx@$0CAA@$0A@@ATL@@QAE@PB_W@Z 10008036 f i StdAfx.obj
 0001:0000703b       ??0?$CTraceCategoryEx@$0CAAA@$0A@@ATL@@QAE@PB_W@Z 1000803b f i StdAfx.obj
 0001:00007040       ??0?$CTraceCategoryEx@$0CAAAA@$0A@@ATL@@QAE@PB_W@Z 10008040 f i StdAfx.obj
 0001:00007045       ??0?$CTraceCategoryEx@$0CAAAAA@$0A@@ATL@@QAE@PB_W@Z 10008045 f i StdAfx.obj
 0001:0000704a       ??0?$CTraceCategoryEx@$0EA@$0A@@ATL@@QAE@PB_W@Z 1000804a f i StdAfx.obj
 0001:0000704f       ??0?$CTraceCategoryEx@$0EAA@$0A@@ATL@@QAE@PB_W@Z 1000804f f i StdAfx.obj
 0001:00007054       ??0?$CTraceCategoryEx@$0EAAA@$0A@@ATL@@QAE@PB_W@Z 10008054 f i StdAfx.obj
 0001:00007059       ??0?$CTraceCategoryEx@$0EAAAA@$0A@@ATL@@QAE@PB_W@Z 10008059 f i StdAfx.obj
 0001:0000705e       ??0?$CTraceCategoryEx@$0EAAAAA@$0A@@ATL@@QAE@PB_W@Z 1000805e f i StdAfx.obj
 0001:00007063       ??0?$CTraceCategoryEx@$0IA@$0A@@ATL@@QAE@PB_W@Z 10008063 f i StdAfx.obj
 0001:00007068       ??0?$CTraceCategoryEx@$0IAA@$0A@@ATL@@QAE@PB_W@Z 10008068 f i StdAfx.obj
 0001:0000706d       ??0?$CTraceCategoryEx@$0IAAA@$0A@@ATL@@QAE@PB_W@Z 1000806d f i StdAfx.obj
 0001:00007072       ??0?$CTraceCategoryEx@$0IAAAA@$0A@@ATL@@QAE@PB_W@Z 10008072 f i StdAfx.obj
 0001:00007077       ??0CAtlWinModule@ATL@@QAE@XZ 10008077 f i StdAfx.obj
 0001:0000709d       ??0CTraceCategory@ATL@@QAE@PB_W@Z 1000809d f i StdAfx.obj
 0001:000070a2       ??0_ATL_WIN_MODULE70@ATL@@QAE@XZ 100080a2 f i StdAfx.obj
 0001:000070c5       ??1?$CSimpleArray@GV?$CSimpleArrayEqualHelper@G@ATL@@@ATL@@QAE@XZ 100080c5 f i StdAfx.obj
 0001:000070ca       ??1CAtlWinModule@ATL@@QAE@XZ 100080ca f i StdAfx.obj
 0001:000070e2       ??1CComBSTR@ATL@@QAE@XZ    100080e2 f i StdAfx.obj
 0001:000070eb       ??1_ATL_WIN_MODULE70@ATL@@QAE@XZ 100080eb f i StdAfx.obj
 0001:000070f3       ??1stringdispid@CComTypeInfoHolder@ATL@@QAE@XZ 100080f3 f i StdAfx.obj
 0001:000070fc       ??A?$CSimpleArray@GV?$CSimpleArrayEqualHelper@G@ATL@@@ATL@@QAEAAGH@Z 100080fc f i StdAfx.obj
 0001:00007126       ??_Estringdispid@CComTypeInfoHolder@ATL@@QAEPAXI@Z 10008126 f i StdAfx.obj
 0001:00007173       ?AtlWinModuleInit@ATL@@YGJPAU_ATL_WIN_MODULE70@1@@Z 10008173 f i StdAfx.obj
 0001:00007199       ?AtlWinModuleTerm@ATL@@YGJPAU_ATL_WIN_MODULE70@1@PAUHINSTANCE__@@@Z 10008199 f i StdAfx.obj
 0001:000071f8       ?GetSize@?$CSimpleArray@GV?$CSimpleArrayEqualHelper@G@ATL@@@ATL@@QBEHXZ 100081f8 f i StdAfx.obj
 0001:000071fc       ?RemoveAll@?$CSimpleArray@GV?$CSimpleArrayEqualHelper@G@ATL@@@ATL@@QAEXXZ 100081fc f i StdAfx.obj
 0001:00007219       ?Term@CAtlWinModule@ATL@@QAEXXZ 10008219 f i StdAfx.obj
 0001:00007226       _PathFileExistsW@4         10008226 f   shlwapi:SHLWAPI.dll
 0001:0000722c       _PathAppendW@8             1000822c f   shlwapi:SHLWAPI.dll
 0001:00007232       _PathRemoveExtensionW@4    10008232 f   shlwapi:SHLWAPI.dll
 0001:00007238       _PathStripPathW@4          10008238 f   shlwapi:SHLWAPI.dll
 0001:0000723e       _InterlockedIncrement@4    1000823e f   kernel32:KERNEL32.dll
 0001:00007244       _InterlockedDecrement@4    10008244 f   kernel32:KERNEL32.dll
 0001:0000724a       _GetProcAddress@8          1000824a f   kernel32:KERNEL32.dll
 0001:00007250       _LocalFree@4               10008250 f   kernel32:KERNEL32.dll
 0001:00007256       _GetCurrentProcess@0       10008256 f   kernel32:KERNEL32.dll
 0001:0000725c       _GetCurrentProcessId@0     1000825c f   kernel32:KERNEL32.dll
 0001:00007262       _GetCurrentThreadId@0      10008262 f   kernel32:KERNEL32.dll
 0001:00007268       _GetProcessId@4            10008268 f   kernel32:KERNEL32.dll
 0001:0000726e       _OpenThread@12             1000826e f   kernel32:KERNEL32.dll
 0001:00007274       _GetLastError@0            10008274 f   kernel32:KERNEL32.dll
 0001:0000727a       _GetThreadContext@8        1000827a f   kernel32:KERNEL32.dll
 0001:00007280       _SuspendThread@4           10008280 f   kernel32:KERNEL32.dll
 0001:00007286       _ResumeThread@4            10008286 f   kernel32:KERNEL32.dll
 0001:0000728c       _CloseHandle@4             1000828c f   kernel32:KERNEL32.dll
 0001:00007292       _FormatMessageW@28         10008292 f   kernel32:KERNEL32.dll
 0001:00007298       _lstrlenW@4                10008298 f   kernel32:KERNEL32.dll
 0001:0000729e       _LoadLibraryW@4            1000829e f   kernel32:KERNEL32.dll
 0001:000072a4       _GetTempPathW@8            100082a4 f   kernel32:KERNEL32.dll
 0001:000072aa       _CreateFileW@28            100082aa f   kernel32:KERNEL32.dll
 0001:000072b0       _DeleteFileW@4             100082b0 f   kernel32:KERNEL32.dll
 0001:000072b6       _CreateToolhelp32Snapshot@8 100082b6 f   kernel32:KERNEL32.dll
 0001:000072bc       _Thread32First@8           100082bc f   kernel32:KERNEL32.dll
 0001:000072c2       _Thread32Next@8            100082c2 f   kernel32:KERNEL32.dll
 0001:000072c8       _InterlockedExchange@8     100082c8 f   kernel32:KERNEL32.dll
 0001:000072ce       _FreeLibrary@4             100082ce f   kernel32:KERNEL32.dll
 0001:000072d4       _FlushInstructionCache@12  100082d4 f   kernel32:KERNEL32.dll
 0001:000072da       _VirtualProtect@16         100082da f   kernel32:KERNEL32.dll
 0001:000072e0       _VirtualQuery@12           100082e0 f   kernel32:KERNEL32.dll
 0001:000072e6       _OpenProcess@12            100082e6 f   kernel32:KERNEL32.dll
 0001:000072ec       _TerminateProcess@8        100082ec f   kernel32:KERNEL32.dll
 0001:000072f2       _SetUnhandledExceptionFilter@4 100082f2 f   kernel32:KERNEL32.dll
 0001:000072f8       _SetErrorMode@4            100082f8 f   kernel32:KERNEL32.dll
 0001:000072fe       _DebugBreak@0              100082fe f   kernel32:KERNEL32.dll
 0001:00007304       _WaitForSingleObject@8     10008304 f   kernel32:KERNEL32.dll
 0001:0000730a       _GetSystemTime@4           1000830a f   kernel32:KERNEL32.dll
 0001:00007310       _SystemTimeToFileTime@8    10008310 f   kernel32:KERNEL32.dll
 0001:00007316       _lstrlenA@4                10008316 f   kernel32:KERNEL32.dll
 0001:0000731c       _GetModuleFileNameW@12     1000831c f   kernel32:KERNEL32.dll
 0001:00007322       _GetModuleHandleW@4        10008322 f   kernel32:KERNEL32.dll
 0001:00007328       _CreateProcessW@40         10008328 f   kernel32:KERNEL32.dll
 0001:0000732e       _OutputDebugStringW@4      1000832e f   kernel32:KERNEL32.dll
 0001:00007334       _WritePrivateProfileStringW@16 10008334 f   kernel32:KERNEL32.dll
 0001:0000733a       _DecodePointer@4           1000833a f   kernel32:KERNEL32.dll
 0001:00007340       _RaiseException@16         10008340 f   kernel32:KERNEL32.dll
 0001:00007346       _EnterCriticalSection@4    10008346 f   kernel32:KERNEL32.dll
 0001:0000734c       _LeaveCriticalSection@4    1000834c f   kernel32:KERNEL32.dll
 0001:00007352       _InitializeCriticalSectionAndSpinCount@8 10008352 f   kernel32:KERNEL32.dll
 0001:00007358       _DeleteCriticalSection@4   10008358 f   kernel32:KERNEL32.dll
 0001:0000735e       _LoadResource@8            1000835e f   kernel32:KERNEL32.dll
 0001:00007364       _SizeofResource@8          10008364 f   kernel32:KERNEL32.dll
 0001:0000736a       _lstrcmpiW@8               1000836a f   kernel32:KERNEL32.dll
 0001:00007370       _LoadLibraryExW@12         10008370 f   kernel32:KERNEL32.dll
 0001:00007376       _FindResourceW@12          10008376 f   kernel32:KERNEL32.dll
 0001:0000737c       _MultiByteToWideChar@24    1000837c f   kernel32:KERNEL32.dll
 0001:00007382       _CharUpperW@4              10008382 f   user32:USER32.dll
 0001:00007388       _MessageBoxW@16            10008388 f   user32:USER32.dll
 0001:0000738e       _LoadStringW@16            1000838e f   user32:USER32.dll
 0001:00007394       _wvsprintfW@12             10008394 f   user32:USER32.dll
 0001:0000739a       _CharLowerW@4              1000839a f   user32:USER32.dll
 0001:000073a0       _CharNextW@4               100083a0 f   user32:USER32.dll
 0001:000073a6       _DestroyWindow@4           100083a6 f   user32:USER32.dll
 0001:000073ac       _UnregisterClassW@8        100083ac f   user32:USER32.dll
 0001:000073b2       _RegCloseKey@4             100083b2 f   advapi32:ADVAPI32.dll
 0001:000073b8       _RegCreateKeyW@12          100083b8 f   advapi32:ADVAPI32.dll
 0001:000073be       _RegOpenKeyW@12            100083be f   advapi32:ADVAPI32.dll
 0001:000073c4       _RegQueryValueExW@24       100083c4 f   advapi32:ADVAPI32.dll
 0001:000073ca       _RegSetValueExW@24         100083ca f   advapi32:ADVAPI32.dll
 0001:000073d0       _RegCreateKeyExW@36        100083d0 f   advapi32:ADVAPI32.dll
 0001:000073d6       _RegDeleteKeyW@8           100083d6 f   advapi32:ADVAPI32.dll
 0001:000073dc       _RegDeleteValueW@8         100083dc f   advapi32:ADVAPI32.dll
 0001:000073e2       _RegEnumKeyExW@32          100083e2 f   advapi32:ADVAPI32.dll
 0001:000073e8       _RegOpenKeyExW@20          100083e8 f   advapi32:ADVAPI32.dll
 0001:000073ee       _RegQueryInfoKeyW@48       100083ee f   advapi32:ADVAPI32.dll
 0001:000073f4       _CoCreateInstance@20       100083f4 f   ole32:ole32.dll
 0001:000073fa       _CoTaskMemAlloc@4          100083fa f   ole32:ole32.dll
 0001:00007400       _CoTaskMemRealloc@8        10008400 f   ole32:ole32.dll
 0001:00007406       _CoTaskMemFree@4           10008406 f   ole32:ole32.dll
 0001:0000740c       _VarUI4FromStr@16          1000840c f   oleaut32:OLEAUT32.dll
 0001:00007412       _SysFreeString@4           10008412 f   oleaut32:OLEAUT32.dll
 0001:00007418       ??$?2PAUHINSTANCE__@@@Wrapper@?$CSimpleArray@PAUHINSTANCE__@@V?$CSimpleArrayEqualHelper@PAUHINSTANCE__@@@ATL@@@ATL@@SAPAXIPAPAUHINSTANCE__@@@Z 10008418 f i atls:atlbase.obj
 0001:00007420       ??0?$CSimpleArray@PAUHINSTANCE__@@V?$CSimpleArrayEqualHelper@PAUHINSTANCE__@@@ATL@@@ATL@@QAE@XZ 10008420 f i atls:atlbase.obj
 0001:0000742d       ??0CAtlBaseModule@ATL@@QAE@XZ 1000842d f   atls:atlbase.obj
 0001:00007480       ??0Wrapper@?$CSimpleArray@PAUHINSTANCE__@@V?$CSimpleArrayEqualHelper@PAUHINSTANCE__@@@ATL@@@ATL@@QAE@ABQAUHINSTANCE__@@@Z 10008480 f i atls:atlbase.obj
 0001:00007490       ??0_ATL_BASE_MODULE70@ATL@@QAE@XZ 10008490 f i atls:atlbase.obj
 0001:000074b3       ??1?$CSimpleArray@PAUHINSTANCE__@@V?$CSimpleArrayEqualHelper@PAUHINSTANCE__@@@ATL@@@ATL@@QAE@XZ 100084b3 f i atls:atlbase.obj
 0001:000074b8       ??1CAtlBaseModule@ATL@@QAE@XZ 100084b8 f   atls:atlbase.obj
 0001:000074ce       ??1_ATL_BASE_MODULE70@ATL@@QAE@XZ 100084ce f i atls:atlbase.obj
 0001:000074d6       ??A?$CSimpleArray@PAUHINSTANCE__@@V?$CSimpleArrayEqualHelper@PAUHINSTANCE__@@@ATL@@@ATL@@QAEAAPAUHINSTANCE__@@H@Z 100084d6 f i atls:atlbase.obj
 0001:00007500       ?Add@?$CSimpleArray@PAUHINSTANCE__@@V?$CSimpleArrayEqualHelper@PAUHINSTANCE__@@@ATL@@@ATL@@QAEHABQAUHINSTANCE__@@@Z 10008500 f i atls:atlbase.obj
 0001:00007578       ?AddResourceInstance@CAtlBaseModule@ATL@@QAE_NPAUHINSTANCE__@@@Z 10008578 f   atls:atlbase.obj
 0001:000075ab       ?GetHInstanceAt@CAtlBaseModule@ATL@@QAEPAUHINSTANCE__@@H@Z 100085ab f   atls:atlbase.obj
 0001:000075f0       ?GetSize@?$CSimpleArray@PAUHINSTANCE__@@V?$CSimpleArrayEqualHelper@PAUHINSTANCE__@@@ATL@@@ATL@@QBEHXZ 100085f0 f i atls:atlbase.obj
 0001:000075f4       ?InternalSetAtIndex@?$CSimpleArray@PAUHINSTANCE__@@V?$CSimpleArrayEqualHelper@PAUHINSTANCE__@@@ATL@@@ATL@@QAEXHABQAUHINSTANCE__@@@Z 100085f4 f i atls:atlbase.obj
 0001:0000760e       ?RemoveAll@?$CSimpleArray@PAUHINSTANCE__@@V?$CSimpleArrayEqualHelper@PAUHINSTANCE__@@@ATL@@@ATL@@QAEXXZ 1000860e f i atls:atlbase.obj
 0001:0000762b       ?RemoveAt@?$CSimpleArray@PAUHINSTANCE__@@V?$CSimpleArrayEqualHelper@PAUHINSTANCE__@@@ATL@@@ATL@@QAEHH@Z 1000862b f i atls:atlbase.obj
 0001:00007673       ?RemoveResourceInstance@CAtlBaseModule@ATL@@QAE_NPAUHINSTANCE__@@@Z 10008673 f   atls:atlbase.obj
 0001:000076d2       ?memmove_s@Checked@ATL@@YAXPAXIPBXI@Z 100086d2 f i atls:atlbase.obj
 0001:000076f1       ??_I@YGXPAXIHP6EX0@Z@Z     100086f1 f i atls:stdafx.obj
 0001:00007717       ??3@YAXPAX@Z               10008717 f   LIBCMT:delete.obj
 0001:0000771c       ??_M@YGXPAXIHP6EX0@Z@Z     1000871c f   LIBCMT:ehvecdtr.obj
 0001:000077a4       ?__ArrayUnwind@@YGXPAXIHP6EX0@Z@Z 100087a4 f   LIBCMT:ehvecdtr.obj
 0001:00007802       ___copy_path_to_wide_string 10008802 f   LIBCMT:crt0dat.obj
 0001:000078b4       ___copy_to_char            100088b4 f   LIBCMT:crt0dat.obj
 0001:00007969       ___crtCorExitProcess       10008969 f   LIBCMT:crt0dat.obj
 0001:0000799d       ___crtExitProcess          1000899d f   LIBCMT:crt0dat.obj
 0001:000079b3       ___freeCrtMemory           100089b3 f   LIBCMT:crt0dat.obj
 0001:00007ac0       __amsg_exit                10008ac0 f   LIBCMT:crt0dat.obj
 0001:00007adc       __c_exit                   10008adc f   LIBCMT:crt0dat.obj
 0001:00007aeb       __cexit                    10008aeb f   LIBCMT:crt0dat.obj
 0001:00007afa       __cinit                    10008afa f   LIBCMT:crt0dat.obj
 0001:00007b7e       __exit                     10008b7e f   LIBCMT:crt0dat.obj
 0001:00007b92       __exit_app                 10008b92 f   LIBCMT:crt0dat.obj
 0001:00007ba0       __get_pgmptr               10008ba0 f   LIBCMT:crt0dat.obj
 0001:00007bcf       __get_wpgmptr              10008bcf f   LIBCMT:crt0dat.obj
 0001:00007bfe       __init_pointers            10008bfe f   LIBCMT:crt0dat.obj
 0001:00007c6c       __initterm_e               10008c6c f   LIBCMT:crt0dat.obj
 0001:00007c8e       __lockexit                 10008c8e f   LIBCMT:crt0dat.obj
 0001:00007c97       __unlockexit               10008c97 f   LIBCMT:crt0dat.obj
 0001:00007dcf       _exit                      10008dcf f   LIBCMT:crt0dat.obj
 0001:00007de3       ??_U@YAPAXI@Z              10008de3 f   LIBCMT:new2.obj
 0001:00007dec       ??_V@YAXPAX@Z              10008dec f   LIBCMT:delete2.obj
 0001:00007e00       _memcpy                    10008e00 f   LIBCMT:memcpy.obj
 0001:00008450       _memset                    10009450 f   LIBCMT:memset.obj
 0001:000084e0       _wcscpy_s                  100094e0 f   LIBCMT:wcscpy_s.obj
 0001:0000853c       _wcsstr                    1000953c f   LIBCMT:wcsstr.obj
 0001:000087cf       ___swprintf_l              100097cf f   LIBCMT:swprintf.obj
 0001:000087e9       __scwprintf                100097e9 f   LIBCMT:swprintf.obj
 0001:000087fc       __scwprintf_l              100097fc f   LIBCMT:swprintf.obj
 0001:00008813       __scwprintf_p              10009813 f   LIBCMT:swprintf.obj
 0001:00008826       __scwprintf_p_l            10009826 f   LIBCMT:swprintf.obj
 0001:0000883d       __snwprintf_s              1000983d f   LIBCMT:swprintf.obj
 0001:0000885c       __snwprintf_s_l            1000985c f   LIBCMT:swprintf.obj
 0001:0000887c       __swprintf                 1000987c f   LIBCMT:swprintf.obj
 0001:0000891f       __swprintf_p               1000991f f   LIBCMT:swprintf.obj
 0001:0000893b       __swprintf_p_l             1000993b f   LIBCMT:swprintf.obj
 0001:00008958       __swprintf_s_l             10009958 f   LIBCMT:swprintf.obj
 0001:00008975       _swprintf_s                10009975 f   LIBCMT:swprintf.obj
 0001:00008991       @__security_check_cookie@4 10009991 f   LIBCMT:secchk.obj
 0001:000089a0       __CxxThrowException@8      100099a0 f   LIBCMT:throw.obj
 0001:00008a03       __EH_epilog3               10009a03 f   LIBCMT:ehprolg3.obj
 0001:00008a17       __EH_epilog3_GS            10009a17 f   LIBCMT:ehprolg3.obj
 0001:00008a26       __EH_epilog3_catch_GS      10009a26 f   LIBCMT:ehprolg3.obj
 0001:00008a35       __EH_prolog3               10009a35 f   LIBCMT:ehprolg3.obj
 0001:00008a68       __EH_prolog3_GS            10009a68 f   LIBCMT:ehprolg3.obj
 0001:00008a9e       __EH_prolog3_catch         10009a9e f   LIBCMT:ehprolg3.obj
 0001:00008ad4       __EH_prolog3_catch_GS      10009ad4 f   LIBCMT:ehprolg3.obj
 0001:00008b10       __SEH_prolog4              10009b10 f   LIBCMT:sehprolg4.obj
 0001:00008b55       __SEH_epilog4              10009b55 f   LIBCMT:sehprolg4.obj
 0001:00008c39       ?_CallCatchBlock2@@YAPAXPAUEHRegistrationNode@@PBU_s_FuncInfo@@PAXHK@Z 10009c39 f   LIBCMT:_trnsctrl_.obj
 0001:00008c99       ?_CallMemberFunction0@@YGXPAX0@Z 10009c99 f   LIBCMT:_trnsctrl_.obj
 0001:00008ca0       ?_CallMemberFunction1@@YGXPAX00@Z 10009ca0 f   LIBCMT:_trnsctrl_.obj
 0001:00008ca7       ?_CallMemberFunction2@@YGXPAX00H@Z 10009ca7 f   LIBCMT:_trnsctrl_.obj
 0001:00008cae       ?_CallSETranslator@@YAHPAUEHExceptionRecord@@PAUEHRegistrationNode@@PAX2PBU_s_FuncInfo@@H1@Z 10009cae f   LIBCMT:_trnsctrl_.obj
 0001:00008d85       ?_GetRangeOfTrysToCheck@@YAPBU_s_TryBlockMapEntry@@PBU_s_FuncInfo@@HHPAI1@Z 10009d85 f   LIBCMT:_trnsctrl_.obj
 0001:00008e03       ?_JumpToContinuation@@YGXPAXPAUEHRegistrationNode@@@Z 10009e03 f   LIBCMT:_trnsctrl_.obj
 0001:00008e35       ?_UnwindNestedFrames@@YGXPAUEHRegistrationNode@@PAUEHExceptionRecord@@@Z 10009e35 f   LIBCMT:_trnsctrl_.obj
 0001:00008e8a       __CreateFrameInfo          10009e8a f   LIBCMT:_trnsctrl_.obj
 0001:00008eb4       __FindAndUnlinkFrame       10009eb4 f   LIBCMT:_trnsctrl_.obj
 0001:00008f04       __IsExceptionObjectToBeDestroyed 10009f04 f   LIBCMT:_trnsctrl_.obj
 0001:00008f2d       ___CxxFrameHandler         10009f2d f   LIBCMT:_trnsctrl_.obj
 0001:00008f63       ___CxxFrameHandler2        10009f63 f   LIBCMT:_trnsctrl_.obj
 0001:00008f99       ___CxxFrameHandler3        10009f99 f   LIBCMT:_trnsctrl_.obj
 0001:00008fcf       ___CxxLongjmpUnwind@4      10009fcf f   LIBCMT:_trnsctrl_.obj
 0001:00009030       __except_handler4          1000a030 f   LIBCMT:chandler4.obj
 0001:000091c4       ??0type_info@@AAE@ABV0@@Z  1000a1c4 f   LIBCMT:typinfo.obj
 0001:000091cf       ??1type_info@@UAE@XZ       1000a1cf f   LIBCMT:typinfo.obj
 0001:000091dd       ??4type_info@@AAEAAV0@ABV0@@Z 1000a1dd f   LIBCMT:typinfo.obj
 0001:000091e2       ??8type_info@@QBE_NABV0@@Z 1000a1e2 f   LIBCMT:typinfo.obj
 0001:00009200       ??9type_info@@QBE_NABV0@@Z 1000a200 f   LIBCMT:typinfo.obj
 0001:0000921f       ??_Etype_info@@UAEPAXI@Z   1000a21f f i LIBCMT:typinfo.obj
 0001:0000921f       ??_Gtype_info@@UAEPAXI@Z   1000a21f f i LIBCMT:typinfo.obj
 0001:0000923e       ?_name_internal_method@type_info@@QBEPBDPAU__type_info_node@@@Z 1000a23e f   LIBCMT:typinfo.obj
 0001:00009250       ?_type_info_dtor_internal_method@type_info@@QAEXXZ 1000a250 f   LIBCMT:typinfo.obj
 0001:00009258       ?before@type_info@@QBE_NABV1@@Z 1000a258 f   LIBCMT:typinfo.obj
 0001:00009278       ?name@type_info@@QBEPBDPAU__type_info_node@@@Z 1000a278 f   LIBCMT:typinfo.obj
 0001:0000928a       ?raw_name@type_info@@QBEPBDXZ 1000a28a f   LIBCMT:typinfo.obj
 0001:0000928e       __get_purecall_handler     1000a28e f   LIBCMT:purevirt.obj
 0001:0000929b       __purecall                 1000a29b f   LIBCMT:purevirt.obj
 0001:000092bd       __set_purecall_handler     1000a2bd f   LIBCMT:purevirt.obj
 0001:000092e2       ??0bad_alloc@std@@QAE@ABV01@@Z 1000a2e2 f i LIBCMT:new.obj
 0001:000092fd       ??0bad_alloc@std@@QAE@XZ   1000a2fd f i LIBCMT:new.obj
 0001:00009323       ??1bad_alloc@std@@UAE@XZ   1000a323 f i LIBCMT:new.obj
 0001:0000932e       ??2@YAPAXI@Z               1000a32e f   LIBCMT:new.obj
 0001:0000937f       ??_Gbad_alloc@std@@UAEPAXI@Z 1000a37f f i LIBCMT:new.obj
 0001:0000937f       ??_Ebad_alloc@std@@UAEPAXI@Z 1000a37f f i LIBCMT:new.obj
 0001:000093a4       ___onexitinit              1000a3a4 f   LIBCMT:onexit.obj
 0001:000093d3       __onexit                   1000a3d3 f   LIBCMT:onexit.obj
 0001:000094cf       _atexit                    1000a4cf f   LIBCMT:onexit.obj
 0001:000094e4       ?_invalid_parameter@@YAXPBG00II@Z 1000a4e4 f   LIBCMT:invarg.obj
 0001:000094e9       ?_invoke_watson@@YAXPBG00II@Z 1000a4e9 f   LIBCMT:invarg.obj
 0001:00009501       __call_reportfault         1000a501 f   LIBCMT:invarg.obj
 0001:00009626       __get_invalid_parameter_handler 1000a626 f   LIBCMT:invarg.obj
 0001:00009633       __initp_misc_invarg        1000a633 f   LIBCMT:invarg.obj
 0001:00009640       __invalid_parameter        1000a640 f   LIBCMT:invarg.obj
 0001:0000966b       __invalid_parameter_noinfo 1000a66b f   LIBCMT:invarg.obj
 0001:0000967b       __invalid_parameter_noinfo_noreturn 1000a67b f   LIBCMT:invarg.obj
 0001:00009696       __invoke_watson            1000a696 f   LIBCMT:invarg.obj
 0001:000096c1       __set_invalid_parameter_handler 1000a6c1 f   LIBCMT:invarg.obj
 0001:000096e6       __set_abort_behavior       1000a6e6 f   LIBCMT:abort.obj
 0001:00009705       _abort                     1000a705 f   LIBCMT:abort.obj
 0001:00009748       __wtoi                     1000a748 f   LIBCMT:wtox.obj
 0001:00009751       __wtoi64                   1000a751 f   LIBCMT:wtox.obj
 0001:00009765       __wtoi64_l                 1000a765 f   LIBCMT:wtox.obj
 0001:0000977c       __wtoi_l                   1000a77c f   LIBCMT:wtox.obj
 0001:00009785       __wtol                     1000a785 f   LIBCMT:wtox.obj
 0001:00009799       __wtol_l                   1000a799 f   LIBCMT:wtox.obj
 0001:000097b0       __wtoll                    1000a7b0 f   LIBCMT:wtox.obj
 0001:000097c4       __wtoll_l                  1000a7c4 f   LIBCMT:wtox.obj
 0001:000097db       ??0_LocaleUpdate@@QAE@PAUlocaleinfo_struct@@@Z 1000a7db f i LIBCMT:_wctype.obj
 0001:00009863       ??1_LocaleUpdate@@QAE@XZ   1000a863 f i LIBCMT:_wctype.obj
 0001:00009871       ?GetLocaleT@_LocaleUpdate@@QAEPAUlocaleinfo_struct@@XZ 1000a871 f i LIBCMT:_wctype.obj
 0001:00009874       ___iswcsym                 1000a874 f i LIBCMT:_wctype.obj
 0001:00009898       ___iswcsymf                1000a898 f i LIBCMT:_wctype.obj
 0001:000098bc       __isleadbyte_l             1000a8bc f i LIBCMT:_wctype.obj
 0001:000098f6       __iswalnum_l               1000a8f6 f i LIBCMT:_wctype.obj
 0001:0000990a       __iswalpha_l               1000a90a f i LIBCMT:_wctype.obj
 0001:0000991e       __iswblank_l               1000a91e f i LIBCMT:_wctype.obj
 0001:00009939       __iswcntrl_l               1000a939 f i LIBCMT:_wctype.obj
 0001:0000994a       __iswcsym_l                1000a94a f i LIBCMT:_wctype.obj
 0001:0000996e       __iswcsymf_l               1000a96e f i LIBCMT:_wctype.obj
 0001:00009992       __iswdigit_l               1000a992 f i LIBCMT:_wctype.obj
 0001:000099a3       __iswgraph_l               1000a9a3 f i LIBCMT:_wctype.obj
 0001:000099b7       __iswlower_l               1000a9b7 f i LIBCMT:_wctype.obj
 0001:000099c8       __iswprint_l               1000a9c8 f i LIBCMT:_wctype.obj
 0001:000099dc       __iswpunct_l               1000a9dc f i LIBCMT:_wctype.obj
 0001:000099ed       __iswspace_l               1000a9ed f i LIBCMT:_wctype.obj
 0001:000099fe       __iswupper_l               1000a9fe f i LIBCMT:_wctype.obj
 0001:00009a0f       __iswxdigit_l              1000aa0f f i LIBCMT:_wctype.obj
 0001:00009a23       _isleadbyte                1000aa23 f i LIBCMT:_wctype.obj
 0001:00009a34       _iswalnum                  1000aa34 f i LIBCMT:_wctype.obj
 0001:00009a48       _iswalpha                  1000aa48 f i LIBCMT:_wctype.obj
 0001:00009a5c       _iswascii                  1000aa5c f i LIBCMT:_wctype.obj
 0001:00009a6e       _iswblank                  1000aa6e f i LIBCMT:_wctype.obj
 0001:00009a89       _iswcntrl                  1000aa89 f i LIBCMT:_wctype.obj
 0001:00009a9a       _iswdigit                  1000aa9a f i LIBCMT:_wctype.obj
 0001:00009aab       _iswgraph                  1000aaab f i LIBCMT:_wctype.obj
 0001:00009abf       _iswlower                  1000aabf f i LIBCMT:_wctype.obj
 0001:00009ad0       _iswprint                  1000aad0 f i LIBCMT:_wctype.obj
 0001:00009ae4       _iswpunct                  1000aae4 f i LIBCMT:_wctype.obj
 0001:00009af5       _iswspace                  1000aaf5 f i LIBCMT:_wctype.obj
 0001:00009b06       _iswupper                  1000ab06 f i LIBCMT:_wctype.obj
 0001:00009b17       _iswxdigit                 1000ab17 f i LIBCMT:_wctype.obj
 0001:00009b30       _strlen                    1000ab30 f   LIBCMT:strlen.obj
 0001:00009bc0       _memmove                   1000abc0 f   LIBCMT:memmove.obj
 0001:0000a204       _wcscmp                    1000b204 f   LIBCMT:wcscmp.obj
 0001:0000a242       _wcslen                    1000b242 f   LIBCMT:wcslen.obj
 0001:0000a25b       _wcsrchr                   1000b25b f   LIBCMT:wcsrchr.obj
 0001:0000a301       __wremove                  1000b301 f   LIBCMT:wunlink.obj
 0001:0000a32f       __wunlink                  1000b32f f   LIBCMT:wunlink.obj
 0001:0000a338       __fwprintf_l               1000b338 f   LIBCMT:fwprintf.obj
 0001:0000a352       __fwprintf_p               1000b352 f   LIBCMT:fwprintf.obj
 0001:0000a36b       __fwprintf_p_l             1000b36b f   LIBCMT:fwprintf.obj
 0001:0000a385       __fwprintf_s_l             1000b385 f   LIBCMT:fwprintf.obj
 0001:0000a39f       _fwprintf                  1000b39f f   LIBCMT:fwprintf.obj
 0001:0000a433       _fwprintf_s                1000b433 f   LIBCMT:fwprintf.obj
 0001:0000a44c       __wprintf_l                1000b44c f   LIBCMT:wprintf.obj
 0001:0000a463       __wprintf_p                1000b463 f   LIBCMT:wprintf.obj
 0001:0000a479       __wprintf_p_l              1000b479 f   LIBCMT:wprintf.obj
 0001:0000a490       __wprintf_s_l              1000b490 f   LIBCMT:wprintf.obj
 0001:0000a4a7       _wprintf                   1000b4a7 f   LIBCMT:wprintf.obj
 0001:0000a556       _wprintf_s                 1000b556 f   LIBCMT:wprintf.obj
 0001:0000a56c       __wfopen                   1000b56c f   LIBCMT:wfopen.obj
 0001:0000a581       __wfopen_s                 1000b581 f   LIBCMT:wfopen.obj
 0001:0000a5c6       __wfsopen                  1000b5c6 f   LIBCMT:wfopen.obj
 0001:0000b0a9       __MallocaIsSizeInRange     1000c0a9 f i LIBCMT:wcsftime.obj
 0001:0000b0ba       __MarkAllocaS              1000c0ba f i LIBCMT:wcsftime.obj
 0001:0000b0ce       __W_Getdays                1000c0ce f   LIBCMT:wcsftime.obj
 0001:0000b0d7       __W_Getdays_l              1000c0d7 f   LIBCMT:wcsftime.obj
 0001:0000b1f0       __W_Getmonths              1000c1f0 f   LIBCMT:wcsftime.obj
 0001:0000b1f9       __W_Getmonths_l            1000c1f9 f   LIBCMT:wcsftime.obj
 0001:0000b312       __W_Gettnames              1000c312 f   LIBCMT:wcsftime.obj
 0001:0000b31b       __W_Gettnames_l            1000c31b f   LIBCMT:wcsftime.obj
 0001:0000b9ca       __Wcsftime                 1000c9ca f   LIBCMT:wcsftime.obj
 0001:0000b9e8       __Wcsftime_l               1000c9e8 f   LIBCMT:wcsftime.obj
 0001:0000bb2b       __freea                    1000cb2b f i LIBCMT:wcsftime.obj
 0001:0000bb49       __invoke_watson_if_error   1000cb49 f i LIBCMT:wcsftime.obj
 0001:0000bb69       __invoke_watson_if_oneof   1000cb69 f i LIBCMT:wcsftime.obj
 0001:0000bb94       __wcsftime_l               1000cb94 f   LIBCMT:wcsftime.obj
 0001:0000bbb2       _wcsftime                  1000cbb2 f   LIBCMT:wcsftime.obj
 0001:0000bbcf       __fclose_nolock            1000cbcf f   LIBCMT:fclose.obj
 0001:0000bc3b       _fclose                    1000cc3b f   LIBCMT:fclose.obj
 0001:0000bcb2       __beginthreadex            1000ccb2 f   LIBCMT:threadex.obj
 0001:0000bdab       __endthreadex              1000cdab f   LIBCMT:threadex.obj
 0001:0000befe       ___fpecode                 1000cefe f   LIBCMT:winsig.obj
 0001:0000bf07       ___get_sigabrt             1000cf07 f   LIBCMT:winsig.obj
 0001:0000bf14       ___pxcptinfoptrs           1000cf14 f   LIBCMT:winsig.obj
 0001:0000bf1d       __initp_misc_winsig        1000cf1d f   LIBCMT:winsig.obj
 0001:0000bfde       _raise                     1000cfde f   LIBCMT:winsig.obj
 0001:0000c1d3       _signal                    1000d1d3 f   LIBCMT:winsig.obj
 0001:0000c42a       __localtime64              1000d42a f   LIBCMT:loctim64.obj
 0001:0000c44f       __localtime64_s            1000d44f f   LIBCMT:loctim64.obj
 0001:0000c6c9       __time64                   1000d6c9 f   LIBCMT:time64.obj
 0001:0000c71a       __cabs                     1000d71a f   LIBCMT:hypot.obj
 0001:0000c739       __hypot                    1000d739 f   LIBCMT:hypot.obj
 0001:0000c9a4       ?__set_inconsistency@@YAP6AXXZP6AXXZ@Z 1000d9a4 f   LIBCMT:user.obj
 0001:0000c9c9       ?_set_se_translator@@YAP6AXIPAU_EXCEPTION_POINTERS@@@ZH@Z 1000d9c9 f   LIBCMT:user.obj
 0001:0000c9e0       ?_set_se_translator@@YAP6AXIPAU_EXCEPTION_POINTERS@@@ZP6AXI0@Z@Z 1000d9e0 f   LIBCMT:user.obj
 0001:0000ca02       ?set_terminate@@YAP6AXXZH@Z 1000da02 f   LIBCMT:user.obj
 0001:0000ca19       ?set_terminate@@YAP6AXXZP6AXXZ@Z 1000da19 f   LIBCMT:user.obj
 0001:0000ca47       ?set_unexpected@@YAP6AXXZH@Z 1000da47 f   LIBCMT:user.obj
 0001:0000ca5e       ?set_unexpected@@YAP6AXXZP6AXXZ@Z 1000da5e f   LIBCMT:user.obj
 0001:0000ca8c       __get_terminate            1000da8c f   LIBCMT:user.obj
 0001:0000ca95       __get_unexpected           1000da95 f   LIBCMT:user.obj
 0001:0000caa0       __alldiv                   1000daa0 f   LIBCMT:lldiv.obj
 0001:0000cb4a       __fpmath                   1000db4a f   LIBCMT:fpinit.obj
 0001:0000cb61       ___setfflag                1000db61 f   LIBCMT:fpinit.obj
 0001:0000cb74       __cfltcvt_init             1000db74 f   LIBCMT:fpinit.obj
 0001:0000cbd4       _wcsncpy_s                 1000dbd4 f   LIBCMT:wcsncpy_s.obj
 0001:0000cc92       ___raise_securityfailure   1000dc92 f   LIBCMT:gs_report.obj
 0001:0000cccf       ___report_gsfailure        1000dccf f   LIBCMT:gs_report.obj
 0001:0000cdca       ___report_rangecheckfailure 1000ddca f   LIBCMT:gs_report.obj
 0001:0000cdd6       ___report_securityfailure  1000ddd6 f   LIBCMT:gs_report.obj
 0001:0000cea6       ___report_securityfailureEx 1000dea6 f   LIBCMT:gs_report.obj
 0001:0000cfbc       _free                      1000dfbc f   LIBCMT:free.obj
 0001:0000cff4       __heap_alloc               1000dff4 f i LIBCMT:malloc.obj
 0001:0000d031       _malloc                    1000e031 f   LIBCMT:malloc.obj
 0001:0000d0c3       __recalloc                 1000e0c3 f   LIBCMT:recalloc.obj
 0001:0000d12c       ??_U@YAPAXIABUnothrow_t@std@@@Z 1000e12c f   LIBCMT:newaopnt.obj
 0001:0000d135       _memcpy_s                  1000e135 f   LIBCMT:memcpy_s.obj
 0001:0000d1c0       __chkstk                   1000e1c0 f   LIBCMT:chkstk.obj
 0001:0000d1c0       __alloca_probe             1000e1c0 f   LIBCMT:chkstk.obj
 0001:0000d1eb       __CRT_INIT@12              1000e1eb f   LIBCMT:dllcrt0.obj
 0001:0000d35d       __DllMainCRTStartup@12     1000e35d f   LIBCMT:dllcrt0.obj
 0001:0000d48e       ___DllXcptFilter           1000e48e f   LIBCMT:dllcrt0.obj
 0001:0000d4b3       _memmove_s                 1000e4b3 f   LIBCMT:memmove_s.obj
 0001:0000d4ff       ?_inconsistency@@YAXXZ     1000e4ff f   LIBCMT:hooks.obj
 0001:0000d537       ?terminate@@YAXXZ          1000e537 f   LIBCMT:hooks.obj
 0001:0000d56b       ?unexpected@@YAXXZ         1000e56b f   LIBCMT:hooks.obj
 0001:0000d57e       __initp_eh_hooks           1000e57e f   LIBCMT:hooks.obj
 0001:0000d58f       __RTC_Initialize           1000e58f f   LIBCMT:initsect.obj
 0001:0000d5af       __RTC_Terminate            1000e5af f   LIBCMT:initsect.obj
 0001:0000d5cf       __lock                     1000e5cf f   LIBCMT:mlock.obj
 0001:0000d603       __lockerr_exit             1000e603 f   LIBCMT:mlock.obj
 0001:0000d623       __mtdeletelocks            1000e623 f   LIBCMT:mlock.obj
 0001:0000d677       __mtinitlocknum            1000e677 f   LIBCMT:mlock.obj
 0001:0000d720       __mtinitlocks              1000e720 f   LIBCMT:mlock.obj
 0001:0000d759       __unlock                   1000e759 f   LIBCMT:mlock.obj
 0001:0000d79b       ___crtCloseThreadpoolTimer 1000e79b f   LIBCMT:winapisupp.obj
 0001:0000d7b2       ___crtCloseThreadpoolWait  1000e7b2 f   LIBCMT:winapisupp.obj
 0001:0000d7c9       ___crtCreateEventExW       1000e7c9 f   LIBCMT:winapisupp.obj
 0001:0000d804       ___crtCreateSemaphoreExW   1000e804 f   LIBCMT:winapisupp.obj
 0001:0000d83e       ___crtCreateSymbolicLinkW  1000e83e f   LIBCMT:winapisupp.obj
 0001:0000d867       ___crtCreateThreadpoolTimer 1000e867 f   LIBCMT:winapisupp.obj
 0001:0000d888       ___crtCreateThreadpoolWait 1000e888 f   LIBCMT:winapisupp.obj
 0001:0000d8a9       ___crtFlsAlloc             1000e8a9 f   LIBCMT:winapisupp.obj
 0001:0000d8c7       ___crtFlsFree              1000e8c7 f   LIBCMT:winapisupp.obj
 0001:0000d8e6       ___crtFlsGetValue          1000e8e6 f   LIBCMT:winapisupp.obj
 0001:0000d905       ___crtFlsSetValue          1000e905 f   LIBCMT:winapisupp.obj
 0001:0000d927       ___crtFlushProcessWriteBuffers 1000e927 f   LIBCMT:winapisupp.obj
 0001:0000d937       ___crtFreeLibraryWhenCallbackReturns 1000e937 f   LIBCMT:winapisupp.obj
 0001:0000d951       ___crtGetCurrentProcessorNumber 1000e951 f   LIBCMT:winapisupp.obj
 0001:0000d963       ___crtGetFileInformationByHandleEx 1000e963 f   LIBCMT:winapisupp.obj
 0001:0000d98f       ___crtGetLogicalProcessorInformation 1000e98f f   LIBCMT:winapisupp.obj
 0001:0000d9b5       ___crtGetShowWindowMode    1000e9b5 f   LIBCMT:winapisupp.obj
 0001:0000d9d8       ___crtGetTickCount64       1000e9d8 f   LIBCMT:winapisupp.obj
 0001:0000d9f0       ___crtInitializeCriticalSectionEx 1000e9f0 f   LIBCMT:winapisupp.obj
 0001:0000da1e       ___crtIsPackagedApp        1000ea1e f   LIBCMT:winapisupp.obj
 0001:0000da5e       ___crtLoadWinApiPointers   1000ea5e f   LIBCMT:winapisupp.obj
 0001:0000dce9       ___crtSetFileInformationByHandle 1000ece9 f   LIBCMT:winapisupp.obj
 0001:0000dd15       ___crtSetThreadStackGuarantee 1000ed15 f   LIBCMT:winapisupp.obj
 0001:0000dd30       ___crtSetThreadpoolTimer   1000ed30 f   LIBCMT:winapisupp.obj
 0001:0000dd50       ___crtSetThreadpoolWait    1000ed50 f   LIBCMT:winapisupp.obj
 0001:0000dd6d       ___crtSetUnhandledExceptionFilter 1000ed6d f   LIBCMT:winapisupp.obj
 0001:0000dd7b       ___crtSleep                1000ed7b f   LIBCMT:winapisupp.obj
 0001:0000dd89       ___crtTerminateProcess     1000ed89 f   LIBCMT:winapisupp.obj
 0001:0000dd9e       ___crtUnhandledException   1000ed9e f   LIBCMT:winapisupp.obj
 0001:0000ddb4       ___crtWaitForThreadpoolTimerCallbacks 1000edb4 f   LIBCMT:winapisupp.obj
 0001:0000ddce       __FF_MSGBANNER             1000edce f   LIBCMT:crt0msg.obj
 0001:0000de07       __GET_RTERRMSG             1000ee07 f   LIBCMT:crt0msg.obj
 0001:0000de2b       __NMSG_WRITE               1000ee2b f   LIBCMT:crt0msg.obj
 0001:0000dfe8       ___doserrno                1000efe8 f   LIBCMT:dosmap.obj
 0001:0000dffb       __dosmaperr                1000effb f   LIBCMT:dosmap.obj
 0001:0000e01c       __errno                    1000f01c f   LIBCMT:dosmap.obj
 0001:0000e02f       __get_doserrno             1000f02f f   LIBCMT:dosmap.obj
 0001:0000e052       __get_errno                1000f052 f   LIBCMT:dosmap.obj
 0001:0000e075       __get_errno_from_oserr     1000f075 f   LIBCMT:dosmap.obj
 0001:0000e0b6       __set_doserrno             1000f0b6 f   LIBCMT:dosmap.obj
 0001:0000e0d5       __set_errno                1000f0d5 f   LIBCMT:dosmap.obj
 0001:0000e100       __FindPESection            1000f100 f   LIBCMT:pesect.obj
 0001:0000e150       __IsNonwritableInCurrentImage 1000f150 f   LIBCMT:pesect.obj
 0001:0000e210       __ValidateImageBase        1000f210 f   LIBCMT:pesect.obj
 0001:0000e241       __calloc_crt               1000f241 f   LIBCMT:crtheap.obj
 0001:0000e289       __malloc_crt               1000f289 f   LIBCMT:crtheap.obj
 0001:0000e2d0       __realloc_crt              1000f2d0 f   LIBCMT:crtheap.obj
 0001:0000e31a       __recalloc_crt             1000f31a f   LIBCMT:crtheap.obj
 0001:0000e368       __set_malloc_crt_max_wait  1000f368 f   LIBCMT:crtheap.obj
 0001:0000e37b       _wait_a_bit                1000f37b f i LIBCMT:crtheap.obj
 0001:0000e39f       __initp_misc_cfltcvt_tab   1000f39f f   LIBCMT:cmiscdat.obj
 0001:0000e3be       ?_query_new_handler@@YAP6AHI@ZXZ 1000f3be f   LIBCMT:handler.obj
 0001:0000e3cb       ?_set_new_handler@@YAP6AHI@ZH@Z 1000f3cb f   LIBCMT:handler.obj
 0001:0000e3d4       ?_set_new_handler@@YAP6AHI@ZP6AHI@Z@Z 1000f3d4 f   LIBCMT:handler.obj
 0001:0000e409       __callnewh                 1000f409 f   LIBCMT:handler.obj
 0001:0000e42f       __initp_heap_handler       1000f42f f   LIBCMT:handler.obj
 0001:0000e43c       ___getlocaleinfo           1000f43c f   LIBCMT:inithelp.obj
 0001:0000e615       __initp_misc_purevirt      1000f615 f   LIBCMT:inithelp.obj
 0001:0000e622       __initp_misc_rand_s        1000f622 f   LIBCMT:rand_s.obj
 0001:0000e62f       _rand_s                    1000f62f f   LIBCMT:rand_s.obj
 0001:0000e735       ___initmbctable            1000f735 f   LIBCMT:mbctype.obj
 0001:0000e9ec       ___updatetmbcinfo          1000f9ec f   LIBCMT:mbctype.obj
 0001:0000ea92       __getmbcp                  1000fa92 f   LIBCMT:mbctype.obj
 0001:0000eac3       __setmbcp                  1000fac3 f   LIBCMT:mbctype.obj
 0001:0000ec6b       __setmbcp_nolock           1000fc6b f   LIBCMT:mbctype.obj
 0001:0000ee56       __ftbuf                    1000fe56 f   LIBCMT:_sftbuf.obj
 0001:0000ee87       __stbuf                    1000fe87 f   LIBCMT:_sftbuf.obj
 0001:0000ef2d       ___isa_available_init      1000ff2d f   LIBCMT:cpu_disp.obj
 0001:0000f0a6       __VEC_memset               100100a6 f   LIBCMT:p4_memset.obj
 0001:0000f16e       __flsbuf                   1001016e f   LIBCMT:_flsbuf.obj
 0001:0000f2bd       ___vswprintf_l             100102bd f   LIBCMT:vswprint.obj
 0001:0000f2c6       __vscwprintf               100102c6 f   LIBCMT:vswprint.obj
 0001:0000f2e0       __vscwprintf_helper        100102e0 f   LIBCMT:vswprint.obj
 0001:0000f33c       __vscwprintf_l             1001033c f   LIBCMT:vswprint.obj
 0001:0000f357       __vscwprintf_p             10010357 f   LIBCMT:vswprint.obj
 0001:0000f371       __vscwprintf_p_l           10010371 f   LIBCMT:vswprint.obj
 0001:0000f38c       __vswprintf                1001038c f   LIBCMT:vswprint.obj
 0001:0000f3a4       __vswprintf_l              100103a4 f   LIBCMT:vswprint.obj
 0001:0000f448       __vsnwprintf_s             10010448 f   LIBCMT:vswprnc.obj
 0001:0000f466       __vsnwprintf_s_l           10010466 f   LIBCMT:vswprnc.obj
 0001:0000f56a       __vswprintf_c              1001056a f   LIBCMT:vswprnc.obj
 0001:0000f591       __vswprintf_c_l            10010591 f   LIBCMT:vswprnc.obj
 0001:0000f5b9       __vswprintf_helper         100105b9 f   LIBCMT:vswprnc.obj
 0001:0000f6b4       __vswprintf_p              100106b4 f   LIBCMT:vswprnc.obj
 0001:0000f6db       __vswprintf_p_l            100106db f   LIBCMT:vswprnc.obj
 0001:0000f703       __vswprintf_s_l            10010703 f   LIBCMT:vswprnc.obj
 0001:0000f77a       _vswprintf_s               1001077a f   LIBCMT:vswprnc.obj
 0001:0000f795       __woutput_l                10010795 f   LIBCMT:woutput.obj
 0001:00010399       _get_int64_arg             10011399 f i LIBCMT:woutput.obj
 0001:000103ac       _get_int_arg               100113ac f i LIBCMT:woutput.obj
 0001:00010497       ___get_flsindex            10011497 f   LIBCMT:tidtable.obj
 0001:0001049d       ___threadhandle            1001149d f   LIBCMT:tidtable.obj
 0001:000104a3       ___threadid                100114a3 f   LIBCMT:tidtable.obj
 0001:000104a9       __freefls@4                100114a9 f   LIBCMT:tidtable.obj
 0001:000105de       __freeptd                  100115de f   LIBCMT:tidtable.obj
 0001:00010614       __getptd                   10011614 f   LIBCMT:tidtable.obj
 0001:0001062c       __getptd_noexit            1001162c f   LIBCMT:tidtable.obj
 0001:0001069b       __initptd                  1001169b f   LIBCMT:tidtable.obj
 0001:0001074e       __mtinit                   1001174e f   LIBCMT:tidtable.obj
 0001:000107c4       __mtterm                   100117c4 f   LIBCMT:tidtable.obj
 0001:000107f0       __CallSettingFrame@12      100117f0 f   LIBCMT:lowhelpr.obj
 0001:00010817       __NLG_Return               10011817     LIBCMT:lowhelpr.obj
 0001:0001083c       ___DestructExceptionObject 1001183c f   LIBCMT:frame.obj
 0001:000108c7       ??0bad_exception@std@@QAE@ABV01@@Z 100118c7 f i LIBCMT:frame.obj
 0001:000108e2       ??0bad_exception@std@@QAE@PBD@Z 100118e2 f i LIBCMT:frame.obj
 0001:000108fe       ??1bad_exception@std@@UAE@XZ 100118fe f i LIBCMT:frame.obj
 0001:00010909       ??_Gbad_exception@std@@UAEPAXI@Z 10011909 f i LIBCMT:frame.obj
 0001:00010909       ??_Ebad_exception@std@@UAEPAXI@Z 10011909 f i LIBCMT:frame.obj
 0001:00011176       ?__uncaught_exception@@YA_NXZ 10012176 f   LIBCMT:frame.obj
 0001:00011187       ?_is_exception_typeof@@YAHABVtype_info@@PAU_EXCEPTION_POINTERS@@@Z 10012187 f   LIBCMT:frame.obj
 0001:0001120e       __SetWinRTOutOfMemoryExceptionCallback 1001220e f   LIBCMT:frame.obj
 0001:0001121b       ___AdjustPointer           1001221b f   LIBCMT:frame.obj
 0001:00011240       ___BuildCatchObject        10012240 f   LIBCMT:frame.obj
 0001:000112ce       ___BuildCatchObjectHelper  100122ce f   LIBCMT:frame.obj
 0001:00011490       ___CxxDetectRethrow        10012490 f   LIBCMT:frame.obj
 0001:000114df       ___CxxExceptionFilter      100124df f   LIBCMT:frame.obj
 0001:00011639       ___CxxQueryExceptionSize   10012639 f   LIBCMT:frame.obj
 0001:0001163d       ___CxxRegisterExceptionObject 1001263d f   LIBCMT:frame.obj
 0001:000116f4       ___CxxUnregisterExceptionObject 100126f4 f   LIBCMT:frame.obj
 0001:00011831       ___FrameUnwindFilter       10012831 f   LIBCMT:frame.obj
 0001:0001187f       ___FrameUnwindToState      1001287f f   LIBCMT:frame.obj
 0001:00011958       ___GetPlatformExceptionInfo 10012958 f   LIBCMT:frame.obj
 0001:000119ad       ___InternalCxxFrameHandler 100129ad f   LIBCMT:frame.obj
 0001:00011a8e       ___TypeMatch               10012a8e f   LIBCMT:frame.obj
 0001:00011b00       __local_unwind4            10012b00 f   LIBCMT:exsup4.obj
 0001:00011bd6       __seh_longjmp_unwind4@4    10012bd6 f   LIBCMT:exsup4.obj
 0001:00011bf2       @_EH4_CallFilterFunc@8     10012bf2 f   LIBCMT:exsup4.obj
 0001:00011c09       @_EH4_TransferToHandler@8  10012c09 f   LIBCMT:exsup4.obj
 0001:00011c22       @_EH4_GlobalUnwind2@8      10012c22 f   LIBCMT:exsup4.obj
 0001:00011c3b       @_EH4_LocalUnwind@16       10012c3b f   LIBCMT:exsup4.obj
 0001:00011c60       _strcmp                    10012c60 f   LIBCMT:strcmp.obj
 0001:00011cec       ?_Name_base@type_info@@CAPBDPBV1@PAU__type_info_node@@@Z 10012cec f   LIBCMT:typname.obj
 0001:00011ddd       ?_Name_base_internal@type_info@@CAPBDPBV1@PAU__type_info_node@@@Z 10012ddd f   LIBCMT:typname.obj
 0001:00011ee7       ?_Type_info_dtor@type_info@@CAXPAV1@@Z 10012ee7 f   LIBCMT:typname.obj
 0001:00011f58       ?_Type_info_dtor_internal@type_info@@CAXPAV1@@Z 10012f58 f   LIBCMT:typname.obj
 0001:00011fc9       ___clean_type_info_names_internal 10012fc9 f   LIBCMT:typname.obj
 0001:0001201c       ___unDNameHelper           1001301c f   LIBCMT:typname.obj
 0001:0001204a       ??0__non_rtti_object@std@@QAE@ABV01@@Z 1001304a f   LIBCMT:stdexcpt.obj
 0001:00012065       ??0__non_rtti_object@std@@QAE@PBD@Z 10013065 f   LIBCMT:stdexcpt.obj
 0001:00012080       ??0bad_cast@std@@QAE@ABV01@@Z 10013080 f   LIBCMT:stdexcpt.obj
 0001:0001209b       ??0bad_cast@std@@QAE@PBD@Z 1001309b f   LIBCMT:stdexcpt.obj
 0001:000120b7       ??0bad_typeid@std@@QAE@ABV01@@Z 100130b7 f   LIBCMT:stdexcpt.obj
 0001:000120d2       ??0bad_typeid@std@@QAE@PBD@Z 100130d2 f   LIBCMT:stdexcpt.obj
 0001:000120ee       ??0exception@std@@QAE@ABQBD@Z 100130ee f   LIBCMT:stdexcpt.obj
 0001:00012113       ??0exception@std@@QAE@ABQBDH@Z 10013113 f   LIBCMT:stdexcpt.obj
 0001:0001212e       ??0exception@std@@QAE@ABV01@@Z 1001312e f   LIBCMT:stdexcpt.obj
 0001:00012151       ??0exception@std@@QAE@XZ   10013151 f   LIBCMT:stdexcpt.obj
 0001:00012162       ??1__non_rtti_object@std@@UAE@XZ 10013162 f   LIBCMT:stdexcpt.obj
 0001:0001216d       ??1bad_cast@std@@UAE@XZ    1001316d f   LIBCMT:stdexcpt.obj
 0001:00012178       ??1bad_typeid@std@@UAE@XZ  10013178 f   LIBCMT:stdexcpt.obj
 0001:00012183       ??1exception@std@@UAE@XZ   10013183 f   LIBCMT:stdexcpt.obj
 0001:0001218e       ??4exception@std@@QAEAAV01@ABV01@@Z 1001318e f   LIBCMT:stdexcpt.obj
 0001:000121c1       ??_G__non_rtti_object@std@@UAEPAXI@Z 100131c1 f i LIBCMT:stdexcpt.obj
 0001:000121c1       ??_E__non_rtti_object@std@@UAEPAXI@Z 100131c1 f i LIBCMT:stdexcpt.obj
 0001:000121e6       ??_Ebad_cast@std@@UAEPAXI@Z 100131e6 f i LIBCMT:stdexcpt.obj
 0001:000121e6       ??_Gbad_cast@std@@UAEPAXI@Z 100131e6 f i LIBCMT:stdexcpt.obj
 0001:0001220b       ??_Ebad_typeid@std@@UAEPAXI@Z 1001320b f i LIBCMT:stdexcpt.obj
 0001:0001220b       ??_Gbad_typeid@std@@UAEPAXI@Z 1001320b f i LIBCMT:stdexcpt.obj
 0001:00012230       ??_Gexception@std@@UAEPAXI@Z 10013230 f i LIBCMT:stdexcpt.obj
 0001:00012230       ??_Eexception@std@@UAEPAXI@Z 10013230 f i LIBCMT:stdexcpt.obj
 0001:00012255       ?_Copy_str@exception@std@@AAEXPBD@Z 10013255 f   LIBCMT:stdexcpt.obj
 0001:00012293       ?_Tidy@exception@std@@AAEXXZ 10013293 f   LIBCMT:stdexcpt.obj
 0001:000122af       ?what@exception@std@@UBEPBDXZ 100132af f   LIBCMT:stdexcpt.obj
 0001:000122bc       __msize                    100132bc f   LIBCMT:msize.obj
 0001:000122ed       __crt_debugger_hook        100132ed f   LIBCMT:dbghook.obj
 0001:000124d6       __wcstol_l                 100134d6 f   LIBCMT:wcstol.obj
 0001:000124ee       __wcstoul_l                100134ee f   LIBCMT:wcstol.obj
 0001:00012506       _wcstol                    10013506 f   LIBCMT:wcstol.obj
 0001:0001251e       _wcstoul                   1001351e f   LIBCMT:wcstol.obj
 0001:00012806       __wcstof_l                 10013806 f   LIBCMT:wcstoq.obj
 0001:000128b9       __wcstoi64                 100138b9 f   LIBCMT:wcstoq.obj
 0001:000128e3       __wcstoi64_l               100138e3 f   LIBCMT:wcstoq.obj
 0001:000128fe       __wcstoimax_l              100138fe f   LIBCMT:wcstoq.obj
 0001:00012907       __wcstold_l                10013907 f   LIBCMT:wcstoq.obj
 0001:00012910       __wcstoll_l                10013910 f   LIBCMT:wcstoq.obj
 0001:00012919       __wcstoui64                10013919 f   LIBCMT:wcstoq.obj
 0001:00012943       __wcstoui64_l              10013943 f   LIBCMT:wcstoq.obj
 0001:0001295e       __wcstoull_l               1001395e f   LIBCMT:wcstoq.obj
 0001:00012967       __wcstoumax_l              10013967 f   LIBCMT:wcstoq.obj
 0001:00012970       _wcstof                    10013970 f   LIBCMT:wcstoq.obj
 0001:00012985       _wcstoimax                 10013985 f   LIBCMT:wcstoq.obj
 0001:0001298e       _wcstold                   1001398e f   LIBCMT:wcstoq.obj
 0001:00012997       _wcstoll                   10013997 f   LIBCMT:wcstoq.obj
 0001:000129a0       _wcstoull                  100139a0 f   LIBCMT:wcstoq.obj
 0001:000129a9       _wcstoumax                 100139a9 f   LIBCMT:wcstoq.obj
 0001:000129b2       ___addlocaleref            100139b2 f   LIBCMT:localref.obj
 0001:00012a47       ___freetlocinfo            10013a47 f   LIBCMT:localref.obj
 0001:00012ba1       ___removelocaleref         10013ba1 f   LIBCMT:localref.obj
 0001:00012c41       ___updatetlocinfo          10013c41 f   LIBCMT:localref.obj
 0001:00012cc1       __updatetlocinfoEx_nolock  10013cc1 f   LIBCMT:localref.obj
 0001:00012d0c       __iswctype_l               10013d0c f   LIBCMT:iswctype.obj
 0001:00012d1e       _is_wctype                 10013d1e f   LIBCMT:iswctype.obj
 0001:00012d27       _iswctype                  10013d27 f   LIBCMT:iswctype.obj
 0001:00012d7d       __vfwprintf_l              10013d7d f   LIBCMT:vfwprint.obj
 0001:00012d9b       __vfwprintf_p              10013d9b f   LIBCMT:vfwprint.obj
 0001:00012db8       __vfwprintf_p_l            10013db8 f   LIBCMT:vfwprint.obj
 0001:00012dd6       __vfwprintf_s_l            10013dd6 f   LIBCMT:vfwprint.obj
 0001:00012df4       _vfwprintf                 10013df4 f   LIBCMT:vfwprint.obj
 0001:00012e11       _vfwprintf_helper          10013e11 f   LIBCMT:vfwprint.obj
 0001:00012ea4       _vfwprintf_s               10013ea4 f   LIBCMT:vfwprint.obj
 0001:00012ec1       ___initstdio               10013ec1 f   LIBCMT:_file.obj
 0001:00012f34       ___endstdio                10013f34 f   LIBCMT:_file.obj
 0001:00012f5b       ___iob_func                10013f5b f   LIBCMT:_file.obj
 0001:00012f61       __lock_file                10013f61 f   LIBCMT:_file.obj
 0001:00012fa0       __lock_file2               10013fa0 f   LIBCMT:_file.obj
 0001:00012fd0       __unlock_file              10013fd0 f   LIBCMT:_file.obj
 0001:0001300a       __unlock_file2             1001400a f   LIBCMT:_file.obj
 0001:00013037       __vwprintf_l               10014037 f   LIBCMT:vwprintf.obj
 0001:00013052       __vwprintf_p               10014052 f   LIBCMT:vwprintf.obj
 0001:0001306c       __vwprintf_p_l             1001406c f   LIBCMT:vwprintf.obj
 0001:00013087       __vwprintf_s_l             10014087 f   LIBCMT:vwprintf.obj
 0001:000130a2       _vwprintf                  100140a2 f   LIBCMT:vwprintf.obj
 0001:000130bc       _vwprintf_helper           100140bc f   LIBCMT:vwprintf.obj
 0001:00013149       _vwprintf_s                10014149 f   LIBCMT:vwprintf.obj
 0001:00013163       __getstream                10014163 f   LIBCMT:stream.obj
 0001:00013282       __wopenfile                10014282 f   LIBCMT:_wopen.obj
 0001:00013520       _strcpy_s                  10014520 f   LIBCMT:strcpy_s.obj
 0001:00013575       __wcsicmp                  10014575 f   LIBCMT:wcsicmp.obj
 0001:00013608       __wcsicmp_l                10014608 f   LIBCMT:wcsicmp.obj
 0001:000136e3       ___tzset                   100146e3 f   LIBCMT:tzset.obj
 0001:00013733       __isindst                  10014733 f   LIBCMT:tzset.obj
 0001:00013961       __set_daylight             10014961 f i LIBCMT:tzset.obj
 0001:00013970       __set_dstbias              10014970 f i LIBCMT:tzset.obj
 0001:0001397f       __set_timezone             1001497f f i LIBCMT:tzset.obj
 0001:0001398e       __tzset                    1001498e f   LIBCMT:tzset.obj
 0001:00013edc       __mbstowcs_l               10014edc f   LIBCMT:mbstowcs.obj
 0001:00013ee5       __mbstowcs_l_helper        10014ee5 f   LIBCMT:mbstowcs.obj
 0001:00014046       __mbstowcs_s_l             10015046 f   LIBCMT:mbstowcs.obj
 0001:00014124       _mbstowcs                  10015124 f   LIBCMT:mbstowcs.obj
 0001:0001414c       _mbstowcs_s                1001514c f   LIBCMT:mbstowcs.obj
 0001:0001416a       ___daylight                1001516a f   LIBCMT:timeset.obj
 0001:00014170       ___dstbias                 10015170 f   LIBCMT:timeset.obj
 0001:00014176       ___timezone                10015176 f   LIBCMT:timeset.obj
 0001:0001417c       ___tzname                  1001517c f   LIBCMT:timeset.obj
 0001:00014182       __get_daylight             10015182 f   LIBCMT:timeset.obj
 0001:000141ac       __get_dstbias              100151ac f   LIBCMT:timeset.obj
 0001:000141d6       __get_timezone             100151d6 f   LIBCMT:timeset.obj
 0001:00014200       __get_tzname               10015200 f   LIBCMT:timeset.obj
 0001:00014293       _GetTableIndexFromLcid     10015293 f   LIBCMT:winapinls.obj
 0001:000142c8       _GetTableIndexFromLocaleName 100152c8 f   LIBCMT:winapinls.obj
 0001:00014316       ___crtCompareStringEx      10015316 f   LIBCMT:winapinls.obj
 0001:00014362       ___crtDownlevelLCIDToLocaleName 10015362 f   LIBCMT:winapinls.obj
 0001:000143de       ___crtDownlevelLocaleNameToLCID 100153de f   LIBCMT:winapinls.obj
 0001:0001441c       ___crtEnumSystemLocalesEx  1001541c f   LIBCMT:winapinls.obj
 0001:00014459       ___crtGetDateFormatEx      10015459 f   LIBCMT:winapinls.obj
 0001:000144a2       ___crtGetLocaleInfoEx      100154a2 f   LIBCMT:winapinls.obj
 0001:000144d1       ___crtGetTimeFormatEx      100154d1 f   LIBCMT:winapinls.obj
 0001:00014506       ___crtGetUserDefaultLocaleName 10015506 f   LIBCMT:winapinls.obj
 0001:00014531       ___crtIsValidLocaleName    10015531 f   LIBCMT:winapinls.obj
 0001:0001455c       ___crtLCMapStringEx        1001555c f   LIBCMT:winapinls.obj
 0001:000145a8       ___wcsnicmp_ascii          100155a8 f   LIBCMT:winapinls.obj
 0001:00014620       __alloca_probe_16          10015620 f   LIBCMT:alloca16.obj
 0001:00014636       __alloca_probe_8           10015636     LIBCMT:alloca16.obj
 0001:0001464c       __fileno                   1001564c f   LIBCMT:fileno.obj
 0001:00014670       __close                    10015670 f   LIBCMT:close.obj
 0001:0001474b       __close_nolock             1001574b f   LIBCMT:close.obj
 0001:000147e5       __freebuf                  100157e5 f   LIBCMT:_freebuf.obj
 0001:00014815       __fflush_nolock            10015815 f   LIBCMT:fflush.obj
 0001:0001485b       __flush                    1001585b f   LIBCMT:fflush.obj
 0001:000148bf       __flushall                 100158bf f   LIBCMT:fflush.obj
 0001:000148c8       _fflush                    100158c8 f   LIBCMT:fflush.obj
 0001:00014a05       __XcptFilter               10015a05 f   LIBCMT:winxfltr.obj
 0001:00014b60       ___CppXcptFilter           10015b60 f   LIBCMT:winxfltr.obj
 0001:00014bb2       __gmtime64                 10015bb2 f   LIBCMT:gmtime64.obj
 0001:00014bd7       __gmtime64_s               10015bd7 f   LIBCMT:gmtime64.obj
 0001:00014e02       ___getgmtimebuf            10015e02 f   LIBCMT:gmtime.obj
 0001:00014e37       __gmtime32                 10015e37 f   LIBCMT:gmtime.obj
 0001:00014e5c       __gmtime32_s               10015e5c f   LIBCMT:gmtime.obj
 0001:00014f90       __allrem                   10015f90 f   LIBCMT:llrem.obj
 0001:00015050       __aulldiv                  10016050 f   LIBCMT:ulldiv.obj
 0001:000150c0       __CIsqrt                   100160c0 f   LIBCMT:sqrt.obj
 0001:000150d4       _sqrt                      100160d4     LIBCMT:sqrt.obj
 0001:0001517a       __add_exp                  1001617a f   LIBCMT:util.obj
 0001:000151a9       __decomp                   100161a9 f   LIBCMT:util.obj
 0001:0001527b       __get_exp                  1001627b f   LIBCMT:util.obj
 0001:00015294       __set_bexp                 10016294 f   LIBCMT:util.obj
 0001:000152bd       __set_exp                  100162bd f   LIBCMT:util.obj
 0001:000152ec       __sptype                   100162ec f   LIBCMT:util.obj
 0001:00015347       __errcode                  10016347 f   LIBCMT:fpexcept.obj
 0001:00015379       __except1                  10016379 f   LIBCMT:fpexcept.obj
 0001:00015441       __except2                  10016441 f   LIBCMT:fpexcept.obj
 0001:00015541       __handle_exc               10016541 f   LIBCMT:fpexcept.obj
 0001:0001571f       __handle_qnan1             1001671f f   LIBCMT:fpexcept.obj
 0001:0001576f       __handle_qnan2             1001676f f   LIBCMT:fpexcept.obj
 0001:000157cf       __raise_exc                100167cf f   LIBCMT:fpexcept.obj
 0001:000157f0       __raise_exc_ex             100167f0 f   LIBCMT:fpexcept.obj
 0001:00015ad5       __raise_excf               10016ad5 f   LIBCMT:fpexcept.obj
 0001:00015af6       __set_errno_from_matherr   10016af6 f   LIBCMT:fpexcept.obj
 0001:00015b23       __umatherr                 10016b23 f   LIBCMT:fpexcept.obj
 0001:00015bc3       ___clrfp_sse2              10016bc3 f   LIBCMT:fpctrl.obj
 0001:00015be4       ___ctrlfp_sse2             10016be4 f   LIBCMT:fpctrl.obj
 0001:00015c1d       ___fclrf_sse2              10016c1d f   LIBCMT:fpctrl.obj
 0001:00015c3a       ___get_fpsr_sse2           10016c3a f   LIBCMT:fpctrl.obj
 0001:00015c56       ___set_fpsr_sse2           10016c56 f   LIBCMT:fpctrl.obj
 0001:00015ccc       ___set_statfp_sse2         10016ccc f   LIBCMT:fpctrl.obj
 0001:00015ce5       ___statfp_sse2             10016ce5 f   LIBCMT:fpctrl.obj
 0001:00015cfa       __clrfp                    10016cfa f   LIBCMT:fpctrl.obj
 0001:00015d0b       __ctrlfp                   10016d0b f   LIBCMT:fpctrl.obj
 0001:00015d36       __set_statfp               10016d36 f   LIBCMT:fpctrl.obj
 0001:00015d8e       __statfp                   10016d8e f   LIBCMT:fpctrl.obj
 0001:00015d9e       ?strrchr@@YAPADPADH@Z      10016d9e f i LIBCMT:cvt.obj
 0001:00015da7       __cfltcvt                  10016da7 f   LIBCMT:cvt.obj
 0001:00015dc8       __cfltcvt_l                10016dc8 f   LIBCMT:cvt.obj
 0001:00015e4e       __cftoa                    10016e4e f   LIBCMT:cvt.obj
 0001:00015e6c       __cftoa_l                  10016e6c f   LIBCMT:cvt.obj
 0001:000161c8       __cftoe                    100171c8 f   LIBCMT:cvt.obj
 0001:00016337       __cftoe_l                  10017337 f   LIBCMT:cvt.obj
 0001:00016405       __cftof                    10017405 f   LIBCMT:cvt.obj
 0001:0001650c       __cftof_l                  1001750c f   LIBCMT:cvt.obj
 0001:000165cd       __cftog                    100175cd f   LIBCMT:cvt.obj
 0001:000165eb       __cftog_l                  100175eb f   LIBCMT:cvt.obj
 0001:000166ea       __cropzeros                100176ea f   LIBCMT:cvt.obj
 0001:000166fb       __cropzeros_l              100176fb f   LIBCMT:cvt.obj
 0001:0001677b       __fassign                  1001777b f   LIBCMT:cvt.obj
 0001:00016793       __fassign_l                10017793 f   LIBCMT:cvt.obj
 0001:000167d5       __forcdecpt                100177d5 f   LIBCMT:cvt.obj
 0001:000167e6       __forcdecpt_l              100177e6 f   LIBCMT:cvt.obj
 0001:0001685a       __positive                 1001785a f   LIBCMT:cvt.obj
 0001:0001689c       __setdefaultprecision      1001789c f   LIBCMT:fp8.obj
 0001:000168c3       __get_heap_handle          100178c3 f   LIBCMT:heapinit.obj
 0001:000168c9       __heap_init                100178c9 f   LIBCMT:heapinit.obj
 0001:000168de       __heap_term                100178de f   LIBCMT:heapinit.obj
 0001:000168e6       _realloc                   100178e6 f   LIBCMT:realloc.obj
 0001:00016991       ??2@YAPAXIABUnothrow_t@std@@@Z 10017991 f   LIBCMT:newopnt.obj
 0001:000169bf       __ioinit                   100179bf f   LIBCMT:ioinit.obj
 0001:00016c73       __ioterm                   10017c73 f   LIBCMT:ioinit.obj
 0001:00016cc5       __set_pgmptr               10017cc5 f i LIBCMT:stdargv.obj
 0001:00016cd2       __setargv                  10017cd2 f   LIBCMT:stdargv.obj
 0001:00016f01       __setenvp                  10017f01 f   LIBCMT:stdenvp.obj
 0001:00016fe2       ___security_init_cookie    10017fe2 f   LIBCMT:gs_support.obj
 0001:0001707e       ___crtGetEnvironmentStringsA 1001807e f   LIBCMT:a_env.obj
 0001:0001710b       _wcscat_s                  1001810b f   LIBCMT:wcscat_s.obj
 0001:00017177       ___set_app_type            10018177 f   LIBCMT:errmode.obj
 0001:00017184       __set_error_mode           10018184 f   LIBCMT:errmode.obj
 0001:000171c4       ___crtMessageBoxW          100181c4 f   LIBCMT:crtmboxw.obj
 0001:000173aa       ___crtMessageBoxWaitThreadW@4 100183aa f   LIBCMT:crtmboxw.obj
 0001:000173c8       __calloc_impl              100183c8 f   LIBCMT:calloc_impl.obj
 0001:00017442       __fptrap                   10018442 f   LIBCMT:crt0fp.obj
 0001:0001744b       _strncpy_s                 1001844b f   LIBCMT:strncpy_s.obj
 0001:000175d3       ___crtGetLocaleInfoA       100185d3 f   LIBCMT:a_loc.obj
 0001:00017831       ___crtLCMapStringA         10018831 f   LIBCMT:a_map.obj
 0001:0001796f       ___crtGetStringTypeA       1001896f f   LIBCMT:a_str.obj
 0001:000179af       __isatty                   100189af f   LIBCMT:isatty.obj
 0001:00017a03       __write                    10018a03 f   LIBCMT:write.obj
 0001:00017af2       __write_nolock             10018af2 f   LIBCMT:write.obj
 0001:00018357       __lseeki64                 10019357 f   LIBCMT:lseeki64.obj
 0001:00018453       __lseeki64_nolock          10019453 f   LIBCMT:lseeki64.obj
 0001:000184c6       __getbuf                   100194c6 f   LIBCMT:_getbuf.obj
 0001:0001850c       __validate_param_reuseW    1001950c f   LIBCMT:woutputp.obj
 0001:00018684       __woutput_p_l              10019684 f   LIBCMT:woutputp.obj
 0001:00019a53       __woutput_s_l              1001aa53 f   LIBCMT:woutputs.obj
 0001:0001a76a       __get_printf_count_output  1001b76a f   LIBCMT:printf.obj
 0001:0001a77f       __printf_l                 1001b77f f   LIBCMT:printf.obj
 0001:0001a796       __printf_p                 1001b796 f   LIBCMT:printf.obj
 0001:0001a7ac       __printf_p_l               1001b7ac f   LIBCMT:printf.obj
 0001:0001a7c3       __printf_s_l               1001b7c3 f   LIBCMT:printf.obj
 0001:0001a7da       __set_printf_count_output  1001b7da f   LIBCMT:printf.obj
 0001:0001a802       _printf                    1001b802 f   LIBCMT:printf.obj
 0001:0001a8b1       _printf_s                  1001b8b1 f   LIBCMT:printf.obj
 0001:0001a8c7       __fputwc_nolock            1001b8c7 f   LIBCMT:fputwc.obj
 0001:0001aa4d       _fputwc                    1001ba4d f   LIBCMT:fputwc.obj
 0001:0001aac4       _putwc                     1001bac4 f   LIBCMT:fputwc.obj
 0001:0001aacd       __mbtowc_l                 1001bacd f   LIBCMT:mbtowc.obj
 0001:0001abc2       _mbtowc                    1001bbc2 f   LIBCMT:mbtowc.obj
 0001:0001abe0       __aulldvrm                 1001bbe0 f   LIBCMT:ulldvrm.obj
 0001:0001ac75       __output_l                 1001bc75 f   LIBCMT:output.obj
 0001:0001b7f5       _get_short_arg             1001c7f5 f i LIBCMT:output.obj
 0001:0001b900       __global_unwind2           1001c900 f   LIBCMT:exsup.obj
 0001:0001b965       __local_unwind2            1001c965 f   LIBCMT:exsup.obj
 0001:0001b9e9       __abnormal_termination     1001c9e9 f   LIBCMT:exsup.obj
 0001:0001ba0c       __NLG_Notify1              1001ca0c f   LIBCMT:exsup.obj
 0001:0001ba15       __NLG_Notify               1001ca15 f   LIBCMT:exsup.obj
 0001:0001ba2c       __NLG_Dispatch             1001ca2c     LIBCMT:exsup.obj
 0001:0001ba2c       __NLG_Dispatch2            1001ca2c     LIBCMT:exsup.obj
 0001:0001ba34       __NLG_Call                 1001ca34 f   LIBCMT:exsup.obj
 0001:0001ba36       __NLG_Return2              1001ca36     LIBCMT:exsup.obj
 0001:0001ba37       ?_ValidateExecute@@YAHP6GHXZ@Z 1001ca37 f   LIBCMT:validate.obj
 0001:0001ba46       ?_ValidateRead@@YAHPBXI@Z  1001ca46 f   LIBCMT:validate.obj
 0001:0001ba55       ?_ValidateWrite@@YAHPAXI@Z 1001ca55 f   LIBCMT:validate.obj
 0001:0001ba64       ??0Block@_HeapManager@@QAE@XZ 1001ca64 f i LIBCMT:undname.obj
 0001:0001ba6a       ??0DName@@QAE@AAPBDD@Z     1001ca6a f   LIBCMT:undname.obj
 0001:0001bb23       ??0DName@@QAE@ABV0@@Z      1001cb23 f i LIBCMT:undname.obj
 0001:0001bb39       ??0DName@@QAE@D@Z          1001cb39 f   LIBCMT:undname.obj
 0001:0001bb65       ??0DName@@QAE@PAV0@@Z      1001cb65 f   LIBCMT:undname.obj
 0001:0001bbb2       ??0DName@@QAE@PBD@Z        1001cbb2 f   LIBCMT:undname.obj
 0001:0001bbec       ??0DName@@QAE@W4DNameStatus@@@Z 1001cbec f   LIBCMT:undname.obj
 0001:0001bc2f       ??0DName@@QAE@XZ           1001cc2f f i LIBCMT:undname.obj
 0001:0001bc40       ??0DName@@QAE@_J@Z         1001cc40 f   LIBCMT:undname.obj
 0001:0001bcd3       ??0DName@@QAE@_K@Z         1001ccd3 f   LIBCMT:undname.obj
 0001:0001bd40       ??0DNameNode@@IAE@XZ       1001cd40 f   LIBCMT:undname.obj
 0001:0001bd49       ??0DNameStatusNode@@AAE@W4DNameStatus@@@Z 1001cd49 f   LIBCMT:undname.obj
 0001:0001bd6c       ??0Replicator@@QAE@XZ      1001cd6c f i LIBCMT:undname.obj
 0001:0001bd72       ??0UnDecorator@@QAE@PADPBDHP6APADJ@ZK@Z 1001cd72 f i LIBCMT:undname.obj
 0001:0001bddb       ??0charNode@@QAE@D@Z       1001cddb f   LIBCMT:undname.obj
 0001:0001bdf0       ??0pDNameNode@@QAE@PAVDName@@@Z 1001cdf0 f   LIBCMT:undname.obj
 0001:0001be18       ??0pairNode@@QAE@PAVDNameNode@@0@Z 1001ce18 f   LIBCMT:undname.obj
 0001:0001be37       ??0pcharNode@@QAE@PBDH@Z   1001ce37 f   LIBCMT:undname.obj
 0001:0001be8e       ??2@YAPAXIAAV_HeapManager@@H@Z 1001ce8e f i LIBCMT:undname.obj
 0001:0001bea3       ??4DName@@QAEAAV0@ABV0@@Z  1001cea3 f   LIBCMT:undname.obj
 0001:0001beb9       ??4DName@@QAEAAV0@D@Z      1001ceb9 f i LIBCMT:undname.obj
 0001:0001bee5       ??4DName@@QAEAAV0@PAV0@@Z  1001cee5 f   LIBCMT:undname.obj
 0001:0001bf2e       ??4DName@@QAEAAV0@PBD@Z    1001cf2e f   LIBCMT:undname.obj
 0001:0001bf60       ??4DName@@QAEAAV0@W4DNameStatus@@@Z 1001cf60 f   LIBCMT:undname.obj
 0001:0001bf95       ??AReplicator@@QBE?AVDName@@H@Z 1001cf95 f   LIBCMT:undname.obj
 0001:0001bfd1       ??BUnDecorator@@QAEPADXZ   1001cfd1 f i LIBCMT:undname.obj
 0001:0001c150       ??H@YA?AVDName@@DABV0@@Z   1001d150 f i LIBCMT:undname.obj
 0001:0001c174       ??H@YA?AVDName@@PBDABV0@@Z 1001d174 f i LIBCMT:undname.obj
 0001:0001c198       ??H@YA?AVDName@@W4DNameStatus@@ABV0@@Z 1001d198 f i LIBCMT:undname.obj
 0001:0001c1bc       ??HDName@@QBE?AV0@ABV0@@Z  1001d1bc f   LIBCMT:undname.obj
 0001:0001c1de       ??HDName@@QBE?AV0@D@Z      1001d1de f   LIBCMT:undname.obj
 0001:0001c200       ??HDName@@QBE?AV0@PAV0@@Z  1001d200 f   LIBCMT:undname.obj
 0001:0001c222       ??HDName@@QBE?AV0@PBD@Z    1001d222 f   LIBCMT:undname.obj
 0001:0001c244       ??HDName@@QBE?AV0@W4DNameStatus@@@Z 1001d244 f   LIBCMT:undname.obj
 0001:0001c266       ??YDName@@QAEAAV0@ABV0@@Z  1001d266 f   LIBCMT:undname.obj
 0001:0001c2a9       ??YDName@@QAEAAV0@D@Z      1001d2a9 f   LIBCMT:undname.obj
 0001:0001c2f9       ??YDName@@QAEAAV0@PAV0@@Z  1001d2f9 f   LIBCMT:undname.obj
 0001:0001c35e       ??YDName@@QAEAAV0@PBD@Z    1001d35e f   LIBCMT:undname.obj
 0001:0001c3bf       ??YDName@@QAEAAV0@W4DNameStatus@@@Z 1001d3bf f   LIBCMT:undname.obj
 0001:0001c3ff       ??YReplicator@@QAEAAV0@ABVDName@@@Z 1001d3ff f   LIBCMT:undname.obj
 0001:0001c449       ??_5DName@@QAEAAV0@ABV0@@Z 1001d449 f   LIBCMT:undname.obj
 0001:0001c465       ?Constructor@_HeapManager@@QAEXP6APAXI@ZP6AXPAX@Z@Z 1001d465 f i LIBCMT:undname.obj
 0001:0001c482       ?Destructor@_HeapManager@@QAEXXZ 1001d482 f i LIBCMT:undname.obj
 0001:0001c4a8       ?UScore@UnDecorator@@SAPBDW4Tokens@@@Z 1001d4a8 f   LIBCMT:undname.obj
 0001:0001c4c5       ?append@DName@@AAEXPAVDNameNode@@@Z 1001d4c5 f   LIBCMT:undname.obj
 0001:0001c50b       ?composeDeclaration@UnDecorator@@CA?AVDName@@ABV2@@Z 1001d50b f i LIBCMT:undname.obj
 0001:0001d241       ?doAccessSpecifiers@UnDecorator@@SAHXZ 1001e241 f i LIBCMT:undname.obj
 0001:0001d24f       ?doAllocationLanguage@UnDecorator@@SAHXZ 1001e24f f i LIBCMT:undname.obj
 0001:0001d25d       ?doAllocationModel@UnDecorator@@SAHXZ 1001e25d f i LIBCMT:undname.obj
 0001:0001d26b       ?doEcsu@UnDecorator@@SAHXZ 1001e26b f i LIBCMT:undname.obj
 0001:0001d279       ?doEllipsis@UnDecorator@@SAHXZ 1001e279 f i LIBCMT:undname.obj
 0001:0001d287       ?doFunctionReturns@UnDecorator@@SAHXZ 1001e287 f i LIBCMT:undname.obj
 0001:0001d295       ?doMSKeywords@UnDecorator@@SAHXZ 1001e295 f i LIBCMT:undname.obj
 0001:0001d2a2       ?doMemberTypes@UnDecorator@@SAHXZ 1001e2a2 f i LIBCMT:undname.obj
 0001:0001d2b0       ?doNameOnly@UnDecorator@@SAHXZ 1001e2b0 f i LIBCMT:undname.obj
 0001:0001d2bb       ?doNoIdentCharCheck@UnDecorator@@SAHXZ 1001e2bb f i LIBCMT:undname.obj
 0001:0001d2c6       ?doPchar@DName@@AAEXPBDH@Z 1001e2c6 f   LIBCMT:undname.obj
 0001:0001d34e       ?doPtr64@UnDecorator@@SAHXZ 1001e34e f i LIBCMT:undname.obj
 0001:0001d35c       ?doRestrictionSpec@UnDecorator@@SAHXZ 1001e35c f i LIBCMT:undname.obj
 0001:0001d36a       ?doThisTypes@UnDecorator@@SAHXZ 1001e36a f i LIBCMT:undname.obj
 0001:0001d37c       ?doThrowTypes@UnDecorator@@SAHXZ 1001e37c f i LIBCMT:undname.obj
 0001:0001d38a       ?doTypeOnly@UnDecorator@@SAHXZ 1001e38a f i LIBCMT:undname.obj
 0001:0001d395       ?doUnderScore@UnDecorator@@SAHXZ 1001e395 f i LIBCMT:undname.obj
 0001:0001d3a0       ?getArgumentList@UnDecorator@@CA?AVDName@@XZ 1001e3a0 f   LIBCMT:undname.obj
 0001:0001d4ac       ?getArgumentTypes@UnDecorator@@CA?AVDName@@XZ 1001e4ac f   LIBCMT:undname.obj
 0001:0001d58a       ?getArrayType@UnDecorator@@CA?AVDName@@ABV2@@Z 1001e58a f i LIBCMT:undname.obj
 0001:0001d78c       ?getBasedType@UnDecorator@@CA?AVDName@@XZ 1001e78c f   LIBCMT:undname.obj
 0001:0001d823       ?getBasicDataType@UnDecorator@@CA?AVDName@@ABV2@@Z 1001e823 f   LIBCMT:undname.obj
 0001:0001dbfa       ?getCallIndex@UnDecorator@@CA?AVDName@@XZ 1001ebfa f i LIBCMT:undname.obj
 0001:0001dc0e       ?getCallingConvention@UnDecorator@@CA?AVDName@@XZ 1001ec0e f   LIBCMT:undname.obj
 0001:0001dccd       ?getDataIndirectType@UnDecorator@@CA?AVDName@@ABV2@PBD0H@Z 1001eccd f   LIBCMT:undname.obj
 0001:0001e26a       ?getDataIndirectType@UnDecorator@@CA?AVDName@@XZ 1001f26a f i LIBCMT:undname.obj
 0001:0001e2a3       ?getDataType@UnDecorator@@CA?AVDName@@PAV2@@Z 1001f2a3 f   LIBCMT:undname.obj
 0001:0001e375       ?getDecoratedName@UnDecorator@@CA?AVDName@@XZ 1001f375 f   LIBCMT:undname.obj
 0001:0001e5c1       ?getDimension@UnDecorator@@CA?AVDName@@_N@Z 1001f5c1 f   LIBCMT:undname.obj
 0001:0001e6f8       ?getDispatchTarget@UnDecorator@@CA?AVDName@@XZ 1001f6f8 f   LIBCMT:undname.obj
 0001:0001e753       ?getDisplacement@UnDecorator@@CA?AVDName@@XZ 1001f753 f i LIBCMT:undname.obj
 0001:0001e767       ?getECSUDataType@UnDecorator@@CA?AVDName@@XZ 1001f767 f   LIBCMT:undname.obj
 0001:0001e87a       ?getECSUName@UnDecorator@@CA?AVDName@@XZ 1001f87a f i LIBCMT:undname.obj
 0001:0001e88b       ?getEnumType@UnDecorator@@CA?AVDName@@XZ 1001f88b f i LIBCMT:undname.obj
 0001:0001e96f       ?getExtendedDataIndirectType@UnDecorator@@CA?AVDName@@AAPBDAA_NH@Z 1001f96f f   LIBCMT:undname.obj
 0001:0001eb14       ?getExternalDataType@UnDecorator@@CA?AVDName@@ABV2@@Z 1001fb14 f i LIBCMT:undname.obj
 0001:0001eb8d       ?getFunctionIndirectType@UnDecorator@@CA?AVDName@@ABV2@@Z 1001fb8d f   LIBCMT:undname.obj
 0001:0001ef83       ?getGuardNumber@UnDecorator@@CA?AVDName@@XZ 1001ff83 f i LIBCMT:undname.obj
 0001:0001ef97       ?getLastChar@DName@@QBEDXZ 1001ff97 f i LIBCMT:undname.obj
 0001:0001efa5       ?getLastChar@DNameStatusNode@@UBEDXZ 1001ffa5 f i LIBCMT:undname.obj
 0001:0001efb1       ?getLastChar@charNode@@UBEDXZ 1001ffb1 f i LIBCMT:undname.obj
 0001:0001efb5       ?getLastChar@pDNameNode@@UBEDXZ 1001ffb5 f i LIBCMT:undname.obj
 0001:0001efca       ?getLastChar@pairNode@@UBEDXZ 1001ffca f i LIBCMT:undname.obj
 0001:0001efe4       ?getLastChar@pcharNode@@UBEDXZ 1001ffe4 f i LIBCMT:undname.obj
 0001:0001eff6       ?getLexicalFrame@UnDecorator@@CA?AVDName@@XZ 1001fff6 f i LIBCMT:undname.obj
 0001:0001f033       ?getMemory@_HeapManager@@QAEPAXIH@Z 10020033 f   LIBCMT:undname.obj
 0001:0001f0b8       ?getNumberOfDimensions@UnDecorator@@CAHXZ 100200b8 f   LIBCMT:undname.obj
 0001:0001f119       ?getOperatorName@UnDecorator@@CA?AVDName@@_NPA_N@Z 10020119 f i LIBCMT:undname.obj
 0001:0001f6f3       ?getPointerType@UnDecorator@@CA?AVDName@@ABV2@0@Z 100206f3 f i LIBCMT:undname.obj
 0001:0001f711       ?getPointerTypeArray@UnDecorator@@CA?AVDName@@ABV2@0@Z 10020711 f i LIBCMT:undname.obj
 0001:0001f72f       ?getPrimaryDataType@UnDecorator@@CA?AVDName@@ABV2@@Z 1002072f f   LIBCMT:undname.obj
 0001:0001f8e7       ?getPtrRefDataType@UnDecorator@@CA?AVDName@@ABV2@H@Z 100208e7 f i LIBCMT:undname.obj
 0001:0001f9d1       ?getPtrRefType@UnDecorator@@CA?AVDName@@ABV2@0PBD@Z 100209d1 f   LIBCMT:undname.obj
 0001:0001facd       ?getReferenceType@UnDecorator@@CA?AVDName@@ABV2@0PBD@Z 10020acd f i LIBCMT:undname.obj
 0001:0001fae9       ?getRestrictionSpec@UnDecorator@@CA?AVDName@@XZ 10020ae9 f   LIBCMT:undname.obj
 0001:0001fbd7       ?getReturnType@UnDecorator@@CA?AVDName@@PAV2@@Z 10020bd7 f   LIBCMT:undname.obj
 0001:0001fc06       ?getScope@UnDecorator@@CA?AVDName@@XZ 10020c06 f   LIBCMT:undname.obj
 0001:0001ffdd       ?getScopedName@UnDecorator@@CA?AVDName@@XZ 10020fdd f   LIBCMT:undname.obj
 0001:000200d8       ?getSignedDimension@UnDecorator@@CA?AVDName@@XZ 100210d8 f   LIBCMT:undname.obj
 0001:0002012b       ?getStorageConvention@UnDecorator@@CA?AVDName@@XZ 1002112b f i LIBCMT:undname.obj
 0001:0002013c       ?getString@DName@@QBEPADPAD0@Z 1002113c f i LIBCMT:undname.obj
 0001:00020152       ?getString@DName@@QBEPADPADH@Z 10021152 f i LIBCMT:undname.obj
 0001:000201b0       ?getString@DNameStatusNode@@UBEPADPAD0@Z 100211b0 f i LIBCMT:undname.obj
 0001:000201d7       ?getString@charNode@@UBEPADPAD0@Z 100211d7 f i LIBCMT:undname.obj
 0001:000201ec       ?getString@pDNameNode@@UBEPADPAD0@Z 100211ec f i LIBCMT:undname.obj
 0001:00020209       ?getString@pairNode@@UBEPADPAD0@Z 10021209 f i LIBCMT:undname.obj
 0001:00020233       ?getString@pcharNode@@UBEPADPAD0@Z 10021233 f i LIBCMT:undname.obj
 0001:0002024e       ?getStringEncoding@UnDecorator@@CA?AVDName@@PADH@Z 1002124e f   LIBCMT:undname.obj
 0001:000202f1       ?getStringHelper@@YAPADPAD00H@Z 100212f1 f i LIBCMT:undname.obj
 0001:00020326       ?getSymbolName@UnDecorator@@CA?AVDName@@XZ 10021326 f i LIBCMT:undname.obj
 0001:0002036e       ?getTemplateArgumentList@UnDecorator@@CA?AVDName@@XZ 1002136e f   LIBCMT:undname.obj
 0001:000205e7       ?getTemplateConstant@UnDecorator@@CA?AVDName@@XZ 100215e7 f   LIBCMT:undname.obj
 0001:000208e7       ?getTemplateName@UnDecorator@@CA?AVDName@@_N@Z 100218e7 f   LIBCMT:undname.obj
 0001:00020a41       ?getThisType@UnDecorator@@CA?AVDName@@XZ 10021a41 f i LIBCMT:undname.obj
 0001:00020a7b       ?getThrowTypes@UnDecorator@@CA?AVDName@@XZ 10021a7b f   LIBCMT:undname.obj
 0001:00020b05       ?getTypeEncoding@UnDecorator@@CAHXZ 10021b05 f i LIBCMT:undname.obj
 0001:00020ff5       ?getVCallThunkType@UnDecorator@@CA?AVDName@@XZ 10021ff5 f i LIBCMT:undname.obj
 0001:00021030       ?getVbTableType@UnDecorator@@CA?AVDName@@ABV2@@Z 10022030 f i LIBCMT:undname.obj
 0001:00021045       ?getVdispMapType@UnDecorator@@CA?AVDName@@ABV2@@Z 10022045 f i LIBCMT:undname.obj
 0001:0002109b       ?getVfTableType@UnDecorator@@CA?AVDName@@ABV2@@Z 1002209b f i LIBCMT:undname.obj
 0001:00021200       ?getZName@UnDecorator@@CA?AVDName@@_N0@Z 10022200 f   LIBCMT:undname.obj
 0001:0002142a       ?haveTemplateParameters@UnDecorator@@SAHXZ 1002242a f i LIBCMT:undname.obj
 0001:00021435       ?isArray@DName@@QBEHXZ     10022435 f i LIBCMT:undname.obj
 0001:0002143f       ?isComArray@DName@@QBEHXZ  1002243f f i LIBCMT:undname.obj
 0001:00021449       ?isEmpty@DName@@QBEHXZ     10022449 f i LIBCMT:undname.obj
 0001:00021451       ?isFull@Replicator@@QBEHXZ 10022451 f i LIBCMT:undname.obj
 0001:0002145a       ?isNoTE@DName@@QBEHXZ      1002245a f i LIBCMT:undname.obj
 0001:00021464       ?isPinPtr@DName@@QBEHXZ    10022464 f i LIBCMT:undname.obj
 0001:0002146e       ?isPtrRef@DName@@QBEHXZ    1002246e f i LIBCMT:undname.obj
 0001:00021478       ?isUDC@DName@@QBEHXZ       10022478 f i LIBCMT:undname.obj
 0001:00021489       ?isUDTThunk@DName@@QBEHXZ  10022489 f i LIBCMT:undname.obj
 0001:0002149a       ?isVCallThunk@DName@@QBEHXZ 1002249a f i LIBCMT:undname.obj
 0001:000214a4       ?isValid@DName@@QBEHXZ     100224a4 f i LIBCMT:undname.obj
 0001:000214ae       ?length@DName@@QBEHXZ      100224ae f i LIBCMT:undname.obj
 0001:000214bb       ?length@DNameStatusNode@@UBEHXZ 100224bb f i LIBCMT:undname.obj
 0001:000214bf       ?length@charNode@@UBEHXZ   100224bf f i LIBCMT:undname.obj
 0001:000214c3       ?length@pDNameNode@@UBEHXZ 100224c3 f i LIBCMT:undname.obj
 0001:000214d7       ?length@pairNode@@UBEHXZ   100224d7 f i LIBCMT:undname.obj
 0001:00021500       ?length@pcharNode@@UBEHXZ  10022500 f i LIBCMT:undname.obj
 0001:00021504       ?make@DNameStatusNode@@SAPAV1@W4DNameStatus@@@Z 10022504 f i LIBCMT:undname.obj
 0001:0002158a       ?setIsArray@DName@@QAEXXZ  1002258a f i LIBCMT:undname.obj
 0001:00021592       ?setIsComArray@DName@@QAEXXZ 10022592 f i LIBCMT:undname.obj
 0001:0002159a       ?setIsNoTE@DName@@QAEXXZ   1002259a f i LIBCMT:undname.obj
 0001:000215a2       ?setIsPinPtr@DName@@QAEXXZ 100225a2 f i LIBCMT:undname.obj
 0001:000215aa       ?setIsUDC@DName@@QAEXXZ    100225aa f i LIBCMT:undname.obj
 0001:000215b7       ?setIsVCallThunk@DName@@QAEXXZ 100225b7 f i LIBCMT:undname.obj
 0001:000215bf       ?setPtrRef@DName@@QAEAAV1@XZ 100225bf f i LIBCMT:undname.obj
 0001:000215c9       ?status@DName@@QBE?AW4DNameStatus@@XZ 100225c9 f i LIBCMT:undname.obj
 0001:00021631       ___unDName                 10022631 f   LIBCMT:undname.obj
 0001:000216d4       ___unDNameEx               100226d4 f   LIBCMT:undname.obj
 0001:00021775       __wchartodigit             10022775 f   LIBCMT:wchtodig.obj
 0001:00021914       __wcstod_l                 10022914 f   LIBCMT:wcstod.obj
 0001:00021a0f       _wcstod                    10022a0f f   LIBCMT:wcstod.obj
 0001:00021a24       ___crt_atoflt_l            10022a24 f   LIBCMT:atodbl.obj
 0001:00021ac8       __atodbl                   10022ac8 f   LIBCMT:atodbl.obj
 0001:00021add       __atodbl_l                 10022add f   LIBCMT:atodbl.obj
 0001:00021b6b       __atoflt                   10022b6b f   LIBCMT:atodbl.obj
 0001:00021b80       __atoflt_l                 10022b80 f   LIBCMT:atodbl.obj
 0001:00021b98       __atoldbl                  10022b98 f   LIBCMT:atodbl.obj
 0001:00021bad       __atoldbl_l                10022bad f   LIBCMT:atodbl.obj
 0001:00021c40       __allmul                   10022c40 f   LIBCMT:llmul.obj
 0001:00021c74       ___init_dummy              10022c74 f   LIBCMT:wsetloca.obj
 0001:00021c77       __locterm                  10022c77 f   LIBCMT:wsetloca.obj
 0001:00021cc9       ____setlc_active_func      10022cc9 f   LIBCMT:wsetloca.obj
 0001:00021ccf       ____unguarded_readlc_active_add_func 10022ccf f   LIBCMT:wsetloca.obj
 0001:00021cd5       ___copy_locale_name        10022cd5 f   LIBCMT:wsetloca.obj
 0001:00021d39       ___create_locale           10022d39 f   LIBCMT:wsetloca.obj
 0001:00021d42       ___free_locale             10022d42 f   LIBCMT:wsetloca.obj
 0001:00021d47       ___get_current_locale      10022d47 f   LIBCMT:wsetloca.obj
 0001:00021d4c       ___lc_lctowcs              10022d4c f   LIBCMT:wsetloca.obj
 0001:00021dba       ___lc_wcstolc              10022dba f   LIBCMT:wsetloca.obj
 0001:00021ee6       __configthreadlocale       10022ee6 f   LIBCMT:wsetloca.obj
 0001:00021f6c       __create_locale            10022f6c f   LIBCMT:wsetloca.obj
 0001:00021fce       __expandlocale             10022fce f   LIBCMT:wsetloca.obj
 0001:000222c5       __free_locale              100232c5 f   LIBCMT:wsetloca.obj
 0001:0002237c       __get_current_locale       1002337c f   LIBCMT:wsetloca.obj
 0001:0002242b       __wcreate_locale           1002342b f   LIBCMT:wsetloca.obj
 0001:00022502       __wcscats                  10023502 f   LIBCMT:wsetloca.obj
 0001:00022541       __wsetlocale               10023541 f   LIBCMT:wsetloca.obj
 0001:00022e83       ___free_lconv_mon          10023e83 f   LIBCMT:initmon.obj
 0001:00022f7f       ___init_monetary           10023f7f f   LIBCMT:initmon.obj
 0001:00023358       ___free_lconv_num          10024358 f   LIBCMT:initnum.obj
 0001:000233bf       ___init_numeric            100243bf f   LIBCMT:initnum.obj
 0001:000235fd       ___free_lc_time            100245fd f   LIBCMT:inittime.obj
 0001:0002397d       ___init_time               1002497d f   LIBCMT:inittime.obj
 0001:000241ec       _localeconv                100251ec f   LIBCMT:lconv.obj
 0001:00024212       ___pctype_func             10025212 f   LIBCMT:ctype.obj
 0001:0002423b       ___pwctype_func            1002523b f   LIBCMT:ctype.obj
 0001:00024241       __fcloseall                10025241 f   LIBCMT:closeall.obj
 0001:00024366       __wopen                    10025366 f   LIBCMT:wopen.obj
 0001:00024416       __wsopen                   10025416 f   LIBCMT:wopen.obj
 0001:00024449       __wsopen_helper            10025449 f   LIBCMT:wopen.obj
 0001:00024512       __wsopen_nolock            10025512 f   LIBCMT:wopen.obj
 0001:00024c65       __wsopen_s                 10025c65 f   LIBCMT:wopen.obj
 0001:00024c83       _wcsncmp                   10025c83 f   LIBCMT:wcsncmp.obj
 0001:00024cb9       __wcsnicmp                 10025cb9 f   LIBCMT:wcsnicmp.obj
 0001:00024d6f       __wcsnicmp_l               10025d6f f   LIBCMT:wcsnicmp.obj
 0001:00024e68       __towlower_l               10025e68 f   LIBCMT:towlower.obj
 0001:00024f19       _towlower                  10025f19 f   LIBCMT:towlower.obj
 0001:00024f2a       __atoi64                   10025f2a f   LIBCMT:atox.obj
 0001:00024f3e       __atoi64_l                 10025f3e f   LIBCMT:atox.obj
 0001:00024f55       __atoi_l                   10025f55 f   LIBCMT:atox.obj
 0001:00024f5e       __atol_l                   10025f5e f   LIBCMT:atox.obj
 0001:00024f75       __atoll_l                  10025f75 f   LIBCMT:atox.obj
 0001:00024f8c       _atoi                      10025f8c f   LIBCMT:atox.obj
 0001:00024f95       _atol                      10025f95 f   LIBCMT:atox.obj
 0001:00024fa9       _atoll                     10025fa9 f   LIBCMT:atox.obj
 0001:00024fbd       __dupenv_s                 10025fbd f   LIBCMT:getenv.obj
 0001:00025130       __getenv_helper_nolock     10026130 f   LIBCMT:getenv.obj
 0001:0002524f       _getenv                    1002624f f   LIBCMT:getenv.obj
 0001:000252cf       _getenv_s                  100262cf f   LIBCMT:getenv.obj
 0001:000253a0       ____lc_codepage_func       100263a0 f   LIBCMT:initctyp.obj
 0001:000253c6       ____lc_collate_cp_func     100263c6 f   LIBCMT:initctyp.obj
 0001:000253ec       ____lc_locale_name_func    100263ec f   LIBCMT:initctyp.obj
 0001:00025414       ____mb_cur_max_func        10026414 f   LIBCMT:initctyp.obj
 0001:0002543a       ____mb_cur_max_l_func      1002643a f   LIBCMT:initctyp.obj
 0001:00025451       ___init_ctype              10026451 f   LIBCMT:initctyp.obj
 0001:000257e9       _wcsnlen                   100267e9 f   LIBCMT:wcslen_s.obj
 0001:00025808       ___lock_fhandle            10026808 f   LIBCMT:osfinfo.obj
 0001:00025896       __alloc_osfhnd             10026896 f   LIBCMT:osfinfo.obj
 0001:00025a3f       __free_osfhnd              10026a3f f   LIBCMT:osfinfo.obj
 0001:00025ac5       __get_osfhandle            10026ac5 f   LIBCMT:osfinfo.obj
 0001:00025b2c       __open_osfhandle           10026b2c f   LIBCMT:osfinfo.obj
 0001:00025c42       __set_osfhnd               10026c42 f   LIBCMT:osfinfo.obj
 0001:00025cc4       __unlock_fhandle           10026cc4 f   LIBCMT:osfinfo.obj
 0001:00025cea       __commit                   10026cea f   LIBCMT:commit.obj
 0001:00025de0       __trandisp1                10026de0 f   LIBCMT:87disp.obj
 0001:00025e47       __trandisp2                10026e47 f   LIBCMT:87disp.obj
 0001:00025ed3       __rttospopde               10026ed3     LIBCMT:87disp.obj
 0001:00025ed8       __rttospop                 10026ed8     LIBCMT:87disp.obj
 0001:00025eda       __rtnospop                 10026eda     LIBCMT:87disp.obj
 0001:00025edc       __rttosnpop                10026edc     LIBCMT:87disp.obj
 0001:00025edd       __rtnospopde               10026edd     LIBCMT:87disp.obj
 0001:00025ee4       __rtzeropop                10026ee4     LIBCMT:87disp.obj
 0001:00025ee6       __rtzeronpop               10026ee6     LIBCMT:87disp.obj
 0001:00025eeb       __rtonepop                 10026eeb     LIBCMT:87disp.obj
 0001:00025eed       __rtonenpop                10026eed     LIBCMT:87disp.obj
 0001:00025ef2       __tosnan1                  10026ef2     LIBCMT:87disp.obj
 0001:00025f1d       __nosnan2                  10026f1d     LIBCMT:87disp.obj
 0001:00025f1f       __tosnan2                  10026f1f     LIBCMT:87disp.obj
 0001:00025f47       __nan2                     10026f47     LIBCMT:87disp.obj
 0001:00025f86       __rtindfpop                10026f86     LIBCMT:87disp.obj
 0001:00025f88       __rtindfnpop               10026f88     LIBCMT:87disp.obj
 0001:00025f99       __rttosnpopde              10026f99     LIBCMT:87disp.obj
 0001:00025fa3       __rtchsifneg               10026fa3     LIBCMT:87disp.obj
 0001:00025fb0       __startTwoArgErrorHandling 10026fb0 f   LIBCMT:genexcep.obj
 0001:00025fc7       __startOneArgErrorHandling 10026fc7 f   LIBCMT:genexcep.obj
 0001:00026010       __twoToTOS                 10027010 f   LIBCMT:common.obj
 0001:00026025       __load_CW                  10027025 f   LIBCMT:common.obj
 0001:0002603c       __convertTOStoQNaN         1002703c f   LIBCMT:common.obj
 0001:00026055       __fload_withFB             10027055 f   LIBCMT:common.obj
 0001:00026098       __checkTOS_withFB          10027098 f   LIBCMT:common.obj
 0001:000260ae       __fast_exit                100270ae f   LIBCMT:common.obj
 0001:000260bb       __math_exit                100270bb f   LIBCMT:common.obj
 0001:000260e5       __check_overflow_exit      100270e5 f   LIBCMT:common.obj
 0001:000260f9       __check_range_exit         100270f9 f   LIBCMT:common.obj
 0001:0002619c       __matherr                  1002719c f   LIBCMT:matherr.obj
 0001:0002619f       ___isascii                 1002719f f i LIBCMT:_ctype.obj
 0001:000261af       ___iscsym                  100271af f i LIBCMT:_ctype.obj
 0001:000261cf       ___iscsymf                 100271cf f i LIBCMT:_ctype.obj
 0001:000261ec       ___toascii                 100271ec f i LIBCMT:_ctype.obj
 0001:000261f7       __isalnum_l                100271f7 f i LIBCMT:_ctype.obj
 0001:0002624f       __isalpha_l                1002724f f i LIBCMT:_ctype.obj
 0001:000262a7       __isblank_l                100272a7 f i LIBCMT:_ctype.obj
 0001:00026301       __iscntrl_l                10027301 f i LIBCMT:_ctype.obj
 0001:00026353       __iscsym_l                 10027353 f i LIBCMT:_ctype.obj
 0001:00026374       __iscsymf_l                10027374 f i LIBCMT:_ctype.obj
 0001:00026395       __isdigit_l                10027395 f i LIBCMT:_ctype.obj
 0001:000263e7       __isgraph_l                100273e7 f i LIBCMT:_ctype.obj
 0001:0002643f       __islower_l                1002743f f i LIBCMT:_ctype.obj
 0001:00026491       __isprint_l                10027491 f i LIBCMT:_ctype.obj
 0001:000264e9       __ispunct_l                100274e9 f i LIBCMT:_ctype.obj
 0001:0002653b       __isspace_l                1002753b f i LIBCMT:_ctype.obj
 0001:0002658d       __isupper_l                1002758d f i LIBCMT:_ctype.obj
 0001:000265df       __isxdigit_l               100275df f i LIBCMT:_ctype.obj
 0001:00026637       _isalnum                   10027637 f i LIBCMT:_ctype.obj
 0001:00026664       _isalpha                   10027664 f i LIBCMT:_ctype.obj
 0001:00026691       _isblank                   10027691 f i LIBCMT:_ctype.obj
 0001:000266c6       _iscntrl                   100276c6 f i LIBCMT:_ctype.obj
 0001:000266f1       _isdigit                   100276f1 f i LIBCMT:_ctype.obj
 0001:0002671c       _isgraph                   1002771c f i LIBCMT:_ctype.obj
 0001:00026749       _islower                   10027749 f i LIBCMT:_ctype.obj
 0001:00026774       _isprint                   10027774 f i LIBCMT:_ctype.obj
 0001:000267a1       _ispunct                   100277a1 f i LIBCMT:_ctype.obj
 0001:000267cc       _isspace                   100277cc f i LIBCMT:_ctype.obj
 0001:000267f7       _isupper                   100277f7 f i LIBCMT:_ctype.obj
 0001:00026822       _isxdigit                  10027822 f i LIBCMT:_ctype.obj
 0001:0002684f       __tolower                  1002784f f   LIBCMT:tolower.obj
 0001:0002685a       __tolower_l                1002785a f   LIBCMT:tolower.obj
 0001:0002699d       _tolower                   1002799d f   LIBCMT:tolower.obj
 0001:000269d0       _strrchr                   100279d0 f   LIBCMT:strrchr.obj
 0001:00026b07       __fptostr                  10027b07 f   LIBCMT:_fptostr.obj
 0001:00026bb7       ___dtold                   10027bb7 f   LIBCMT:cfout.obj
 0001:00026c7f       __fltout2                  10027c7f f   LIBCMT:cfout.obj
 0001:00026d10       __alldvrm                  10027d10 f   LIBCMT:lldvrm.obj
 0001:00026df0       __aullshr                  10027df0 f   LIBCMT:ullshr.obj
 0001:00026e0f       __get_output_format        10027e0f f   LIBCMT:outputformat.obj
 0001:00026e15       __set_output_format        10027e15 f   LIBCMT:outputformat.obj
 0001:00026e47       __controlfp_s              10027e47 f   LIBCMT:contrlfp.obj
 0001:00026efe       __ismbbalnum               10027efe f   LIBCMT:ismbbyte.obj
 0001:00026f17       __ismbbalnum_l             10027f17 f   LIBCMT:ismbbyte.obj
 0001:00026f31       __ismbbalpha               10027f31 f   LIBCMT:ismbbyte.obj
 0001:00026f4a       __ismbbalpha_l             10027f4a f   LIBCMT:ismbbyte.obj
 0001:00026f64       __ismbbblank               10027f64 f   LIBCMT:ismbbyte.obj
 0001:00026f85       __ismbbblank_l             10027f85 f   LIBCMT:ismbbyte.obj
 0001:00026fa7       __ismbbgraph               10027fa7 f   LIBCMT:ismbbyte.obj
 0001:00026fc0       __ismbbgraph_l             10027fc0 f   LIBCMT:ismbbyte.obj
 0001:00026fda       __ismbbkalnum              10027fda f   LIBCMT:ismbbyte.obj
 0001:00026ff0       __ismbbkalnum_l            10027ff0 f   LIBCMT:ismbbyte.obj
 0001:00027007       __ismbbkana                10028007 f   LIBCMT:ismbbyte.obj
 0001:00027018       __ismbbkana_l              10028018 f   LIBCMT:ismbbyte.obj
 0001:00027064       __ismbbkprint              10028064 f   LIBCMT:ismbbyte.obj
 0001:0002707a       __ismbbkprint_l            1002807a f   LIBCMT:ismbbyte.obj
 0001:00027091       __ismbbkpunct              10028091 f   LIBCMT:ismbbyte.obj
 0001:000270a7       __ismbbkpunct_l            100280a7 f   LIBCMT:ismbbyte.obj
 0001:000270be       __ismbblead                100280be f   LIBCMT:ismbbyte.obj
 0001:000270d4       __ismbblead_l              100280d4 f   LIBCMT:ismbbyte.obj
 0001:000270eb       __ismbbprint               100280eb f   LIBCMT:ismbbyte.obj
 0001:00027104       __ismbbprint_l             10028104 f   LIBCMT:ismbbyte.obj
 0001:0002711e       __ismbbpunct               1002811e f   LIBCMT:ismbbyte.obj
 0001:00027134       __ismbbpunct_l             10028134 f   LIBCMT:ismbbyte.obj
 0001:0002714b       __ismbbtrail               1002814b f   LIBCMT:ismbbyte.obj
 0001:00027161       __ismbbtrail_l             10028161 f   LIBCMT:ismbbyte.obj
 0001:00027178       __putwch                   10028178 f   LIBCMT:putwch.obj
 0001:000271c4       __putwch_nolock            100281c4 f   LIBCMT:putwch.obj
 0001:00027207       __cprintf_p                10028207 f   LIBCMT:cprintfp.obj
 0001:0002721d       __cprintf_p_l              1002821d f   LIBCMT:cprintfp.obj
 0001:00027234       __vcprintf_p               10028234 f   LIBCMT:cprintfp.obj
 0001:00027249       __vcprintf_p_l             10028249 f   LIBCMT:cprintfp.obj
 0001:000284cd       _get_crtdouble_arg         100294cd f i LIBCMT:cprintfp.obj
 0001:00028585       __output_s_l               10029585 f   LIBCMT:outputs.obj
 0001:0002920d       __vprintf_l                1002a20d f   LIBCMT:vprintf.obj
 0001:00029228       __vprintf_p                1002a228 f   LIBCMT:vprintf.obj
 0001:00029242       __vprintf_p_l              1002a242 f   LIBCMT:vprintf.obj
 0001:0002925d       __vprintf_s_l              1002a25d f   LIBCMT:vprintf.obj
 0001:00029278       _vprintf                   1002a278 f   LIBCMT:vprintf.obj
 0001:00029292       _vprintf_helper            1002a292 f   LIBCMT:vprintf.obj
 0001:0002931f       _vprintf_s                 1002a31f f   LIBCMT:vprintf.obj
 0001:00029339       __wctomb_l                 1002a339 f   LIBCMT:wctomb.obj
 0001:00029388       __wctomb_s_l               1002a388 f   LIBCMT:wctomb.obj
 0001:000294ac       _wctomb                    1002a4ac f   LIBCMT:wctomb.obj
 0001:000294df       _wctomb_s                  1002a4df f   LIBCMT:wctomb.obj
 0001:000294fa       __flswbuf                  1002a4fa f   LIBCMT:_flswbuf.obj
 0001:0002965c       __wfltin2                  1002a65c f   LIBCMT:wcfin.obj
 0001:00029710       __CopyMan                  1002a710 f i LIBCMT:intrncvt.obj
 0001:0002972d       __FillZeroMan              1002a72d f i LIBCMT:intrncvt.obj
 0001:0002973c       __IncMan                   1002a73c f i LIBCMT:intrncvt.obj
 0001:0002979e       __IsZeroMan                1002a79e f i LIBCMT:intrncvt.obj
 0001:000297bb       __RoundMan                 1002a7bb f i LIBCMT:intrncvt.obj
 0001:000298bc       __ShrMan                   1002a8bc f i LIBCMT:intrncvt.obj
 0001:0002994a       __ZeroTail                 1002a94a f i LIBCMT:intrncvt.obj
 0001:00029992       ___addl                    1002a992 f i LIBCMT:intrncvt.obj
 0001:000299b6       __ld12cvt                  1002a9b6 f i LIBCMT:intrncvt.obj
 0001:00029f21       __ld12tod                  1002af21 f   LIBCMT:intrncvt.obj
 0001:0002a493       __ld12tof                  1002b493 f   LIBCMT:intrncvt.obj
 0001:0002aa05       __ld12told                 1002ba05 f   LIBCMT:intrncvt.obj
 0001:0002aad4       ___STRINGTOLD_L            1002bad4 f   LIBCMT:strgtold.obj
 0001:0002ab2f       ___ld12mul                 1002bb2f f i LIBCMT:strgtold.obj
 0001:0002adfb       ___multtenpow12            1002bdfb f i LIBCMT:strgtold.obj
 0001:0002b14e       ___shl_12                  1002c14e f i LIBCMT:strgtold.obj
 0001:0002b17f       ___shr_12                  1002c17f f i LIBCMT:strgtold.obj
 0001:0002b1af       ___strgtold12_l            1002c1af f   LIBCMT:strgtold.obj
 0001:0002b957       ___init_collate            1002c957 f   LIBCMT:initcoll.obj
 0001:0002ba77       _memcmp                    1002ca77 f   LIBCMT:memcmp.obj
 0001:0002e98b       _wcscspn                   1002f98b f   LIBCMT:wcscspn.obj
 0001:0002e9d6       _wcspbrk                   1002f9d6 f   LIBCMT:wcspbrk.obj
 0001:0002efda       ___get_qualified_locale    1002ffda f   LIBCMT:getqloc.obj
 0001:0002f84a       ___get_qualified_locale_downlevel 1003084a f   LIBCMT:getqloc_downlevel.obj
 0001:0002fa66       __chsize                   10030a66 f   LIBCMT:chsize.obj
 0001:0002fa80       __chsize_nolock            10030a80 f   LIBCMT:chsize.obj
 0001:0002fc36       __chsize_s                 10030c36 f   LIBCMT:chsize.obj
 0001:0002fd24       __read                     10030d24 f   LIBCMT:read.obj
 0001:0002fe38       __read_nolock              10030e38 f   LIBCMT:read.obj
 0001:000305c9       __get_fmode                100315c9 f   LIBCMT:setmode.obj
 0001:000305f3       __set_fmode                100315f3 f   LIBCMT:setmode.obj
 0001:0003062e       __setmode                  1003162e f   LIBCMT:setmode.obj
 0001:00030733       __setmode_nolock           10031733 f   LIBCMT:setmode.obj
 0001:00030800       ___crtLCMapStringW         10031800 f   LIBCMT:w_map.obj
 0001:00030a9f       __strtof_l                 10031a9f f   LIBCMT:strtoq.obj
 0001:00030abf       __strtoi64                 10031abf f   LIBCMT:strtoq.obj
 0001:00030ae9       __strtoi64_l               10031ae9 f   LIBCMT:strtoq.obj
 0001:00030b04       __strtoimax_l              10031b04 f   LIBCMT:strtoq.obj
 0001:00030b0d       __strtold_l                10031b0d f   LIBCMT:strtoq.obj
 0001:00030b16       __strtoll_l                10031b16 f   LIBCMT:strtoq.obj
 0001:00030b1f       __strtoui64                10031b1f f   LIBCMT:strtoq.obj
 0001:00030b49       __strtoui64_l              10031b49 f   LIBCMT:strtoq.obj
 0001:00030b64       __strtoull_l               10031b64 f   LIBCMT:strtoq.obj
 0001:00030b6d       __strtoumax_l              10031b6d f   LIBCMT:strtoq.obj
 0001:00030b76       _strtof                    10031b76 f   LIBCMT:strtoq.obj
 0001:00030b95       _strtoimax                 10031b95 f   LIBCMT:strtoq.obj
 0001:00030b9e       _strtold                   10031b9e f   LIBCMT:strtoq.obj
 0001:00030ba7       _strtoll                   10031ba7 f   LIBCMT:strtoq.obj
 0001:00030bb0       _strtoull                  10031bb0 f   LIBCMT:strtoq.obj
 0001:00030bb9       _strtoumax                 10031bb9 f   LIBCMT:strtoq.obj
 0001:00030de8       __strtol_l                 10031de8 f   LIBCMT:strtol.obj
 0001:00030e03       __strtoul_l                10031e03 f   LIBCMT:strtol.obj
 0001:00030e1e       _strtol                    10031e1e f   LIBCMT:strtol.obj
 0001:00030e48       _strtoul                   10031e48 f   LIBCMT:strtol.obj
 0001:00030e72       _strnlen                   10031e72 f   LIBCMT:strlen_s.obj
 0001:00030e8d       ___wtomb_environ           10031e8d f   LIBCMT:wtombenv.obj
 0001:00030f1c       _calloc                    10031f1c f   LIBCMT:calloc.obj
 0001:00030f5c       __mbsnbicoll               10031f5c f   LIBCMT:mbsnbico.obj
 0001:00030f74       __mbsnbicoll_l             10031f74 f   LIBCMT:mbsnbico.obj
 0001:0003102a       __87except                 1003202a f   LIBCMT:87except.obj
 0001:00031133       __isctype                  10032133 f   LIBCMT:isctype.obj
 0001:00031162       __isctype_l                10032162 f   LIBCMT:isctype.obj
 0001:00031213       _$I10_OUTPUT               10032213 f   LIBCMT:x10fout.obj
 0001:00031be7       ___add_12                  10032be7 f i LIBCMT:x10fout.obj
 0001:00031d93       ___control87_2             10032d93 f   LIBCMT:ieee87.obj
 0001:00032407       __clearfp                  10033407 f   LIBCMT:ieee87.obj
 0001:000324e7       __control87                100334e7 f i LIBCMT:ieee87.obj
 0001:000327e9       __controlfp                100337e9 f   LIBCMT:ieee87.obj
 0001:00032af4       __fpreset                  10033af4 f   LIBCMT:ieee87.obj
 0001:00032bc1       __set_controlfp            10033bc1 f   LIBCMT:ieee87.obj
 0001:00032c34       __statusfp                 10033c34 f   LIBCMT:ieee87.obj
 0001:00032cce       __statusfp2                10033cce f   LIBCMT:ieee87.obj
 0001:00032d2d       ___termconout              10033d2d f   LIBCMT:initcon.obj
 0001:00032d44       ___initconout              10033d44 f   LIBCMT:initcon.obj
 0001:00032d63       __putch                    10033d63 f   LIBCMT:putch.obj
 0001:00032dad       __putch_nolock             10033dad f   LIBCMT:putch.obj
 0001:00032e29       __output_p_l               10033e29 f   LIBCMT:outputp.obj
 0001:00034161       __validate_param_reuseA    10035161 f   LIBCMT:outputp.obj
 0001:00034383       ___WSTRINGTOLD_L           10035383 f   LIBCMT:wstrgtold.obj
 0001:000343de       ___wstrgtold12_l           100353de f   LIBCMT:wstrgtold.obj
 0001:00034c2e       ___mtold12                 10035c2e f   LIBCMT:mantold.obj
 0001:00034f2a       __i64tow_s                 10035f2a f   LIBCMT:xtows.obj
 0001:00034f5b       __itow_s                   10035f5b f   LIBCMT:xtows.obj
 0001:00034f84       __ltow_s                   10035f84 f   LIBCMT:xtows.obj
 0001:00034fae       __ui64tow_s                10035fae f   LIBCMT:xtows.obj
 0001:00034fc9       __ultow_s                  10035fc9 f   LIBCMT:xtows.obj
 0001:000350d4       _wcschr                    100360d4 f   LIBCMT:wcschr.obj
 0001:00035182       __strtod_l                 10036182 f   LIBCMT:strtod.obj
 0001:00035299       _strtod                    10036299 f   LIBCMT:strtod.obj
 0001:000352ae       ___crtsetenv               100362ae f   LIBCMT:setenv.obj
 0001:000355b1       __strnicoll                100365b1 f   LIBCMT:strnicol.obj
 0001:000355d8       __strnicoll_l              100365d8 f   LIBCMT:strnicol.obj
 0001:00035941       ___crtCompareStringA       10036941 f   LIBCMT:a_cmp.obj
 0001:00035984       __fltin2                   10036984 f   LIBCMT:cfin.obj
 0001:00035a2b       __strdup                   10036a2b f   LIBCMT:strdup.obj
 0001:00035a7b       __mbschr                   10036a7b f   LIBCMT:mbschr.obj
 0001:00035a90       __mbschr_l                 10036a90 f   LIBCMT:mbschr.obj
 0001:00035b2d       __strnicmp                 10036b2d f   LIBCMT:strnicmp.obj
 0001:00035b98       __strnicmp_l               10036b98 f   LIBCMT:strnicmp.obj
 0001:00035c50       _strchr                    10036c50 f   LIBCMT:strchr.obj
 0001:00035cbe       ___from_strstr_to_strchr   10036cbe     LIBCMT:strchr.obj
 0001:00035d80       ___ascii_strnicmp          10036d80 f   LIBCMT:_strnicm.obj
 0001:00035de1       ??0_Ignore@std@@QAE@XZ     10036de1 f i libcpmt:xthrow.obj
 0001:00035de4       ??0bad_function_call@std@@QAE@ABV01@@Z 10036de4 f i libcpmt:xthrow.obj
 0001:00035dff       ??0bad_function_call@std@@QAE@PBD@Z 10036dff f i libcpmt:xthrow.obj
 0001:00035e13       ??0invalid_argument@std@@QAE@ABV01@@Z 10036e13 f i libcpmt:xthrow.obj
 0001:00035e2e       ??0invalid_argument@std@@QAE@PBD@Z 10036e2e f i libcpmt:xthrow.obj
 0001:00035e50       ??0length_error@std@@QAE@ABV01@@Z 10036e50 f i libcpmt:xthrow.obj
 0001:00035e6b       ??0length_error@std@@QAE@PBD@Z 10036e6b f i libcpmt:xthrow.obj
 0001:00035e8d       ??0logic_error@std@@QAE@ABV01@@Z 10036e8d f i libcpmt:xthrow.obj
 0001:00035ea8       ??0logic_error@std@@QAE@PBD@Z 10036ea8 f i libcpmt:xthrow.obj
 0001:00035ec4       ??0out_of_range@std@@QAE@ABV01@@Z 10036ec4 f i libcpmt:xthrow.obj
 0001:00035edf       ??0out_of_range@std@@QAE@PBD@Z 10036edf f i libcpmt:xthrow.obj
 0001:00035f01       ??0overflow_error@std@@QAE@ABV01@@Z 10036f01 f i libcpmt:xthrow.obj
 0001:00035f1c       ??0overflow_error@std@@QAE@PBD@Z 10036f1c f i libcpmt:xthrow.obj
 0001:00035f3e       ??0regex_error@std@@QAE@ABV01@@Z 10036f3e f i libcpmt:xthrow.obj
 0001:00035f62       ??0regex_error@std@@QAE@W4error_type@regex_constants@1@@Z 10036f62 f i libcpmt:xthrow.obj
 0001:00035f92       ??0runtime_error@std@@QAE@ABV01@@Z 10036f92 f i libcpmt:xthrow.obj
 0001:00035fad       ??0runtime_error@std@@QAE@PBD@Z 10036fad f i libcpmt:xthrow.obj
 0001:00035fc9       ??1bad_function_call@std@@UAE@XZ 10036fc9 f i libcpmt:xthrow.obj
 0001:00035fce       ??1invalid_argument@std@@UAE@XZ 10036fce f i libcpmt:xthrow.obj
 0001:00035fd3       ??1length_error@std@@UAE@XZ 10036fd3 f i libcpmt:xthrow.obj
 0001:00035fd8       ??1logic_error@std@@UAE@XZ 10036fd8 f i libcpmt:xthrow.obj
 0001:00035fdd       ??1out_of_range@std@@UAE@XZ 10036fdd f i libcpmt:xthrow.obj
 0001:00035fe2       ??1overflow_error@std@@UAE@XZ 10036fe2 f i libcpmt:xthrow.obj
 0001:00035fe7       ??1regex_error@std@@UAE@XZ 10036fe7 f i libcpmt:xthrow.obj
 0001:00035fec       ??1runtime_error@std@@UAE@XZ 10036fec f i libcpmt:xthrow.obj
 0001:00035ff1       ??_Gbad_function_call@std@@UAEPAXI@Z 10036ff1 f i libcpmt:xthrow.obj
 0001:00035ff1       ??_Ebad_function_call@std@@UAEPAXI@Z 10036ff1 f i libcpmt:xthrow.obj
 0001:00036010       ??_Ginvalid_argument@std@@UAEPAXI@Z 10037010 f i libcpmt:xthrow.obj
 0001:00036010       ??_Einvalid_argument@std@@UAEPAXI@Z 10037010 f i libcpmt:xthrow.obj
 0001:0003602f       ??_Glength_error@std@@UAEPAXI@Z 1003702f f i libcpmt:xthrow.obj
 0001:0003602f       ??_Elength_error@std@@UAEPAXI@Z 1003702f f i libcpmt:xthrow.obj
 0001:0003604e       ??_Elogic_error@std@@UAEPAXI@Z 1003704e f i libcpmt:xthrow.obj
 0001:0003604e       ??_Glogic_error@std@@UAEPAXI@Z 1003704e f i libcpmt:xthrow.obj
 0001:0003606d       ??_Eout_of_range@std@@UAEPAXI@Z 1003706d f i libcpmt:xthrow.obj
 0001:0003606d       ??_Gout_of_range@std@@UAEPAXI@Z 1003706d f i libcpmt:xthrow.obj
 0001:0003608c       ??_Eoverflow_error@std@@UAEPAXI@Z 1003708c f i libcpmt:xthrow.obj
 0001:0003608c       ??_Goverflow_error@std@@UAEPAXI@Z 1003708c f i libcpmt:xthrow.obj
 0001:000360ab       ??_Gregex_error@std@@UAEPAXI@Z 100370ab f i libcpmt:xthrow.obj
 0001:000360ab       ??_Eregex_error@std@@UAEPAXI@Z 100370ab f i libcpmt:xthrow.obj
 0001:000360ca       ??_Eruntime_error@std@@UAEPAXI@Z 100370ca f i libcpmt:xthrow.obj
 0001:000360ca       ??_Gruntime_error@std@@UAEPAXI@Z 100370ca f i libcpmt:xthrow.obj
 0001:000360e9       ?_Stringify@regex_error@std@@CAPBDW4error_type@regex_constants@2@@Z 100370e9 f i libcpmt:xthrow.obj
 0001:000361a9       ?_Xbad_alloc@std@@YAXXZ    100371a9 f   libcpmt:xthrow.obj
 0001:000361da       ?_Xbad_function_call@std@@YAXXZ 100371da f   libcpmt:xthrow.obj
 0001:000361fe       ?_Xinvalid_argument@std@@YAXPBD@Z 100371fe f   libcpmt:xthrow.obj
 0001:0003622c       ?_Xlength_error@std@@YAXPBD@Z 1003722c f   libcpmt:xthrow.obj
 0001:0003625a       ?_Xout_of_range@std@@YAXPBD@Z 1003725a f   libcpmt:xthrow.obj
 0001:00036288       ?_Xoverflow_error@std@@YAXPBD@Z 10037288 f   libcpmt:xthrow.obj
 0001:000362b6       ?_Xregex_error@std@@YAXW4error_type@regex_constants@1@@Z 100372b6 f   libcpmt:xthrow.obj
 0001:000362d6       ?_Xruntime_error@std@@YAXPBD@Z 100372d6 f   libcpmt:xthrow.obj
 0001:00036304       ?what@bad_function_call@std@@UBEPBDXZ 10037304 f i libcpmt:xthrow.obj
 0001:0003630a       ?_Syserror_map@std@@YAPBDH@Z 1003730a f   libcpmt:syserror.obj
 0001:00036334       ?_Winerror_map@std@@YAPBDH@Z 10037334 f   libcpmt:syserror.obj
 0001:0003635e       _GetFileVersionInfoSizeW@8 1003735e f   version:VERSION.dll
 0001:00036364       _GetFileVersionInfoW@16    10037364 f   version:VERSION.dll
 0001:0003636a       _RpcStringFreeW@4          1003736a f   Rpcrt4:RPCRT4.dll
 0001:00036370       _UuidCreate@4              10037370 f   Rpcrt4:RPCRT4.dll
 0001:00036376       _UuidToStringW@8           10037376 f   Rpcrt4:RPCRT4.dll
 0001:0003637c       _IsDebuggerPresent@0       1003737c f   kernel32:KERNEL32.dll
 0001:00036382       _EncodePointer@4           10037382 f   kernel32:KERNEL32.dll
 0001:00036388       _ExitProcess@4             10037388 f   kernel32:KERNEL32.dll
 0001:0003638e       _GetModuleHandleExW@12     1003738e f   kernel32:KERNEL32.dll
 0001:00036394       _AreFileApisANSI@0         10037394 f   kernel32:KERNEL32.dll
 0001:0003639a       _WideCharToMultiByte@32    1003739a f   kernel32:KERNEL32.dll
 0001:000363a0       _RtlUnwind@16              100373a0 f   kernel32:KERNEL32.dll
 0001:000363a6       _IsProcessorFeaturePresent@4 100373a6 f   kernel32:KERNEL32.dll
 0001:000363ac       _CreateThread@24           100373ac f   kernel32:KERNEL32.dll
 0001:000363b2       _ExitThread@4              100373b2 f   kernel32:KERNEL32.dll
 0001:000363b8       _SetConsoleCtrlHandler@8   100373b8 f   kernel32:KERNEL32.dll
 0001:000363be       _GetSystemTimeAsFileTime@4 100373be f   kernel32:KERNEL32.dll
 0001:000363c4       _HeapFree@12               100373c4 f   kernel32:KERNEL32.dll
 0001:000363ca       _HeapAlloc@12              100373ca f   kernel32:KERNEL32.dll
 0001:000363d0       _GetCommandLineA@0         100373d0 f   kernel32:KERNEL32.dll
 0001:000363d6       _FatalAppExitA@8           100373d6 f   kernel32:KERNEL32.dll
 0001:000363dc       _UnhandledExceptionFilter@4 100373dc f   kernel32:KERNEL32.dll
 0001:000363e2       _SetLastError@4            100373e2 f   kernel32:KERNEL32.dll
 0001:000363e8       _CreateEventW@16           100373e8 f   kernel32:KERNEL32.dll
 0001:000363ee       _Sleep@4                   100373ee f   kernel32:KERNEL32.dll
 0001:000363f4       _TlsAlloc@0                100373f4 f   kernel32:KERNEL32.dll
 0001:000363fa       _TlsGetValue@4             100373fa f   kernel32:KERNEL32.dll
 0001:00036400       _TlsSetValue@8             10037400 f   kernel32:KERNEL32.dll
 0001:00036406       _TlsFree@4                 10037406 f   kernel32:KERNEL32.dll
 0001:0003640c       _GetStartupInfoW@4         1003740c f   kernel32:KERNEL32.dll
 0001:00036412       _GetTickCount@0            10037412 f   kernel32:KERNEL32.dll
 0001:00036418       _CreateSemaphoreW@16       10037418 f   kernel32:KERNEL32.dll
 0001:0003641e       _GetStdHandle@4            1003741e f   kernel32:KERNEL32.dll
 0001:00036424       _WriteFile@20              10037424 f   kernel32:KERNEL32.dll
 0001:0003642a       _IsValidCodePage@4         1003742a f   kernel32:KERNEL32.dll
 0001:00036430       _GetACP@0                  10037430 f   kernel32:KERNEL32.dll
 0001:00036436       _GetOEMCP@0                10037436 f   kernel32:KERNEL32.dll
 0001:0003643c       _GetCPInfo@8               1003743c f   kernel32:KERNEL32.dll
 0001:00036442       _GetCurrentThread@0        10037442 f   kernel32:KERNEL32.dll
 0001:00036448       _HeapSize@12               10037448 f   kernel32:KERNEL32.dll
 0001:0003644e       _GetStringTypeW@16         1003744e f   kernel32:KERNEL32.dll
 0001:00036454       _GetTimeZoneInformation@4  10037454 f   kernel32:KERNEL32.dll
 0001:0003645a       _GetDateFormatW@24         1003745a f   kernel32:KERNEL32.dll
 0001:00036460       _GetTimeFormatW@24         10037460 f   kernel32:KERNEL32.dll
 0001:00036466       _CompareStringW@24         10037466 f   kernel32:KERNEL32.dll
 0001:0003646c       _LCMapStringW@24           1003746c f   kernel32:KERNEL32.dll
 0001:00036472       _GetLocaleInfoW@16         10037472 f   kernel32:KERNEL32.dll
 0001:00036478       _IsValidLocale@8           10037478 f   kernel32:KERNEL32.dll
 0001:0003647e       _GetUserDefaultLCID@0      1003747e f   kernel32:KERNEL32.dll
 0001:00036484       _EnumSystemLocalesW@8      10037484 f   kernel32:KERNEL32.dll
 0001:0003648a       _GetProcessHeap@0          1003748a f   kernel32:KERNEL32.dll
 0001:00036490       _HeapReAlloc@16            10037490 f   kernel32:KERNEL32.dll
 0001:00036496       _GetFileType@4             10037496 f   kernel32:KERNEL32.dll
 0001:0003649c       _GetModuleFileNameA@12     1003749c f   kernel32:KERNEL32.dll
 0001:000364a2       _QueryPerformanceCounter@4 100374a2 f   kernel32:KERNEL32.dll
 0001:000364a8       _GetEnvironmentStringsW@0  100374a8 f   kernel32:KERNEL32.dll
 0001:000364ae       _FreeEnvironmentStringsW@4 100374ae f   kernel32:KERNEL32.dll
 0001:000364b4       _GetConsoleCP@0            100374b4 f   kernel32:KERNEL32.dll
 0001:000364ba       _GetConsoleMode@8          100374ba f   kernel32:KERNEL32.dll
 0001:000364c0       _SetFilePointerEx@20       100374c0 f   kernel32:KERNEL32.dll
 0001:000364c6       _SetStdHandle@8            100374c6 f   kernel32:KERNEL32.dll
 0001:000364cc       _FlushFileBuffers@4        100374cc f   kernel32:KERNEL32.dll
 0001:000364d2       _WriteConsoleW@20          100374d2 f   kernel32:KERNEL32.dll
 0001:000364d8       _SetEndOfFile@4            100374d8 f   kernel32:KERNEL32.dll
 0001:000364de       _ReadFile@20               100374de f   kernel32:KERNEL32.dll
 0001:000364e4       _ReadConsoleW@20           100374e4 f   kernel32:KERNEL32.dll
 0001:000364ea       _SetEnvironmentVariableA@8 100374ea f   kernel32:KERNEL32.dll
 0002:00000000       __imp__RegQueryInfoKeyW@48 10038000     advapi32:ADVAPI32.dll
 0002:00000004       __imp__RegOpenKeyExW@20    10038004     advapi32:ADVAPI32.dll
 0002:00000008       __imp__RegEnumKeyExW@32    10038008     advapi32:ADVAPI32.dll
 0002:0000000c       __imp__RegDeleteValueW@8   1003800c     advapi32:ADVAPI32.dll
 0002:00000010       __imp__RegDeleteKeyW@8     10038010     advapi32:ADVAPI32.dll
 0002:00000014       __imp__RegCreateKeyExW@36  10038014     advapi32:ADVAPI32.dll
 0002:00000018       __imp__RegSetValueExW@24   10038018     advapi32:ADVAPI32.dll
 0002:0000001c       __imp__RegQueryValueExW@24 1003801c     advapi32:ADVAPI32.dll
 0002:00000020       __imp__RegOpenKeyW@12      10038020     advapi32:ADVAPI32.dll
 0002:00000024       __imp__RegCreateKeyW@12    10038024     advapi32:ADVAPI32.dll
 0002:00000028       __imp__RegCloseKey@4       10038028     advapi32:ADVAPI32.dll
 0002:0000002c       \177ADVAPI32_NULL_THUNK_DATA 1003802c     advapi32:ADVAPI32.dll
 0002:00000030       __imp__GetProcessId@4      10038030     kernel32:KERNEL32.dll
 0002:00000034       __imp__OpenThread@12       10038034     kernel32:KERNEL32.dll
 0002:00000038       __imp__GetLastError@0      10038038     kernel32:KERNEL32.dll
 0002:0000003c       __imp__GetThreadContext@8  1003803c     kernel32:KERNEL32.dll
 0002:00000040       __imp__SuspendThread@4     10038040     kernel32:KERNEL32.dll
 0002:00000044       __imp__ResumeThread@4      10038044     kernel32:KERNEL32.dll
 0002:00000048       __imp__CloseHandle@4       10038048     kernel32:KERNEL32.dll
 0002:0000004c       __imp__FormatMessageW@28   1003804c     kernel32:KERNEL32.dll
 0002:00000050       __imp__lstrlenW@4          10038050     kernel32:KERNEL32.dll
 0002:00000054       __imp__LoadLibraryW@4      10038054     kernel32:KERNEL32.dll
 0002:00000058       __imp__GetTempPathW@8      10038058     kernel32:KERNEL32.dll
 0002:0000005c       __imp__CreateFileW@28      1003805c     kernel32:KERNEL32.dll
 0002:00000060       __imp__DeleteFileW@4       10038060     kernel32:KERNEL32.dll
 0002:00000064       __imp__CreateToolhelp32Snapshot@8 10038064     kernel32:KERNEL32.dll
 0002:00000068       __imp__Thread32First@8     10038068     kernel32:KERNEL32.dll
 0002:0000006c       __imp__Thread32Next@8      1003806c     kernel32:KERNEL32.dll
 0002:00000070       __imp__InterlockedExchange@8 10038070     kernel32:KERNEL32.dll
 0002:00000074       __imp__FreeLibrary@4       10038074     kernel32:KERNEL32.dll
 0002:00000078       __imp__FlushInstructionCache@12 10038078     kernel32:KERNEL32.dll
 0002:0000007c       __imp__VirtualProtect@16   1003807c     kernel32:KERNEL32.dll
 0002:00000080       __imp__VirtualQuery@12     10038080     kernel32:KERNEL32.dll
 0002:00000084       __imp__OpenProcess@12      10038084     kernel32:KERNEL32.dll
 0002:00000088       __imp__TerminateProcess@8  10038088     kernel32:KERNEL32.dll
 0002:0000008c       __imp__SetUnhandledExceptionFilter@4 1003808c     kernel32:KERNEL32.dll
 0002:00000090       __imp__SetErrorMode@4      10038090     kernel32:KERNEL32.dll
 0002:00000094       __imp__DebugBreak@0        10038094     kernel32:KERNEL32.dll
 0002:00000098       __imp__WaitForSingleObject@8 10038098     kernel32:KERNEL32.dll
 0002:0000009c       __imp__GetSystemTime@4     1003809c     kernel32:KERNEL32.dll
 0002:000000a0       __imp__GetCurrentThreadId@0 100380a0     kernel32:KERNEL32.dll
 0002:000000a4       __imp__lstrlenA@4          100380a4     kernel32:KERNEL32.dll
 0002:000000a8       __imp__GetModuleFileNameW@12 100380a8     kernel32:KERNEL32.dll
 0002:000000ac       __imp__GetModuleHandleW@4  100380ac     kernel32:KERNEL32.dll
 0002:000000b0       __imp__CreateProcessW@40   100380b0     kernel32:KERNEL32.dll
 0002:000000b4       __imp__OutputDebugStringW@4 100380b4     kernel32:KERNEL32.dll
 0002:000000b8       __imp__WritePrivateProfileStringW@16 100380b8     kernel32:KERNEL32.dll
 0002:000000bc       __imp__DecodePointer@4     100380bc     kernel32:KERNEL32.dll
 0002:000000c0       __imp__RaiseException@16   100380c0     kernel32:KERNEL32.dll
 0002:000000c4       __imp__EnterCriticalSection@4 100380c4     kernel32:KERNEL32.dll
 0002:000000c8       __imp__LeaveCriticalSection@4 100380c8     kernel32:KERNEL32.dll
 0002:000000cc       __imp__InitializeCriticalSectionAndSpinCount@8 100380cc     kernel32:KERNEL32.dll
 0002:000000d0       __imp__DeleteCriticalSection@4 100380d0     kernel32:KERNEL32.dll
 0002:000000d4       __imp__LoadResource@8      100380d4     kernel32:KERNEL32.dll
 0002:000000d8       __imp__SizeofResource@8    100380d8     kernel32:KERNEL32.dll
 0002:000000dc       __imp__lstrcmpiW@8         100380dc     kernel32:KERNEL32.dll
 0002:000000e0       __imp__LoadLibraryExW@12   100380e0     kernel32:KERNEL32.dll
 0002:000000e4       __imp__FindResourceW@12    100380e4     kernel32:KERNEL32.dll
 0002:000000e8       __imp__MultiByteToWideChar@24 100380e8     kernel32:KERNEL32.dll
 0002:000000ec       __imp__FlushFileBuffers@4  100380ec     kernel32:KERNEL32.dll
 0002:000000f0       __imp__SetStdHandle@8      100380f0     kernel32:KERNEL32.dll
 0002:000000f4       __imp__SetFilePointerEx@20 100380f4     kernel32:KERNEL32.dll
 0002:000000f8       __imp__GetConsoleMode@8    100380f8     kernel32:KERNEL32.dll
 0002:000000fc       __imp__GetConsoleCP@0      100380fc     kernel32:KERNEL32.dll
 0002:00000100       __imp__FreeEnvironmentStringsW@4 10038100     kernel32:KERNEL32.dll
 0002:00000104       __imp__GetEnvironmentStringsW@0 10038104     kernel32:KERNEL32.dll
 0002:00000108       __imp__QueryPerformanceCounter@4 10038108     kernel32:KERNEL32.dll
 0002:0000010c       __imp__GetModuleFileNameA@12 1003810c     kernel32:KERNEL32.dll
 0002:00000110       __imp__GetCurrentProcessId@0 10038110     kernel32:KERNEL32.dll
 0002:00000114       __imp__GetCurrentProcess@0 10038114     kernel32:KERNEL32.dll
 0002:00000118       __imp__LocalFree@4         10038118     kernel32:KERNEL32.dll
 0002:0000011c       __imp__GetProcAddress@8    1003811c     kernel32:KERNEL32.dll
 0002:00000120       __imp__InterlockedDecrement@4 10038120     kernel32:KERNEL32.dll
 0002:00000124       __imp__InterlockedIncrement@4 10038124     kernel32:KERNEL32.dll
 0002:00000128       __imp__WriteConsoleW@20    10038128     kernel32:KERNEL32.dll
 0002:0000012c       __imp__SetEndOfFile@4      1003812c     kernel32:KERNEL32.dll
 0002:00000130       __imp__ReadFile@20         10038130     kernel32:KERNEL32.dll
 0002:00000134       __imp__ReadConsoleW@20     10038134     kernel32:KERNEL32.dll
 0002:00000138       __imp__SetEnvironmentVariableA@8 10038138     kernel32:KERNEL32.dll
 0002:0000013c       __imp__SystemTimeToFileTime@8 1003813c     kernel32:KERNEL32.dll
 0002:00000140       __imp__GetFileType@4       10038140     kernel32:KERNEL32.dll
 0002:00000144       __imp__HeapReAlloc@16      10038144     kernel32:KERNEL32.dll
 0002:00000148       __imp__GetProcessHeap@0    10038148     kernel32:KERNEL32.dll
 0002:0000014c       __imp__EnumSystemLocalesW@8 1003814c     kernel32:KERNEL32.dll
 0002:00000150       __imp__GetUserDefaultLCID@0 10038150     kernel32:KERNEL32.dll
 0002:00000154       __imp__IsValidLocale@8     10038154     kernel32:KERNEL32.dll
 0002:00000158       __imp__GetLocaleInfoW@16   10038158     kernel32:KERNEL32.dll
 0002:0000015c       __imp__LCMapStringW@24     1003815c     kernel32:KERNEL32.dll
 0002:00000160       __imp__CompareStringW@24   10038160     kernel32:KERNEL32.dll
 0002:00000164       __imp__GetTimeFormatW@24   10038164     kernel32:KERNEL32.dll
 0002:00000168       __imp__GetDateFormatW@24   10038168     kernel32:KERNEL32.dll
 0002:0000016c       __imp__GetTimeZoneInformation@4 1003816c     kernel32:KERNEL32.dll
 0002:00000170       __imp__GetStringTypeW@16   10038170     kernel32:KERNEL32.dll
 0002:00000174       __imp__HeapSize@12         10038174     kernel32:KERNEL32.dll
 0002:00000178       __imp__GetCurrentThread@0  10038178     kernel32:KERNEL32.dll
 0002:0000017c       __imp__IsDebuggerPresent@0 1003817c     kernel32:KERNEL32.dll
 0002:00000180       __imp__EncodePointer@4     10038180     kernel32:KERNEL32.dll
 0002:00000184       __imp__ExitProcess@4       10038184     kernel32:KERNEL32.dll
 0002:00000188       __imp__GetModuleHandleExW@12 10038188     kernel32:KERNEL32.dll
 0002:0000018c       __imp__AreFileApisANSI@0   1003818c     kernel32:KERNEL32.dll
 0002:00000190       __imp__WideCharToMultiByte@32 10038190     kernel32:KERNEL32.dll
 0002:00000194       __imp__RtlUnwind@16        10038194     kernel32:KERNEL32.dll
 0002:00000198       __imp__IsProcessorFeaturePresent@4 10038198     kernel32:KERNEL32.dll
 0002:0000019c       __imp__CreateThread@24     1003819c     kernel32:KERNEL32.dll
 0002:000001a0       __imp__ExitThread@4        100381a0     kernel32:KERNEL32.dll
 0002:000001a4       __imp__SetConsoleCtrlHandler@8 100381a4     kernel32:KERNEL32.dll
 0002:000001a8       __imp__GetSystemTimeAsFileTime@4 100381a8     kernel32:KERNEL32.dll
 0002:000001ac       __imp__HeapFree@12         100381ac     kernel32:KERNEL32.dll
 0002:000001b0       __imp__HeapAlloc@12        100381b0     kernel32:KERNEL32.dll
 0002:000001b4       __imp__GetCommandLineA@0   100381b4     kernel32:KERNEL32.dll
 0002:000001b8       __imp__FatalAppExitA@8     100381b8     kernel32:KERNEL32.dll
 0002:000001bc       __imp__UnhandledExceptionFilter@4 100381bc     kernel32:KERNEL32.dll
 0002:000001c0       __imp__SetLastError@4      100381c0     kernel32:KERNEL32.dll
 0002:000001c4       __imp__CreateEventW@16     100381c4     kernel32:KERNEL32.dll
 0002:000001c8       __imp__Sleep@4             100381c8     kernel32:KERNEL32.dll
 0002:000001cc       __imp__TlsAlloc@0          100381cc     kernel32:KERNEL32.dll
 0002:000001d0       __imp__TlsGetValue@4       100381d0     kernel32:KERNEL32.dll
 0002:000001d4       __imp__TlsSetValue@8       100381d4     kernel32:KERNEL32.dll
 0002:000001d8       __imp__TlsFree@4           100381d8     kernel32:KERNEL32.dll
 0002:000001dc       __imp__GetStartupInfoW@4   100381dc     kernel32:KERNEL32.dll
 0002:000001e0       __imp__GetTickCount@0      100381e0     kernel32:KERNEL32.dll
 0002:000001e4       __imp__CreateSemaphoreW@16 100381e4     kernel32:KERNEL32.dll
 0002:000001e8       __imp__GetStdHandle@4      100381e8     kernel32:KERNEL32.dll
 0002:000001ec       __imp__WriteFile@20        100381ec     kernel32:KERNEL32.dll
 0002:000001f0       __imp__IsValidCodePage@4   100381f0     kernel32:KERNEL32.dll
 0002:000001f4       __imp__GetACP@0            100381f4     kernel32:KERNEL32.dll
 0002:000001f8       __imp__GetOEMCP@0          100381f8     kernel32:KERNEL32.dll
 0002:000001fc       __imp__GetCPInfo@8         100381fc     kernel32:KERNEL32.dll
 0002:00000200       \177KERNEL32_NULL_THUNK_DATA 10038200     kernel32:KERNEL32.dll
 0002:00000204       __imp__SysFreeString@4     10038204     oleaut32:OLEAUT32.dll
 0002:00000208       __imp__VarUI4FromStr@16    10038208     oleaut32:OLEAUT32.dll
 0002:0000020c       \177OLEAUT32_NULL_THUNK_DATA 1003820c     oleaut32:OLEAUT32.dll
 0002:00000210       __imp__RpcStringFreeW@4    10038210     Rpcrt4:RPCRT4.dll
 0002:00000214       __imp__UuidCreate@4        10038214     Rpcrt4:RPCRT4.dll
 0002:00000218       __imp__UuidToStringW@8     10038218     Rpcrt4:RPCRT4.dll
 0002:0000021c       \177RPCRT4_NULL_THUNK_DATA 1003821c     Rpcrt4:RPCRT4.dll
 0002:00000220       __imp__PathAppendW@8       10038220     shlwapi:SHLWAPI.dll
 0002:00000224       __imp__PathRemoveExtensionW@4 10038224     shlwapi:SHLWAPI.dll
 0002:00000228       __imp__PathStripPathW@4    10038228     shlwapi:SHLWAPI.dll
 0002:0000022c       __imp__PathFileExistsW@4   1003822c     shlwapi:SHLWAPI.dll
 0002:00000230       \177SHLWAPI_NULL_THUNK_DATA 10038230     shlwapi:SHLWAPI.dll
 0002:00000234       __imp__wvsprintfW@12       10038234     user32:USER32.dll
 0002:00000238       __imp__MessageBoxW@16      10038238     user32:USER32.dll
 0002:0000023c       __imp__LoadStringW@16      1003823c     user32:USER32.dll
 0002:00000240       __imp__UnregisterClassW@8  10038240     user32:USER32.dll
 0002:00000244       __imp__DestroyWindow@4     10038244     user32:USER32.dll
 0002:00000248       __imp__CharNextW@4         10038248     user32:USER32.dll
 0002:0000024c       __imp__CharLowerW@4        1003824c     user32:USER32.dll
 0002:00000250       __imp__CharUpperW@4        10038250     user32:USER32.dll
 0002:00000254       \177USER32_NULL_THUNK_DATA 10038254     user32:USER32.dll
 0002:00000258       __imp__GetFileVersionInfoW@16 10038258     version:VERSION.dll
 0002:0000025c       __imp__GetFileVersionInfoSizeW@8 1003825c     version:VERSION.dll
 0002:00000260       \177VERSION_NULL_THUNK_DATA 10038260     version:VERSION.dll
 0002:00000264       __imp__CoTaskMemFree@4     10038264     ole32:ole32.dll
 0002:00000268       __imp__CoTaskMemAlloc@4    10038268     ole32:ole32.dll
 0002:0000026c       __imp__CoTaskMemRealloc@8  1003826c     ole32:ole32.dll
 0002:00000270       __imp__CoCreateInstance@20 10038270     ole32:ole32.dll
 0002:00000274       \177ole32_NULL_THUNK_DATA  10038274     ole32:ole32.dll
 0002:00000278       ___xc_a                    10038278     LIBCMT:crt0init.obj
 0002:0000029c       ___xc_z                    1003829c     LIBCMT:crt0init.obj
 0002:000002a0       ___xi_a                    100382a0     LIBCMT:crt0init.obj
 0002:000002b4       ___xi_z                    100382b4     LIBCMT:crt0init.obj
 0002:000002b8       ___xp_a                    100382b8     LIBCMT:crt0init.obj
 0002:000002c8       ___xp_z                    100382c8     LIBCMT:crt0init.obj
 0002:000002cc       ___xt_a                    100382cc     LIBCMT:crt0init.obj
 0002:000002d0       ___xt_z                    100382d0     LIBCMT:crt0init.obj
 0002:00000318       ??_C@_11LOCGONAA@?$AA?$AA@ 10038318     BugSplatImp.obj
 0002:00000320       ??_7MiniDmpSender@@6B@     10038320     BugSplatImp.obj
 0002:00000328       ??_C@_1GG@PLLCJGPI@?$AAC?$AAr?$AAa?$AAs?$AAh?$AA?5?$AAR?$AAe?$AAp?$AAo?$AAr?$AAt?$AA?5?$AAc?$AAr?$AAe?$AAa?$AAt?$AAi?$AAo?$AAn?$AA?5?$AAf?$AAa?$AAi?$AAl?$AAe?$AAd?$AA?5?$AAw?$AAi?$AAt@ 10038328     BugSplatImp.obj
 0002:00000390       ??_C@_1M@ILHOPKA@?$AAE?$AAr?$AAr?$AAo?$AAr?$AA?$AA@ 10038390     BugSplatImp.obj
 0002:0000039c       ??_C@_1BI@NIJBKGEB@?$AAD?$AAB?$AAG?$AAH?$AAE?$AAL?$AAP?$AA?4?$AAD?$AAL?$AAL?$AA?$AA@ 1003839c     BugSplatImp.obj
 0002:000003b4       ??_C@_0BC@MNIKNFKD@MiniDumpWriteDump?$AA@ 100383b4     BugSplatImp.obj
 0002:000003c8       ??_C@_1BC@BBCPEFMB@?$AAC?$AA?3?$AA?2?$AAt?$AAe?$AAm?$AAp?$AA?2?$AA?$AA@ 100383c8     BugSplatImp.obj
 0002:000003dc       ??_C@_19MGBFLGLD@?$AA?4?$AAd?$AAm?$AAp?$AA?$AA@ 100383dc     BugSplatImp.obj
 0002:000003e8       ??_C@_1DC@BCFFPHMD@?$AAF?$AAu?$AAl?$AAl?$AA?5?$AAM?$AAe?$AAm?$AAo?$AAr?$AAy?$AA?5?$AAD?$AAu?$AAm?$AAp?$AA?5?$AAC?$AAr?$AAe?$AAa?$AAt?$AAe?$AAd?$AA?$AA@ 100383e8     BugSplatImp.obj
 0002:0000041c       ??_C@_13IMODFHAA@?$AA?9?$AA?$AA@ 1003841c     BugSplatImp.obj
 0002:00000420       ??_C@_1BK@MGMFAEKH@?$AAk?$AAe?$AAr?$AAn?$AAe?$AAl?$AA3?$AA2?$AA?4?$AAd?$AAl?$AAl?$AA?$AA@ 10038420     mdump.obj
 0002:00000440       ??_C@_1KI@GMMPKHFI@?$AAF?$AAl?$AAo?$AAa?$AAt?$AAi?$AAn?$AAg?$AA?5?$AAp?$AAo?$AAi?$AAn?$AAt?$AA?5?$AA?$CI?$AA?$CF?$AA?$CF?$AAe?$AA?0?$AA?5?$AA?$CF?$AA?$CF?$AAf?$AA?0?$AA?5?$AA?$CF?$AA?$CF?$AAg?$AA?0?$AA?5?$AAa@ 10038440     mdump.obj
 0002:000004ec       ??_7error_category@std@@6B@ 100384ec     mdump.obj
 0002:00000508       ??_7_Generic_error_category@std@@6B@ 10038508     mdump.obj
 0002:00000520       ??_C@_07DCLBNMLN@generic?$AA@ 10038520     mdump.obj
 0002:00000528       ??_C@_0O@BFJCFAAK@unknown?5error?$AA@ 10038528     mdump.obj
 0002:0000053c       ??_7_Iostream_error_category@std@@6B@ 1003853c     mdump.obj
 0002:00000554       ??_C@_08LLGCOLLL@iostream?$AA@ 10038554     mdump.obj
 0002:00000560       ??_C@_0BG@PADBLCHM@iostream?5stream?5error?$AA@ 10038560     mdump.obj
 0002:0000057c       ??_7_System_error_category@std@@6B@ 1003857c     mdump.obj
 0002:00000594       ??_C@_06FHFOAHML@system?$AA@ 10038594     mdump.obj
 0002:0000059c       ??_C@_1BI@HELBLNDD@?$AAL?$AAa?$AAu?$AAn?$AAc?$AAh?$AAC?$AAo?$AAu?$AAn?$AAt?$AA?$AA@ 1003859c     mdump.obj
 0002:000005b4       ??_C@_1CM@NJBBPIEO@?$AAL?$AAa?$AAu?$AAn?$AAc?$AAh?$AAT?$AAo?$AAL?$AAa?$AAs?$AAt?$AAC?$AAr?$AAa?$AAs?$AAh?$AAT?$AAi?$AAm?$AAe?$AA?$AA@ 100385b4     mdump.obj
 0002:000005e0       ??_C@_1BI@OKGHLGBA@?$AAT?$AAo?$AAt?$AAa?$AAl?$AAU?$AAp?$AAt?$AAi?$AAm?$AAe?$AA?$AA@ 100385e0     mdump.obj
 0002:000005f8       ??_C@_1BG@LFFNPJIB@?$AAC?$AAr?$AAa?$AAs?$AAh?$AAC?$AAo?$AAu?$AAn?$AAt?$AA?$AA@ 100385f8     mdump.obj
 0002:00000614       ??_7MiniDumper@@6B@        10038614     mdump.obj
 0002:00000618       ??_C@_1CE@IEOLOJPC@?$AA?$CF?$AAY?$AA?9?$AA?$CF?$AAm?$AA?9?$AA?$CF?$AAd?$AA?5?$AA?$CF?$AAH?$AA?3?$AA?$CF?$AAM?$AA?3?$AA?$CF?$AAS?$AA?$AA@ 10038618     mdump.obj
 0002:0000063c       ??_C@_1CO@MOGDADLF@?$AA?$AN?$AA?6?$AAB?$AAu?$AAg?$AAS?$AAp?$AAl?$AAa?$AAt?$AA?4?$AAd?$AAl?$AAl?$AA?3?$AA?5?$AA?$CF?$AAs?$AA?5?$AA?5?$AA?$CF?$AAs?$AA?$AA@ 1003863c     mdump.obj
 0002:00000670       ??_C@_1FI@MFMJIGAL@?$AA?$AN?$AA?6?$AAB?$AAu?$AAg?$AAS?$AAp?$AAl?$AAa?$AAt?$AA?4?$AAd?$AAl?$AAl?$AA?3?$AA?5?$AA?5?$AA?5?$AA?5?$AA?5?$AA?5?$AA?5?$AA?5?$AA?5?$AA?5?$AA?5?$AA?5?$AA?5?$AA?5?$AA?5?$AA?5?$AA?5@ 10038670     mdump.obj
 0002:000006c8       ??_C@_13CIFDLIMG@?$AAw?$AA?$AA@ 100386c8     mdump.obj
 0002:000006cc       ??_C@_1CC@OJBCKLND@?$AA?$AN?$AA?6?$AAB?$AAu?$AAg?$AAS?$AAp?$AAl?$AAa?$AAt?$AA?4?$AAd?$AAl?$AAl?$AA?3?$AA?5?$AA?$AA@ 100386cc     mdump.obj
 0002:000006f0       ??_C@_15OJKDPEFE@?$AA?5?$AA?5?$AA?$AA@ 100386f0     mdump.obj
 0002:000006f8       ??_C@_1FE@PLPGIOKG@?$AA?$AN?$AA?6?$AAB?$AAu?$AAg?$AAS?$AAp?$AAl?$AAa?$AAt?$AA?4?$AAd?$AAl?$AAl?$AA?3?$AA?5?$AA?5?$AA?5?$AA?5?$AA?5?$AA?5?$AA?5?$AA?5?$AA?5?$AA?5?$AA?5?$AA?5?$AA?5?$AA?5?$AA?5?$AA?5?$AA?5@ 100386f8     mdump.obj
 0002:0000074c       ??_C@_1CE@PHFMIAMD@?$AAS?$AAo?$AAf?$AAt?$AAw?$AAa?$AAr?$AAe?$AA?2?$AAB?$AAu?$AAg?$AAS?$AAp?$AAl?$AAa?$AAt?$AA?$AA@ 1003874c     mdump.obj
 0002:00000770       ??_C@_1DG@NCHODJD@?$AAS?$AAo?$AAf?$AAt?$AAw?$AAa?$AAr?$AAe?$AA?2?$AAB?$AAu?$AAg?$AAS?$AAp?$AAl?$AAa?$AAt?$AA?2?$AA?$CF?$AAs?$AA?2?$AA?$CF?$AAs?$AA?2?$AA?$CF?$AAs?$AA?$AA@ 10038770     mdump.obj
 0002:000007a8       ??_C@_1M@OPFBIOCF@?$AAD?$AAe?$AAb?$AAu?$AAg?$AA?$AA@ 100387a8     mdump.obj
 0002:000007b4       ??_C@_1BK@OOGBCOHN@?$AAb?$AAu?$AAg?$AAs?$AAp?$AAl?$AAa?$AAt?$AA?4?$AAl?$AAo?$AAg?$AA?$AA@ 100387b4     mdump.obj
 0002:000007d0       ??_C@_19INNJIIDO@?$AAF?$AAr?$AAe?$AAd?$AA?$AA@ 100387d0     mdump.obj
 0002:000007dc       ??_C@_1BC@MPKNINKL@?$AAF?$AAr?$AAe?$AAd?$AAs?$AAA?$AAp?$AAp?$AA?$AA@ 100387dc     mdump.obj
 0002:000007f0       ??_C@_17BODHOPJC@?$AA1?$AA?4?$AA0?$AA?$AA@ 100387f0     mdump.obj
 0002:000007f8       ??_C@_1CC@FGLAJBGE@?$AAW?$AAa?$AAi?$AAt?$AAC?$AAr?$AAe?$AAa?$AAt?$AAe?$AAR?$AAe?$AAp?$AAo?$AAr?$AAt?$AA?$AA@ 100387f8     mdump.obj
 0002:0000081c       ??_C@_1BO@CJKFEFGL@?$AAW?$AAa?$AAi?$AAt?$AAS?$AAe?$AAn?$AAd?$AAR?$AAe?$AAp?$AAo?$AAr?$AAt?$AA?$AA@ 1003881c     mdump.obj
 0002:0000083c       ??_C@_0BM@EBDAABIF@SetUnhandledExceptionFilter?$AA@ 1003883c     mdump.obj
 0002:00000860       ??_C@_1BO@MMODFBLC@?$AAB?$AAu?$AAg?$AAS?$AAp?$AAl?$AAa?$AAt?$AAR?$AAc?$AA?4?$AAd?$AAl?$AAl?$AA?$AA@ 10038860     mdump.obj
 0002:00000880       ??_C@_1EE@DIICHLMF@?$AAB?$AAu?$AAg?$AAS?$AAp?$AAl?$AAa?$AAt?$AAR?$AAC?$AA?5?$AAr?$AAe?$AAs?$AAo?$AAu?$AAr?$AAc?$AAe?$AA?5?$AAD?$AAL?$AAL?$AA?5?$AAn?$AAo?$AAt?$AA?5?$AAf?$AAo?$AAu?$AAn@ 10038880     mdump.obj
 0002:000008c4       ??_C@_1BE@IOCEGDOC@?$AAN?$AAo?$AAt?$AA?5?$AAf?$AAo?$AAu?$AAn?$AAd?$AA?$AA@ 100388c4     mdump.obj
 0002:000008d8       ??_C@_1BK@FOGOCOFJ@?$AAB?$AAs?$AAS?$AAn?$AAd?$AAR?$AAp?$AAt?$AA?4?$AAe?$AAx?$AAe?$AA?$AA@ 100388d8     mdump.obj
 0002:000008f4       ??_C@_1BK@JGJIGFCI@?$AAB?$AAs?$AAS?$AAn?$AAd?$AAR?$AAp?$AAt?$AA?4?$AAi?$AAn?$AAi?$AA?$AA@ 100388f4     mdump.obj
 0002:00000910       ??_C@_19GABABGMH@?$AA?1?$AAi?$AA?5?$AA?$CC?$AA?$AA@ 10038910     mdump.obj
 0002:0000091c       ??_C@_15KEGLFFFP@?$AA?$CC?$AA?5?$AA?$AA@ 1003891c     mdump.obj
 0002:00000924       ??_C@_1CA@EIMFAOLL@?$AAw?$AA?$CL?$AA?0?$AAc?$AAc?$AAs?$AA?$DN?$AAU?$AAT?$AAF?$AA?9?$AA1?$AA6?$AAL?$AAE?$AA?$AA@ 10038924     mdump.obj
 0002:00000944       ??_C@_1O@OCGHFCBB@?$AAV?$AAe?$AAn?$AAd?$AAo?$AAr?$AA?$AA@ 10038944     mdump.obj
 0002:00000954       ??_C@_1BC@HGIPDDBD@?$AAB?$AAu?$AAg?$AAS?$AAp?$AAl?$AAa?$AAt?$AA?$AA@ 10038954     mdump.obj
 0002:00000968       ??_C@_1BI@JBDNBBGL@?$AAA?$AAp?$AAp?$AAl?$AAi?$AAc?$AAa?$AAt?$AAi?$AAo?$AAn?$AA?$AA@ 10038968     mdump.obj
 0002:00000980       ??_C@_1BA@LIACFDLB@?$AAV?$AAe?$AAr?$AAs?$AAi?$AAo?$AAn?$AA?$AA@ 10038980     mdump.obj
 0002:00000990       ??_C@_1BO@JJBEILLJ@?$AAW?$AAi?$AAn?$AAd?$AAo?$AAw?$AAs?$AA?4?$AAN?$AAa?$AAt?$AAi?$AAv?$AAe?$AA?$AA@ 10038990     mdump.obj
 0002:000009b0       ??_C@_1BE@INIEEAGC@?$AAC?$AAr?$AAa?$AAs?$AAh?$AAT?$AAy?$AAp?$AAe?$AA?$AA@ 100389b0     mdump.obj
 0002:000009c4       ??_C@_1BC@GLPBAEGG@?$AAM?$AAi?$AAn?$AAi?$AAD?$AAu?$AAm?$AAp?$AA?$AA@ 100389c4     mdump.obj
 0002:000009d8       ??_C@_17NCOMCBID@?$AAM?$AAF?$AAA?$AA?$AA@ 100389d8     mdump.obj
 0002:000009e0       ??_C@_1BI@DLMANABL@?$AAD?$AAe?$AAs?$AAc?$AAr?$AAi?$AAp?$AAt?$AAi?$AAo?$AAn?$AA?$AA@ 100389e0     mdump.obj
 0002:000009f8       ??_C@_19PIJILKAI@?$AAU?$AAs?$AAe?$AAr?$AA?$AA@ 100389f8     mdump.obj
 0002:00000a04       ??_C@_1M@EKLJMALM@?$AAE?$AAm?$AAa?$AAi?$AAl?$AA?$AA@ 10038a04     mdump.obj
 0002:00000a10       ??_C@_1CA@MIGDIAA@?$AAU?$AAs?$AAe?$AAr?$AAD?$AAe?$AAs?$AAc?$AAr?$AAi?$AAp?$AAt?$AAi?$AAo?$AAn?$AA?$AA@ 10038a10     mdump.obj
 0002:00000a30       ??_C@_1BI@BMIEGOLH@?$AAL?$AAo?$AAg?$AAF?$AAi?$AAl?$AAe?$AAP?$AAa?$AAt?$AAh?$AA?$AA@ 10038a30     mdump.obj
 0002:00000a48       ??_C@_1BI@GJJPHGA@?$AAU?$AAs?$AAe?$AAr?$AAZ?$AAi?$AAp?$AAP?$AAa?$AAt?$AAh?$AA?$AA@ 10038a48     mdump.obj
 0002:00000a60       ??_C@_1CA@LFLBLFPJ@?$AAR?$AAe?$AAs?$AAo?$AAu?$AAr?$AAc?$AAe?$AAD?$AAl?$AAl?$AAP?$AAa?$AAt?$AAh?$AA?$AA@ 10038a60     mdump.obj
 0002:00000a80       ??_C@_19GBMGDAIM@?$AA?$CC?$AA?$CF?$AAs?$AA?$CC?$AA?$AA@ 10038a80     mdump.obj
 0002:00000a8c       ??_C@_1O@FDEGFBLE@?$AAD?$AAo?$AAt?$AAN?$AAe?$AAt?$AA?$AA@ 10038a8c     mdump.obj
 0002:00000a9c       ??_C@_1CC@KPBKAKMH@?$AAA?$AAd?$AAd?$AAi?$AAt?$AAi?$AAo?$AAn?$AAa?$AAl?$AAF?$AAi?$AAl?$AAe?$AA?$CF?$AAd?$AA?$AA@ 10038a9c     mdump.obj
 0002:00000ac0       ??_C@_17EGNCDCNK@?$AA?5?$AA?1?$AAq?$AA?$AA@ 10038ac0     mdump.obj
 0002:00000ac8       ??_C@_19JBOLOBFE@?$AA?5?$AA?1?$AAd?$AAl?$AA?$AA@ 10038ac8     mdump.obj
 0002:00000ad4       ??_C@_19MJIIPBAC@?$AA?5?$AA?1?$AAd?$AAc?$AA?$AA@ 10038ad4     mdump.obj
 0002:00000ae0       ??_C@_1BA@FPNIFEJ@?$AA?$CC?$AA?$CF?$AAs?$AA?$CC?$AA?5?$AA?$CF?$AAs?$AA?$AA@ 10038ae0     mdump.obj
 0002:00000af0       ??_C@_1BC@OIGJFGGK@?$AA?$CF?$AAs?$AA?$CB?$AA?$CF?$AA0?$AA8?$AAl?$AAx?$AA?$AA@ 10038af0     mdump.obj
 0002:00000b04       ??_C@_15GANGMFKL@?$AA?$CF?$AAs?$AA?$AA@ 10038b04     mdump.obj
 0002:00000b10       ??_C@_1FM@LALEPLDC@?$AAB?$AAu?$AAg?$AAS?$AAp?$AAl?$AAa?$AAt?$AAH?$AAD?$AA?4?$AAe?$AAx?$AAe?$AA?5?$AA?1?$AAp?$AA?5?$AA?$CF?$AAl?$AAd?$AA?5?$AA?1?$AAc?$AA?5?$AA?$CC?$AA?$CF?$AAs?$AA?$CC?$AA?5?$AA?1?$AAa@ 10038b10     mdump.obj
 0002:00000b6c       ??_C@_1M@HLHLHGPH@?$AA?5?$AA?1?$AAd?$AA?5?$AA?$CC?$AA?$AA@ 10038b6c     mdump.obj
 0002:00000b78       ??_C@_13NEIAEHFG@?$AA?$CC?$AA?$AA@ 10038b78     mdump.obj
 0002:00000b7c       ??_C@_0BA@JFNIOLAK@string?5too?5long?$AA@ 10038b7c     mdump.obj
 0002:00000b8c       ??_C@_0BI@CFPLBAOH@invalid?5string?5position?$AA@ 10038b8c     mdump.obj
 0002:00000ba4       ??_C@_0BD@OLBABOEK@vector?$DMT?$DO?5too?5long?$AA@ 10038ba4     mdump.obj
 0002:00000bb8       ??_C@_1M@EJNEECMJ@?$AAA?$AAp?$AAp?$AAI?$AAD?$AA?$AA@ 10038bb8     sbSenderApp.obj
 0002:00000bc4       ?szStringVal@ATL@@3QB_WB   10038bc4     sbSenderApp.obj
 0002:00000bc8       ??_C@_13HADIAKP@?$AAS?$AA?$AA@ 10038bc8     sbSenderApp.obj
 0002:00000bcc       ?multiszStringVal@ATL@@3QB_WB 10038bcc     sbSenderApp.obj
 0002:00000bd0       ??_C@_13LHMFKAAD@?$AAM?$AA?$AA@ 10038bd0     sbSenderApp.obj
 0002:00000bd4       ?szDwordVal@ATL@@3QB_WB    10038bd4     sbSenderApp.obj
 0002:00000bd8       ??_C@_13MKMNOPIJ@?$AAD?$AA?$AA@ 10038bd8     sbSenderApp.obj
 0002:00000bdc       ?szBinaryVal@ATL@@3QB_WB   10038bdc     sbSenderApp.obj
 0002:00000be0       ??_C@_13OPKGLAFF@?$AAB?$AA?$AA@ 10038be0     sbSenderApp.obj
 0002:00000be4       ?szValToken@ATL@@3QB_WB    10038be4     sbSenderApp.obj
 0002:00000be8       ??_C@_17LLMMEOJD@?$AAV?$AAa?$AAl?$AA?$AA@ 10038be8     sbSenderApp.obj
 0002:00000bf0       ?szForceRemove@ATL@@3QB_WB 10038bf0     sbSenderApp.obj
 0002:00000bf4       ??_C@_1BI@JFAIJMHL@?$AAF?$AAo?$AAr?$AAc?$AAe?$AAR?$AAe?$AAm?$AAo?$AAv?$AAe?$AA?$AA@ 10038bf4     sbSenderApp.obj
 0002:00000c0c       ?szNoRemove@ATL@@3QB_WB    10038c0c     sbSenderApp.obj
 0002:00000c10       ??_C@_1BC@GCKHIPE@?$AAN?$AAo?$AAR?$AAe?$AAm?$AAo?$AAv?$AAe?$AA?$AA@ 10038c10     sbSenderApp.obj
 0002:00000c24       ?szDelete@ATL@@3QB_WB      10038c24     sbSenderApp.obj
 0002:00000c28       ??_C@_1O@JDLOHAN@?$AAD?$AAe?$AAl?$AAe?$AAt?$AAe?$AA?$AA@ 10038c28     sbSenderApp.obj
 0002:00000c38       ?rgszNeverDelete@CRegParser@ATL@@1QBQB_WB 10038c38     sbSenderApp.obj
 0002:00000c68       ??_C@_1CK@OEKPKBNA@?$AAC?$AAo?$AAm?$AAp?$AAo?$AAn?$AAe?$AAn?$AAt?$AA?5?$AAC?$AAa?$AAt?$AAe?$AAg?$AAo?$AAr?$AAi?$AAe?$AAs?$AA?$AA@ 10038c68     sbSenderApp.obj
 0002:00000c94       ??_C@_1BC@NKMMNMGL@?$AAF?$AAi?$AAl?$AAe?$AAT?$AAy?$AAp?$AAe?$AA?$AA@ 10038c94     sbSenderApp.obj
 0002:00000ca8       ??_C@_1BE@EKPAFMCP@?$AAI?$AAn?$AAt?$AAe?$AAr?$AAf?$AAa?$AAc?$AAe?$AA?$AA@ 10038ca8     sbSenderApp.obj
 0002:00000cbc       ??_C@_1BC@MAICEHGI@?$AAH?$AAa?$AAr?$AAd?$AAw?$AAa?$AAr?$AAe?$AA?$AA@ 10038cbc     sbSenderApp.obj
 0002:00000cd0       ??_C@_19HLLLM@?$AAM?$AAi?$AAm?$AAe?$AA?$AA@ 10038cd0     sbSenderApp.obj
 0002:00000cdc       ??_C@_17OMAOINJK@?$AAS?$AAA?$AAM?$AA?$AA@ 10038cdc     sbSenderApp.obj
 0002:00000ce4       ??_C@_1BC@IBECJAAI@?$AAS?$AAE?$AAC?$AAU?$AAR?$AAI?$AAT?$AAY?$AA?$AA@ 10038ce4     sbSenderApp.obj
 0002:00000cf8       ??_C@_1O@GBFINDKL@?$AAS?$AAY?$AAS?$AAT?$AAE?$AAM?$AA?$AA@ 10038cf8     sbSenderApp.obj
 0002:00000d08       ??_C@_1BC@EAHCMADO@?$AAS?$AAo?$AAf?$AAt?$AAw?$AAa?$AAr?$AAe?$AA?$AA@ 10038d08     sbSenderApp.obj
 0002:00000d1c       ??_C@_1BA@JIHHIEDE@?$AAT?$AAy?$AAp?$AAe?$AAL?$AAi?$AAb?$AA?$AA@ 10038d1c     sbSenderApp.obj
 0002:00000d2c       ??_C@_1M@KANJNLFF@?$AAC?$AAL?$AAS?$AAI?$AAD?$AA?$AA@ 10038d2c     sbSenderApp.obj
 0002:00000d38       ??_C@_1BK@BIGILECK@?$AAA?$AAd?$AAv?$AAa?$AAp?$AAi?$AA3?$AA2?$AA?4?$AAd?$AAl?$AAl?$AA?$AA@ 10038d38     sbSenderApp.obj
 0002:00000d54       ??_C@_0BG@EKFFMJIO@RegOpenKeyTransactedW?$AA@ 10038d54     sbSenderApp.obj
 0002:00000d6c       ??_C@_0BI@MNCFCPFK@RegCreateKeyTransactedW?$AA@ 10038d6c     sbSenderApp.obj
 0002:00000d84       ??_C@_0BI@HAKLOOGP@RegDeleteKeyTransactedW?$AA@ 10038d84     sbSenderApp.obj
 0002:00000d9c       __GUID_00000146_0000_0000_c000_000000000046 10038d9c     sbSenderApp.obj
 0002:00000db0       ??_7CComModule@ATL@@6B@    10038db0     sbSenderApp.obj
 0002:00000dd8       ??_C@_0BA@LILAPHGE@RegDeleteKeyExW?$AA@ 10038dd8     sbSenderApp.obj
 0002:00000dec       ??_7CRegObject@ATL@@6B@    10038dec     sbSenderApp.obj
 0002:00000e08       ?map@?1??HKeyFromString@CRegParser@ATL@@KAPAUHKEY__@@PA_W@Z@4QBUkeymap@?1??123@KAPAU4@0@Z@B 10038e08     sbSenderApp.obj
 0002:00000e78       ??_C@_19NCHLBIN@?$AAH?$AAK?$AAC?$AAR?$AA?$AA@ 10038e78     sbSenderApp.obj
 0002:00000e84       ??_C@_19JAPAIJDE@?$AAH?$AAK?$AAC?$AAU?$AA?$AA@ 10038e84     sbSenderApp.obj
 0002:00000e90       ??_C@_19PEALEEJB@?$AAH?$AAK?$AAL?$AAM?$AA?$AA@ 10038e90     sbSenderApp.obj
 0002:00000e9c       ??_C@_17PJOJPMPB@?$AAH?$AAK?$AAU?$AA?$AA@ 10038e9c     sbSenderApp.obj
 0002:00000ea4       ??_C@_19PNBHMJPL@?$AAH?$AAK?$AAP?$AAD?$AA?$AA@ 10038ea4     sbSenderApp.obj
 0002:00000eb0       ??_C@_19GFFAIJHG@?$AAH?$AAK?$AAD?$AAD?$AA?$AA@ 10038eb0     sbSenderApp.obj
 0002:00000ebc       ??_C@_19OFICIBHH@?$AAH?$AAK?$AAC?$AAC?$AA?$AA@ 10038ebc     sbSenderApp.obj
 0002:00000ec8       ??_C@_1CE@PACHPJFI@?$AAH?$AAK?$AAE?$AAY?$AA_?$AAC?$AAL?$AAA?$AAS?$AAS?$AAE?$AAS?$AA_?$AAR?$AAO?$AAO?$AAT?$AA?$AA@ 10038ec8     sbSenderApp.obj
 0002:00000eec       ??_C@_1CE@HLHNCBPM@?$AAH?$AAK?$AAE?$AAY?$AA_?$AAC?$AAU?$AAR?$AAR?$AAE?$AAN?$AAT?$AA_?$AAU?$AAS?$AAE?$AAR?$AA?$AA@ 10038eec     sbSenderApp.obj
 0002:00000f10       ??_C@_1CG@GFBEANJL@?$AAH?$AAK?$AAE?$AAY?$AA_?$AAL?$AAO?$AAC?$AAA?$AAL?$AA_?$AAM?$AAA?$AAC?$AAH?$AAI?$AAN?$AAE?$AA?$AA@ 10038f10     sbSenderApp.obj
 0002:00000f38       ??_C@_1BG@BGODANIO@?$AAH?$AAK?$AAE?$AAY?$AA_?$AAU?$AAS?$AAE?$AAR?$AAS?$AA?$AA@ 10038f38     sbSenderApp.obj
 0002:00000f50       ??_C@_1CM@KHNNAOIC@?$AAH?$AAK?$AAE?$AAY?$AA_?$AAP?$AAE?$AAR?$AAF?$AAO?$AAR?$AAM?$AAA?$AAN?$AAC?$AAE?$AA_?$AAD?$AAA?$AAT?$AAA?$AA?$AA@ 10038f50     sbSenderApp.obj
 0002:00000f7c       ??_C@_1BM@HAGMMHIA@?$AAH?$AAK?$AAE?$AAY?$AA_?$AAD?$AAY?$AAN?$AA_?$AAD?$AAA?$AAT?$AAA?$AA?$AA@ 10038f7c     sbSenderApp.obj
 0002:00000f98       ??_C@_1CI@BBJOACGG@?$AAH?$AAK?$AAE?$AAY?$AA_?$AAC?$AAU?$AAR?$AAR?$AAE?$AAN?$AAT?$AA_?$AAC?$AAO?$AAN?$AAF?$AAI?$AAG?$AA?$AA@ 10038f98     sbSenderApp.obj
 0002:00000fc0       ??_C@_1EA@NHKLICFA@?$AAH?$AAK?$AAC?$AAU?$AA?$AN?$AA?6?$AA?$HL?$AA?7?$AAS?$AAo?$AAf?$AAt?$AAw?$AAa?$AAr?$AAe?$AA?$AN?$AA?6?$AA?7?$AA?$HL?$AA?$AN?$AA?6?$AA?7?$AA?7?$AAC?$AAl?$AAa?$AAs?$AAs?$AAe?$AAs?$AA?$AA@ 10038fc0     sbSenderApp.obj
 0002:00001000       ??_C@_1BE@LJOLIMEM@?$AA?$AN?$AA?6?$AA?7?$AA?$HN?$AA?$AN?$AA?6?$AA?$HN?$AA?$AN?$AA?6?$AA?$AA@ 10039000     sbSenderApp.obj
 0002:00001014       ??_C@_1O@MNLDABAF@?$AAM?$AAo?$AAd?$AAu?$AAl?$AAe?$AA?$AA@ 10039014     sbSenderApp.obj
 0002:00001024       ??_C@_1BG@JBACFMF@?$AAM?$AAo?$AAd?$AAu?$AAl?$AAe?$AA_?$AAR?$AAa?$AAw?$AA?$AA@ 10039024     sbSenderApp.obj
 0002:0000103c       ??_C@_1BC@KAILKFFG@?$AAR?$AAE?$AAG?$AAI?$AAS?$AAT?$AAR?$AAY?$AA?$AA@ 1003903c     sbSenderApp.obj
 0002:00001054       ??_7CAppModule@WTL@@6B@    10039054     sbSenderApp.obj
 0002:0000107c       ??_C@_1M@PPPPCDEP@?$AAA?$AAP?$AAP?$AAI?$AAD?$AA?$AA@ 1003907c     sbSenderApp.obj
 0002:00001088       ?pmField@?$CVarTypeInfo@N@ATL@@2QQtagVARIANT@@NQ3@ 10039088     StdAfx.obj
 0002:0000108c       ?pmField@?$CVarTypeInfo@PAN@ATL@@2QQtagVARIANT@@PANQ3@ 1003908c     StdAfx.obj
 0002:00001090       ?pmField@?$CVarTypeInfo@PA_W@ATL@@2QQtagVARIANT@@PA_WQ3@ 10039090     StdAfx.obj
 0002:00001094       ?pmField@?$CVarTypeInfo@PAPA_W@ATL@@2QQtagVARIANT@@PAPA_WQ3@ 10039094     StdAfx.obj
 0002:00001098       _IID_IAxWinHostWindow      10039098     StdAfx.obj
 0002:000010a8       ?pmField@?$CVarTypeInfo@PAUIUnknown@@@ATL@@2QQtagVARIANT@@PAUIUnknown@@Q3@ 100390a8     StdAfx.obj
 0002:000010ac       ?chDirSep@ATL@@3_WB        100390ac     StdAfx.obj
 0002:000010b0       ?chRightBracket@ATL@@3_WB  100390b0     StdAfx.obj
 0002:000010b4       ?chLeftBracket@ATL@@3_WB   100390b4     StdAfx.obj
 0002:000010b8       ?chQuote@ATL@@3_WB         100390b8     StdAfx.obj
 0002:000010bc       ?chEquals@ATL@@3_WB        100390bc     StdAfx.obj
 0002:000010c0       ?pmField@?$CVarTypeInfo@PAPAUIUnknown@@@ATL@@2QQtagVARIANT@@PAPAUIUnknown@@Q3@ 100390c0     StdAfx.obj
 0002:000010c4       ?pmField@?$CVarTypeInfo@PAUIDispatch@@@ATL@@2QQtagVARIANT@@PAUIDispatch@@Q3@ 100390c4     StdAfx.obj
 0002:000010c8       ?pmField@?$CVarTypeInfo@PAPAUIDispatch@@@ATL@@2QQtagVARIANT@@PAPAUIDispatch@@Q3@ 100390c8     StdAfx.obj
 0002:000010cc       ?pmField@?$CVarTypeInfo@TtagCY@@@ATL@@2QQtagVARIANT@@TtagCY@@Q3@ 100390cc     StdAfx.obj
 0002:000010d0       ?pmField@?$CVarTypeInfo@PATtagCY@@@ATL@@2QQtagVARIANT@@PATtagCY@@Q3@ 100390d0     StdAfx.obj
 0002:000010d4       _IID_IAxWinHostWindowLic   100390d4     StdAfx.obj
 0002:000010e4       _IID_IAxWinAmbientDispatch 100390e4     StdAfx.obj
 0002:000010f4       ?cbNeverDelete@CRegParser@ATL@@1HB 100390f4     StdAfx.obj
 0002:000010f8       _IID_IAxWinAmbientDispatchEx 100390f8     StdAfx.obj
 0002:00001108       _IID_IInternalConnection   10039108     StdAfx.obj
 0002:00001118       _CLSID_Registrar           10039118     StdAfx.obj
 0002:00001128       _LIBID_ATLLib              10039128     StdAfx.obj
 0002:00001138       ?pmField@?$CVarTypeInfo@D@ATL@@2QQtagVARIANT@@DQ3@ 10039138     StdAfx.obj
 0002:0000113c       _IID_IRegistrar            1003913c     StdAfx.obj
 0002:0000114c       ?pmField@?$CVarTypeInfo@E@ATL@@2QQtagVARIANT@@EQ3@ 1003914c     StdAfx.obj
 0002:00001150       ?pmField@?$CVarTypeInfo@PAD@ATL@@2QQtagVARIANT@@PADQ3@ 10039150     StdAfx.obj
 0002:00001154       ?pmField@?$CVarTypeInfo@PAE@ATL@@2QQtagVARIANT@@PAEQ3@ 10039154     StdAfx.obj
 0002:00001158       ?pmField@?$CVarTypeInfo@F@ATL@@2QQtagVARIANT@@FQ3@ 10039158     StdAfx.obj
 0002:0000115c       ?pmField@?$CVarTypeInfo@PAF@ATL@@2QQtagVARIANT@@PAFQ3@ 1003915c     StdAfx.obj
 0002:00001160       ?pmField@?$CVarTypeInfo@G@ATL@@2QQtagVARIANT@@GQ3@ 10039160     StdAfx.obj
 0002:00001164       ?pmField@?$CVarTypeInfo@PAG@ATL@@2QQtagVARIANT@@PAGQ3@ 10039164     StdAfx.obj
 0002:00001168       ?pmField@?$CVarTypeInfo@H@ATL@@2QQtagVARIANT@@HQ3@ 10039168     StdAfx.obj
 0002:0000116c       ?pmField@?$CVarTypeInfo@PAH@ATL@@2QQtagVARIANT@@PAHQ3@ 1003916c     StdAfx.obj
 0002:00001170       _IID_IDocHostUIHandlerDispatch 10039170     StdAfx.obj
 0002:00001180       ?pmField@?$CVarTypeInfo@I@ATL@@2QQtagVARIANT@@IQ3@ 10039180     StdAfx.obj
 0002:00001184       ?pmField@?$CVarTypeInfo@PAI@ATL@@2QQtagVARIANT@@PAIQ3@ 10039184     StdAfx.obj
 0002:00001188       ?pmField@?$CVarTypeInfo@J@ATL@@2QQtagVARIANT@@JQ3@ 10039188     StdAfx.obj
 0002:0000118c       ?pmField@?$CVarTypeInfo@PAJ@ATL@@2QQtagVARIANT@@PAJQ3@ 1003918c     StdAfx.obj
 0002:00001190       ?pmField@?$CVarTypeInfo@K@ATL@@2QQtagVARIANT@@KQ3@ 10039190     StdAfx.obj
 0002:00001194       ?pmField@?$CVarTypeInfo@PAK@ATL@@2QQtagVARIANT@@PAKQ3@ 10039194     StdAfx.obj
 0002:00001198       ?pmField@?$CVarTypeInfo@_J@ATL@@2QQtagVARIANT@@_JQ3@ 10039198     StdAfx.obj
 0002:0000119c       ?pmField@?$CVarTypeInfo@PA_J@ATL@@2QQtagVARIANT@@PA_JQ3@ 1003919c     StdAfx.obj
 0002:000011a0       ?pmField@?$CVarTypeInfo@_K@ATL@@2QQtagVARIANT@@_KQ3@ 100391a0     StdAfx.obj
 0002:000011a4       ?pmField@?$CVarTypeInfo@PA_K@ATL@@2QQtagVARIANT@@PA_KQ3@ 100391a4     StdAfx.obj
 0002:000011a8       ?pmField@?$CVarTypeInfo@M@ATL@@2QQtagVARIANT@@MQ3@ 100391a8     StdAfx.obj
 0002:000011ac       ?pmField@?$CVarTypeInfo@PAM@ATL@@2QQtagVARIANT@@PAMQ3@ 100391ac     StdAfx.obj
 0002:000011b0       _GUID_NULL                 100391b0     uuid:cguid_i.obj
 0002:000011c0       _CATID_MARSHALER           100391c0     uuid:cguid_i.obj
 0002:000011d0       _IID_IRpcChannel           100391d0     uuid:cguid_i.obj
 0002:000011e0       _IID_IRpcStub              100391e0     uuid:cguid_i.obj
 0002:000011f0       _IID_IStubManager          100391f0     uuid:cguid_i.obj
 0002:00001200       _IID_IRpcProxy             10039200     uuid:cguid_i.obj
 0002:00001210       _IID_IProxyManager         10039210     uuid:cguid_i.obj
 0002:00001220       _IID_IPSFactory            10039220     uuid:cguid_i.obj
 0002:00001230       _IID_IInternalMoniker      10039230     uuid:cguid_i.obj
 0002:00001240       _IID_IDfReserved1          10039240     uuid:cguid_i.obj
 0002:00001250       _IID_IDfReserved2          10039250     uuid:cguid_i.obj
 0002:00001260       _IID_IDfReserved3          10039260     uuid:cguid_i.obj
 0002:00001270       _CLSID_StdMarshal          10039270     uuid:cguid_i.obj
 0002:00001280       _IID_IStub                 10039280     uuid:cguid_i.obj
 0002:00001290       _IID_IProxy                10039290     uuid:cguid_i.obj
 0002:000012a0       _IID_IEnumGeneric          100392a0     uuid:cguid_i.obj
 0002:000012b0       _IID_IEnumHolder           100392b0     uuid:cguid_i.obj
 0002:000012c0       _IID_IEnumCallback         100392c0     uuid:cguid_i.obj
 0002:000012d0       _IID_IOleManager           100392d0     uuid:cguid_i.obj
 0002:000012e0       _IID_IOlePresObj           100392e0     uuid:cguid_i.obj
 0002:000012f0       _IID_IDebug                100392f0     uuid:cguid_i.obj
 0002:00001300       _IID_IDebugStream          10039300     uuid:cguid_i.obj
 0002:00001310       _CLSID_PSGenObject         10039310     uuid:cguid_i.obj
 0002:00001320       _CLSID_PSClientSite        10039320     uuid:cguid_i.obj
 0002:00001330       _CLSID_PSClassObject       10039330     uuid:cguid_i.obj
 0002:00001340       _CLSID_PSInPlaceActive     10039340     uuid:cguid_i.obj
 0002:00001350       _CLSID_PSInPlaceFrame      10039350     uuid:cguid_i.obj
 0002:00001360       _CLSID_PSDragDrop          10039360     uuid:cguid_i.obj
 0002:00001370       _CLSID_PSBindCtx           10039370     uuid:cguid_i.obj
 0002:00001380       _CLSID_PSEnumerators       10039380     uuid:cguid_i.obj
 0002:00001390       _CLSID_StaticMetafile      10039390     uuid:cguid_i.obj
 0002:000013a0       _CLSID_StaticDib           100393a0     uuid:cguid_i.obj
 0002:000013b0       _CLSID_Picture_Metafile    100393b0     uuid:cguid_i.obj
 0002:000013c0       _CLSID_Picture_EnhMetafile 100393c0     uuid:cguid_i.obj
 0002:000013d0       _CLSID_Picture_Dib         100393d0     uuid:cguid_i.obj
 0002:000013e0       _CLSID_DCOMAccessControl   100393e0     uuid:cguid_i.obj
 0002:000013f0       _CLSID_StdGlobalInterfaceTable 100393f0     uuid:cguid_i.obj
 0002:00001400       _CLSID_ManualResetEvent    10039400     uuid:cguid_i.obj
 0002:00001410       _CLSID_StdEvent            10039410     uuid:cguid_i.obj
 0002:00001420       _CLSID_SynchronizeContainer 10039420     uuid:cguid_i.obj
 0002:00001430       _CLSID_ComBinding          10039430     uuid:cguid_i.obj
 0002:00001440       _CLSID_StdAsyncActManager  10039440     uuid:cguid_i.obj
 0002:00001450       _CLSID_InProcFreeMarshaler 10039450     uuid:cguid_i.obj
 0002:00001460       _CLSID_RemoteUnknownPSFactory 10039460     uuid:cguid_i.obj
 0002:00001470       _IID_IRichEditOle          10039470     uuid:cguid_i.obj
 0002:00001480       _IID_IRichEditOleCallback  10039480     uuid:cguid_i.obj
 0002:00001490       _CLSID_AllClasses          10039490     uuid:cguid_i.obj
 0002:000014a0       _CLSID_LocalMachineClasses 100394a0     uuid:cguid_i.obj
 0002:000014b0       _CLSID_CurrentUserClasses  100394b0     uuid:cguid_i.obj
 0002:000014c0       _CLSID_AddrControl         100394c0     uuid:cguid_i.obj
 0002:000014d0       _CLSID_GlobalOptions       100394d0     uuid:cguid_i.obj
 0002:000014e0       _CLSID_SurrogateManager    100394e0     uuid:cguid_i.obj
 0002:000014f0       _CLSID_ContextSwitcher     100394f0     uuid:cguid_i.obj
 0002:00001500       _IID_IPropertyFrame        10039500     uuid:cguid_i.obj
 0002:00001510       _CLSID_CFontPropPage       10039510     uuid:cguid_i.obj
 0002:00001520       _CLSID_CColorPropPage      10039520     uuid:cguid_i.obj
 0002:00001530       _CLSID_CPicturePropPage    10039530     uuid:cguid_i.obj
 0002:00001540       _CLSID_StockFontPage       10039540     uuid:cguid_i.obj
 0002:00001550       _CLSID_StockColorPage      10039550     uuid:cguid_i.obj
 0002:00001560       _CLSID_StockPicturePage    10039560     uuid:cguid_i.obj
 0002:00001570       _CLSID_PersistPropset      10039570     uuid:cguid_i.obj
 0002:00001580       _CLSID_ConvertVBX          10039580     uuid:cguid_i.obj
 0002:00001590       _CLSID_StdFont             10039590     uuid:cguid_i.obj
 0002:000015a0       _CLSID_StdPicture          100395a0     uuid:cguid_i.obj
 0002:000015b0       _GUID_HIMETRIC             100395b0     uuid:cguid_i.obj
 0002:000015c0       _GUID_COLOR                100395c0     uuid:cguid_i.obj
 0002:000015d0       _GUID_XPOSPIXEL            100395d0     uuid:cguid_i.obj
 0002:000015e0       _GUID_YPOSPIXEL            100395e0     uuid:cguid_i.obj
 0002:000015f0       _GUID_XSIZEPIXEL           100395f0     uuid:cguid_i.obj
 0002:00001600       _GUID_YSIZEPIXEL           10039600     uuid:cguid_i.obj
 0002:00001610       _GUID_XPOS                 10039610     uuid:cguid_i.obj
 0002:00001620       _GUID_YPOS                 10039620     uuid:cguid_i.obj
 0002:00001630       _GUID_XSIZE                10039630     uuid:cguid_i.obj
 0002:00001640       _GUID_YSIZE                10039640     uuid:cguid_i.obj
 0002:00001650       _GUID_TRISTATE             10039650     uuid:cguid_i.obj
 0002:00001660       _GUID_OPTIONVALUEEXCLUSIVE 10039660     uuid:cguid_i.obj
 0002:00001670       _GUID_CHECKVALUEEXCLUSIVE  10039670     uuid:cguid_i.obj
 0002:00001680       _GUID_FONTNAME             10039680     uuid:cguid_i.obj
 0002:00001690       _GUID_FONTSIZE             10039690     uuid:cguid_i.obj
 0002:000016a0       _GUID_FONTBOLD             100396a0     uuid:cguid_i.obj
 0002:000016b0       _GUID_FONTITALIC           100396b0     uuid:cguid_i.obj
 0002:000016c0       _GUID_FONTUNDERSCORE       100396c0     uuid:cguid_i.obj
 0002:000016d0       _GUID_FONTSTRIKETHROUGH    100396d0     uuid:cguid_i.obj
 0002:000016e0       _GUID_HANDLE               100396e0     uuid:cguid_i.obj
 0002:000016f0       _IID_StdOle                100396f0     uuid:cguid_i.obj
 0002:00001700       _IID_ICursor               10039700     uuid:cguid_i.obj
 0002:00001710       _IID_ICursorMove           10039710     uuid:cguid_i.obj
 0002:00001720       _IID_ICursorScroll         10039720     uuid:cguid_i.obj
 0002:00001730       _IID_ICursorUpdateARow     10039730     uuid:cguid_i.obj
 0002:00001740       _IID_INotifyDBEvents       10039740     uuid:cguid_i.obj
 0002:00001750       _IID_ICursorFind           10039750     uuid:cguid_i.obj
 0002:00001760       _IID_IEntryID              10039760     uuid:cguid_i.obj
 0002:00001770       __GUID_NAMEONLY            10039770     uuid:cguid_i.obj
 0002:00001780       __DBBMKGUID                10039780     uuid:cguid_i.obj
 0002:00001790       __DBCIDGUID                10039790     uuid:cguid_i.obj
 0002:000017a0       _IID_IBoundObject          100397a0     uuid:cguid_i.obj
 0002:000017b0       _IID_IBoundObjectSite      100397b0     uuid:cguid_i.obj
 0002:000017c0       _CLSID_GblComponentCategoriesMgr 100397c0     uuid:cguid_i.obj
 0002:000017d0       _CLSID_ThumbnailFCNHandler 100397d0     uuid:cguid_i.obj
 0002:000017e0       _CLSID_ThumbnailUpdater    100397e0     uuid:cguid_i.obj
 0002:000017f0       _GUID_DEVCLASS_1394        100397f0     uuid:cguid_i.obj
 0002:00001800       _GUID_DEVCLASS_1394DEBUG   10039800     uuid:cguid_i.obj
 0002:00001810       _GUID_DEVCLASS_61883       10039810     uuid:cguid_i.obj
 0002:00001820       _GUID_DEVCLASS_ADAPTER     10039820     uuid:cguid_i.obj
 0002:00001830       _GUID_DEVCLASS_APMSUPPORT  10039830     uuid:cguid_i.obj
 0002:00001840       _GUID_DEVCLASS_AVC         10039840     uuid:cguid_i.obj
 0002:00001850       _GUID_DEVCLASS_BATTERY     10039850     uuid:cguid_i.obj
 0002:00001860       _GUID_DEVCLASS_BIOMETRIC   10039860     uuid:cguid_i.obj
 0002:00001870       _GUID_DEVCLASS_BLUETOOTH   10039870     uuid:cguid_i.obj
 0002:00001880       _GUID_DEVCLASS_CDROM       10039880     uuid:cguid_i.obj
 0002:00001890       _GUID_DEVCLASS_COMPUTER    10039890     uuid:cguid_i.obj
 0002:000018a0       _GUID_DEVCLASS_DECODER     100398a0     uuid:cguid_i.obj
 0002:000018b0       _GUID_DEVCLASS_DISKDRIVE   100398b0     uuid:cguid_i.obj
 0002:000018c0       _GUID_DEVCLASS_DISPLAY     100398c0     uuid:cguid_i.obj
 0002:000018d0       _GUID_DEVCLASS_DOT4        100398d0     uuid:cguid_i.obj
 0002:000018e0       _GUID_DEVCLASS_DOT4PRINT   100398e0     uuid:cguid_i.obj
 0002:000018f0       _GUID_DEVCLASS_ENUM1394    100398f0     uuid:cguid_i.obj
 0002:00001900       _GUID_DEVCLASS_FDC         10039900     uuid:cguid_i.obj
 0002:00001910       _GUID_DEVCLASS_FLOPPYDISK  10039910     uuid:cguid_i.obj
 0002:00001920       _GUID_DEVCLASS_GPS         10039920     uuid:cguid_i.obj
 0002:00001930       _GUID_DEVCLASS_HDC         10039930     uuid:cguid_i.obj
 0002:00001940       _GUID_DEVCLASS_HIDCLASS    10039940     uuid:cguid_i.obj
 0002:00001950       _GUID_DEVCLASS_IMAGE       10039950     uuid:cguid_i.obj
 0002:00001960       _GUID_DEVCLASS_INFINIBAND  10039960     uuid:cguid_i.obj
 0002:00001970       _GUID_DEVCLASS_INFRARED    10039970     uuid:cguid_i.obj
 0002:00001980       _GUID_DEVCLASS_KEYBOARD    10039980     uuid:cguid_i.obj
 0002:00001990       _GUID_DEVCLASS_LEGACYDRIVER 10039990     uuid:cguid_i.obj
 0002:000019a0       _GUID_DEVCLASS_MEDIA       100399a0     uuid:cguid_i.obj
 0002:000019b0       _GUID_DEVCLASS_MEDIUM_CHANGER 100399b0     uuid:cguid_i.obj
 0002:000019c0       _GUID_DEVCLASS_MODEM       100399c0     uuid:cguid_i.obj
 0002:000019d0       _GUID_DEVCLASS_MONITOR     100399d0     uuid:cguid_i.obj
 0002:000019e0       _GUID_DEVCLASS_MOUSE       100399e0     uuid:cguid_i.obj
 0002:000019f0       _GUID_DEVCLASS_MTD         100399f0     uuid:cguid_i.obj
 0002:00001a00       _GUID_DEVCLASS_MULTIFUNCTION 10039a00     uuid:cguid_i.obj
 0002:00001a10       _GUID_DEVCLASS_MULTIPORTSERIAL 10039a10     uuid:cguid_i.obj
 0002:00001a20       _GUID_DEVCLASS_NET         10039a20     uuid:cguid_i.obj
 0002:00001a30       _GUID_DEVCLASS_NETCLIENT   10039a30     uuid:cguid_i.obj
 0002:00001a40       _GUID_DEVCLASS_NETSERVICE  10039a40     uuid:cguid_i.obj
 0002:00001a50       _GUID_DEVCLASS_NETTRANS    10039a50     uuid:cguid_i.obj
 0002:00001a60       _GUID_DEVCLASS_NODRIVER    10039a60     uuid:cguid_i.obj
 0002:00001a70       _GUID_DEVCLASS_PCMCIA      10039a70     uuid:cguid_i.obj
 0002:00001a80       _GUID_DEVCLASS_PNPPRINTERS 10039a80     uuid:cguid_i.obj
 0002:00001a90       _GUID_DEVCLASS_PORTS       10039a90     uuid:cguid_i.obj
 0002:00001aa0       _GUID_DEVCLASS_PRINTER     10039aa0     uuid:cguid_i.obj
 0002:00001ab0       _GUID_DEVCLASS_PRINTERUPGRADE 10039ab0     uuid:cguid_i.obj
 0002:00001ac0       _GUID_DEVCLASS_PROCESSOR   10039ac0     uuid:cguid_i.obj
 0002:00001ad0       _GUID_DEVCLASS_SBP2        10039ad0     uuid:cguid_i.obj
 0002:00001ae0       _GUID_DEVCLASS_SCSIADAPTER 10039ae0     uuid:cguid_i.obj
 0002:00001af0       _GUID_DEVCLASS_SECURITYACCELERATOR 10039af0     uuid:cguid_i.obj
 0002:00001b00       _GUID_DEVCLASS_SENSOR      10039b00     uuid:cguid_i.obj
 0002:00001b10       _GUID_DEVCLASS_SIDESHOW    10039b10     uuid:cguid_i.obj
 0002:00001b20       _GUID_DEVCLASS_SMARTCARDREADER 10039b20     uuid:cguid_i.obj
 0002:00001b30       _GUID_DEVCLASS_SOUND       10039b30     uuid:cguid_i.obj
 0002:00001b40       _GUID_DEVCLASS_SYSTEM      10039b40     uuid:cguid_i.obj
 0002:00001b50       _GUID_DEVCLASS_TAPEDRIVE   10039b50     uuid:cguid_i.obj
 0002:00001b60       _GUID_DEVCLASS_UNKNOWN     10039b60     uuid:cguid_i.obj
 0002:00001b70       _GUID_DEVCLASS_USB         10039b70     uuid:cguid_i.obj
 0002:00001b80       _GUID_DEVCLASS_VOLUME      10039b80     uuid:cguid_i.obj
 0002:00001b90       _GUID_DEVCLASS_VOLUMESNAPSHOT 10039b90     uuid:cguid_i.obj
 0002:00001ba0       _GUID_DEVCLASS_WCEUSBS     10039ba0     uuid:cguid_i.obj
 0002:00001bb0       _GUID_DEVCLASS_WPD         10039bb0     uuid:cguid_i.obj
 0002:00001bc0       _GUID_DEVCLASS_FSFILTER_ACTIVITYMONITOR 10039bc0     uuid:cguid_i.obj
 0002:00001bd0       _GUID_DEVCLASS_FSFILTER_UNDELETE 10039bd0     uuid:cguid_i.obj
 0002:00001be0       _GUID_DEVCLASS_FSFILTER_ANTIVIRUS 10039be0     uuid:cguid_i.obj
 0002:00001bf0       _GUID_DEVCLASS_FSFILTER_REPLICATION 10039bf0     uuid:cguid_i.obj
 0002:00001c00       _GUID_DEVCLASS_FSFILTER_CONTINUOUSBACKUP 10039c00     uuid:cguid_i.obj
 0002:00001c10       _GUID_DEVCLASS_FSFILTER_CONTENTSCREENER 10039c10     uuid:cguid_i.obj
 0002:00001c20       _GUID_DEVCLASS_FSFILTER_QUOTAMANAGEMENT 10039c20     uuid:cguid_i.obj
 0002:00001c30       _GUID_DEVCLASS_FSFILTER_SYSTEMRECOVERY 10039c30     uuid:cguid_i.obj
 0002:00001c40       _GUID_DEVCLASS_FSFILTER_CFSMETADATASERVER 10039c40     uuid:cguid_i.obj
 0002:00001c50       _GUID_DEVCLASS_FSFILTER_HSM 10039c50     uuid:cguid_i.obj
 0002:00001c60       _GUID_DEVCLASS_FSFILTER_COMPRESSION 10039c60     uuid:cguid_i.obj
 0002:00001c70       _GUID_DEVCLASS_FSFILTER_ENCRYPTION 10039c70     uuid:cguid_i.obj
 0002:00001c80       _GUID_DEVCLASS_FSFILTER_PHYSICALQUOTAMANAGEMENT 10039c80     uuid:cguid_i.obj
 0002:00001c90       _GUID_DEVCLASS_FSFILTER_OPENFILEBACKUP 10039c90     uuid:cguid_i.obj
 0002:00001ca0       _GUID_DEVCLASS_FSFILTER_SECURITYENHANCER 10039ca0     uuid:cguid_i.obj
 0002:00001cb0       _GUID_DEVCLASS_FSFILTER_COPYPROTECTION 10039cb0     uuid:cguid_i.obj
 0002:00001cc0       _GUID_DEVCLASS_FSFILTER_SYSTEM 10039cc0     uuid:cguid_i.obj
 0002:00001cd0       _GUID_DEVCLASS_FSFILTER_INFRASTRUCTURE 10039cd0     uuid:cguid_i.obj
 0002:00001ce0       _GUID_DEVINTERFACE_DISK    10039ce0     uuid:cguid_i.obj
 0002:00001cf0       _GUID_DEVINTERFACE_CDROM   10039cf0     uuid:cguid_i.obj
 0002:00001d00       _GUID_DEVINTERFACE_PARTITION 10039d00     uuid:cguid_i.obj
 0002:00001d10       _GUID_DEVINTERFACE_TAPE    10039d10     uuid:cguid_i.obj
 0002:00001d20       _GUID_DEVINTERFACE_WRITEONCEDISK 10039d20     uuid:cguid_i.obj
 0002:00001d30       _GUID_DEVINTERFACE_VOLUME  10039d30     uuid:cguid_i.obj
 0002:00001d40       _GUID_DEVINTERFACE_MEDIUMCHANGER 10039d40     uuid:cguid_i.obj
 0002:00001d50       _GUID_DEVINTERFACE_FLOPPY  10039d50     uuid:cguid_i.obj
 0002:00001d60       _GUID_DEVINTERFACE_CDCHANGER 10039d60     uuid:cguid_i.obj
 0002:00001d70       _GUID_DEVINTERFACE_STORAGEPORT 10039d70     uuid:cguid_i.obj
 0002:00001d80       _GUID_DEVINTERFACE_HIDDEN_VOLUME 10039d80     uuid:cguid_i.obj
 0002:00001d90       _GUID_DEVINTERFACE_COMPORT 10039d90     uuid:cguid_i.obj
 0002:00001da0       _GUID_DEVINTERFACE_SERENUM_BUS_ENUMERATOR 10039da0     uuid:cguid_i.obj
 0002:00001db0       _GUID_ATLVer30             10039db0     atls:atlbase.obj
 0002:00001dc0       _GUID_ATLVer70             10039dc0     atls:atlbase.obj
 0002:00001dd0       _GUID_ATLVer100            10039dd0     atls:atlbase.obj
 0002:00001de0       _GUID_ATLVer110            10039de0     atls:atlbase.obj
 0002:00001df0       ??_C@_1IC@ONKHOIDK@?$AAE?$AAR?$AAR?$AAO?$AAR?$AA?5?$AA?3?$AA?5?$AAU?$AAn?$AAa?$AAb?$AAl?$AAe?$AA?5?$AAt?$AAo?$AA?5?$AAi?$AAn?$AAi?$AAt?$AAi?$AAa?$AAl?$AAi?$AAz?$AAe?$AA?5?$AAc?$AAr?$AAi@ 10039df0     atls:atlbase.obj
 0002:00001e74       __GUID_fc4801a3_2ba9_11cf_a229_00aa003d7352 10039e74     atls:stdafx.obj
 0002:00001e84       __GUID_a6bc3ac0_dbaa_11ce_9de3_00aa004bb851 10039e84     atls:stdafx.obj
 0002:00001e94       ?VT@?$CVarTypeInfo@D@ATL@@2GB 10039e94     atls:stdafx.obj
 0002:00001e98       __GUID_0000010c_0000_0000_c000_000000000046 10039e98     atls:stdafx.obj
 0002:00001ea8       ?VT@?$CVarTypeInfo@E@ATL@@2GB 10039ea8     atls:stdafx.obj
 0002:00001eac       ?VT@?$CVarTypeInfo@PAD@ATL@@2GB 10039eac     atls:stdafx.obj
 0002:00001eb0       ?VT@?$CVarTypeInfo@PAE@ATL@@2GB 10039eb0     atls:stdafx.obj
 0002:00001eb4       __GUID_00000109_0000_0000_c000_000000000046 10039eb4     atls:stdafx.obj
 0002:00001ec4       __GUID_7fd52380_4e07_101b_ae2d_08002b2ec713 10039ec4     atls:stdafx.obj
 0002:00001ed4       ?VT@?$CVarTypeInfo@F@ATL@@2GB 10039ed4     atls:stdafx.obj
 0002:00001ed8       ?VT@?$CVarTypeInfo@PAF@ATL@@2GB 10039ed8     atls:stdafx.obj
 0002:00001edc       ?VT@?$CVarTypeInfo@G@ATL@@2GB 10039edc     atls:stdafx.obj
 0002:00001ee0       ?VT@?$CVarTypeInfo@PAG@ATL@@2GB 10039ee0     atls:stdafx.obj
 0002:00001ee4       ?VT@?$CVarTypeInfo@H@ATL@@2GB 10039ee4     atls:stdafx.obj
 0002:00001ee8       ?VT@?$CVarTypeInfo@PAH@ATL@@2GB 10039ee8     atls:stdafx.obj
 0002:00001eec       ?VT@?$CVarTypeInfo@I@ATL@@2GB 10039eec     atls:stdafx.obj
 0002:00001ef0       ?VT@?$CVarTypeInfo@PAI@ATL@@2GB 10039ef0     atls:stdafx.obj
 0002:00001ef4       ?VT@?$CVarTypeInfo@J@ATL@@2GB 10039ef4     atls:stdafx.obj
 0002:00001ef8       ?VT@?$CVarTypeInfo@PAJ@ATL@@2GB 10039ef8     atls:stdafx.obj
 0002:00001efc       ?VT@?$CVarTypeInfo@K@ATL@@2GB 10039efc     atls:stdafx.obj
 0002:00001f00       ?VT@?$CVarTypeInfo@PAK@ATL@@2GB 10039f00     atls:stdafx.obj
 0002:00001f04       ?VT@?$CVarTypeInfo@_J@ATL@@2GB 10039f04     atls:stdafx.obj
 0002:00001f08       ?VT@?$CVarTypeInfo@PA_J@ATL@@2GB 10039f08     atls:stdafx.obj
 0002:00001f0c       ?VT@?$CVarTypeInfo@_K@ATL@@2GB 10039f0c     atls:stdafx.obj
 0002:00001f10       ?VT@?$CVarTypeInfo@PA_K@ATL@@2GB 10039f10     atls:stdafx.obj
 0002:00001f14       ?VT@?$CVarTypeInfo@M@ATL@@2GB 10039f14     atls:stdafx.obj
 0002:00001f18       __GUID_b196b284_bab4_101a_b69c_00aa00341d07 10039f18     atls:stdafx.obj
 0002:00001f28       ?VT@?$CVarTypeInfo@PAM@ATL@@2GB 10039f28     atls:stdafx.obj
 0002:00001f2c       ?VT@?$CVarTypeInfo@N@ATL@@2GB 10039f2c     atls:stdafx.obj
 0002:00001f30       ?VT@?$CVarTypeInfo@PAN@ATL@@2GB 10039f30     atls:stdafx.obj
 0002:00001f34       ?VT@?$CVarTypeInfo@PAUtagVARIANT@@@ATL@@2GB 10039f34     atls:stdafx.obj
 0002:00001f38       ?VT@?$CVarTypeInfo@PA_W@ATL@@2GB 10039f38     atls:stdafx.obj
 0002:00001f3c       ?VT@?$CVarTypeInfo@PAPA_W@ATL@@2GB 10039f3c     atls:stdafx.obj
 0002:00001f40       ?VT@?$CVarTypeInfo@PAUIUnknown@@@ATL@@2GB 10039f40     atls:stdafx.obj
 0002:00001f44       ?VT@?$CVarTypeInfo@PAPAUIUnknown@@@ATL@@2GB 10039f44     atls:stdafx.obj
 0002:00001f48       ?VT@?$CVarTypeInfo@PAUIDispatch@@@ATL@@2GB 10039f48     atls:stdafx.obj
 0002:00001f4c       ?VT@?$CVarTypeInfo@PAPAUIDispatch@@@ATL@@2GB 10039f4c     atls:stdafx.obj
 0002:00001f50       ?VT@?$CVarTypeInfo@TtagCY@@@ATL@@2GB 10039f50     atls:stdafx.obj
 0002:00001f54       __GUID_00000000_0000_0000_c000_000000000046 10039f54     atls:stdafx.obj
 0002:00001f64       ?VT@?$CVarTypeInfo@PATtagCY@@@ATL@@2GB 10039f64     atls:stdafx.obj
 0002:00001f68       __GUID_00020400_0000_0000_c000_000000000046 10039f68     atls:stdafx.obj
 0002:00001f78       ?MAX_VALUE@CRegParser@ATL@@1HB 10039f78     atls:stdafx.obj
 0002:00001f7c       __GUID_1cf2b120_547d_101b_8e65_08002b2bd119 10039f7c     atls:stdafx.obj
 0002:00001f8c       ?MAX_TYPE@CRegParser@ATL@@1HB 10039f8c     atls:stdafx.obj
 0002:00001f90       ?_Min@?$AtlLimits@H@ATL@@2HB 10039f90     atls:stdafx.obj
 0002:00001f94       ?_Max@?$AtlLimits@H@ATL@@2HB 10039f94     atls:stdafx.obj
 0002:00001f98       ?_Min@?$AtlLimits@I@ATL@@2IB 10039f98     atls:stdafx.obj
 0002:00001f9c       ?_Max@?$AtlLimits@I@ATL@@2IB 10039f9c     atls:stdafx.obj
 0002:00001fa0       ?_Min@?$AtlLimits@J@ATL@@2JB 10039fa0     atls:stdafx.obj
 0002:00001fa4       ?_Max@?$AtlLimits@J@ATL@@2JB 10039fa4     atls:stdafx.obj
 0002:00001fa8       ?_Min@?$AtlLimits@K@ATL@@2KB 10039fa8     atls:stdafx.obj
 0002:00001fac       ?_Max@?$AtlLimits@K@ATL@@2KB 10039fac     atls:stdafx.obj
 0002:00001fb0       ?_Min@?$AtlLimits@_J@ATL@@2_JB 10039fb0     atls:stdafx.obj
 0002:00001fb8       ?_Max@?$AtlLimits@_J@ATL@@2_JB 10039fb8     atls:stdafx.obj
 0002:00001fc0       ?_Min@?$AtlLimits@_K@ATL@@2_KB 10039fc0     atls:stdafx.obj
 0002:00001fc8       ?_Max@?$AtlLimits@_K@ATL@@2_KB 10039fc8     atls:stdafx.obj
 0002:00001fd0       __GUID_0002e012_0000_0000_c000_000000000046 10039fd0     atls:stdafx.obj
 0002:00001fe0       ??_C@_1BI@BGOHAHKC@?$AAm?$AAs?$AAc?$AAo?$AAr?$AAe?$AAe?$AA?4?$AAd?$AAl?$AAl?$AA?$AA@ 10039fe0     LIBCMT:crt0dat.obj
 0002:00001ff8       ??_C@_0P@MIGLKIOC@CorExitProcess?$AA@ 10039ff8     LIBCMT:crt0dat.obj
 0002:00002028       ?ProcessDetach@NativeDll@<CrtImplementationDetails>@@0IB 1003a028     LIBCMT:_trnsctrl_.obj
 0002:0000202c       ?ProcessAttach@NativeDll@<CrtImplementationDetails>@@0IB 1003a02c     LIBCMT:_trnsctrl_.obj
 0002:00002030       ?ThreadAttach@NativeDll@<CrtImplementationDetails>@@0IB 1003a030     LIBCMT:_trnsctrl_.obj
 0002:00002034       ?ThreadDetach@NativeDll@<CrtImplementationDetails>@@0IB 1003a034     LIBCMT:_trnsctrl_.obj
 0002:00002038       ?ProcessVerifier@NativeDll@<CrtImplementationDetails>@@0IB 1003a038     LIBCMT:_trnsctrl_.obj
 0002:0000203c       ?value@?$integral_constant@_N$0A@@std@@2_NB 1003a03c     LIBCMT:typinfo.obj
 0002:0000203d       ?value@?$integral_constant@_N$00@std@@2_NB 1003a03d     LIBCMT:typinfo.obj
 0002:00002044       ??_7type_info@@6B@         1003a044     LIBCMT:typinfo.obj
 0002:0000204c       ??_7bad_alloc@std@@6B@     1003a04c     LIBCMT:new.obj
 0002:00002054       ??_C@_0P@GHFPNOJB@bad?5allocation?$AA@ 1003a054     LIBCMT:new.obj
 0002:00002064       ??_C@_1M@PBPMMENC@?$AAa?$AAm?$AA?1?$AAp?$AAm?$AA?$AA@ 1003a064     LIBCMT:wcsftime.obj
 0002:00002070       ??_C@_17BLFJJHMM@?$AAa?$AA?1?$AAp?$AA?$AA@ 1003a070     LIBCMT:wcsftime.obj
 0002:00002078       ??_C@_0N@PPOMPGGK@RoInitialize?$AA@ 1003a078     LIBCMT:threadex.obj
 0002:00002088       ??_C@_1BI@IDAOOPDH@?$AAc?$AAo?$AAm?$AAb?$AAa?$AAs?$AAe?$AA?4?$AAd?$AAl?$AAl?$AA?$AA@ 1003a088     LIBCMT:threadex.obj
 0002:000020a0       ??_C@_0P@LLFHBIJD@RoUninitialize?$AA@ 1003a0a0     LIBCMT:threadex.obj
 0002:000020b0       __real@0000000000000000    1003a0b0     LIBCMT:hypot.obj
 0002:000020b8       __FPinit                   1003a0b8     LIBCMT:fpinit.obj
 0002:000020c4       __pRawDllMain              1003a0c4     LIBCMT:dllcrt0.obj
 0002:000020c4       __pDefaultRawDllMain       1003a0c4     LIBCMT:dllcrt0.obj
 0002:000020c8       ??_C@_08KNHFBNJ@FlsAlloc?$AA@ 1003a0c8     LIBCMT:winapisupp.obj
 0002:000020d4       ??_C@_07PEJMOBNF@FlsFree?$AA@ 1003a0d4     LIBCMT:winapisupp.obj
 0002:000020dc       ??_C@_0M@GDNOONDI@FlsGetValue?$AA@ 1003a0dc     LIBCMT:winapisupp.obj
 0002:000020e8       ??_C@_0M@JCPCPOEF@FlsSetValue?$AA@ 1003a0e8     LIBCMT:winapisupp.obj
 0002:000020f4       ??_C@_0BM@HCFOFFN@InitializeCriticalSectionEx?$AA@ 1003a0f4     LIBCMT:winapisupp.obj
 0002:00002110       ??_C@_0P@DLHPPCNH@CreateEventExW?$AA@ 1003a110     LIBCMT:winapisupp.obj
 0002:00002120       ??_C@_0BD@KIEEOEEH@CreateSemaphoreExW?$AA@ 1003a120     LIBCMT:winapisupp.obj
 0002:00002134       ??_C@_0BI@BKLFFAPO@SetThreadStackGuarantee?$AA@ 1003a134     LIBCMT:winapisupp.obj
 0002:0000214c       ??_C@_0BG@OGFAJCKC@CreateThreadpoolTimer?$AA@ 1003a14c     LIBCMT:winapisupp.obj
 0002:00002164       ??_C@_0BD@LPLEMMDI@SetThreadpoolTimer?$AA@ 1003a164     LIBCMT:winapisupp.obj
 0002:00002178       ??_C@_0CA@FMNJENH@WaitForThreadpoolTimerCallbacks?$AA@ 1003a178     LIBCMT:winapisupp.obj
 0002:00002198       ??_C@_0BF@DCFCCNOC@CloseThreadpoolTimer?$AA@ 1003a198     LIBCMT:winapisupp.obj
 0002:000021b0       ??_C@_0BF@FLABGKKM@CreateThreadpoolWait?$AA@ 1003a1b0     LIBCMT:winapisupp.obj
 0002:000021c8       ??_C@_0BC@MGCOHNA@SetThreadpoolWait?$AA@ 1003a1c8     LIBCMT:winapisupp.obj
 0002:000021dc       ??_C@_0BE@OCIOMIMP@CloseThreadpoolWait?$AA@ 1003a1dc     LIBCMT:winapisupp.obj
 0002:000021f0       ??_C@_0BJ@LKGHFHBO@FlushProcessWriteBuffers?$AA@ 1003a1f0     LIBCMT:winapisupp.obj
 0002:0000220c       ??_C@_0BP@KALKKPMO@FreeLibraryWhenCallbackReturns?$AA@ 1003a20c     LIBCMT:winapisupp.obj
 0002:0000222c       ??_C@_0BK@DFNBACLA@GetCurrentProcessorNumber?$AA@ 1003a22c     LIBCMT:winapisupp.obj
 0002:00002248       ??_C@_0BP@KHGALBC@GetLogicalProcessorInformation?$AA@ 1003a248     LIBCMT:winapisupp.obj
 0002:00002268       ??_C@_0BE@FKKLLFLM@CreateSymbolicLinkW?$AA@ 1003a268     LIBCMT:winapisupp.obj
 0002:0000227c       ??_C@_0BJ@OHNKDLIJ@SetDefaultDllDirectories?$AA@ 1003a27c     LIBCMT:winapisupp.obj
 0002:00002298       ??_C@_0BE@LJANKFHF@EnumSystemLocalesEx?$AA@ 1003a298     LIBCMT:winapisupp.obj
 0002:000022ac       ??_C@_0BA@IHGNDAEB@CompareStringEx?$AA@ 1003a2ac     LIBCMT:winapisupp.obj
 0002:000022bc       ??_C@_0BA@EPCJIIPD@GetDateFormatEx?$AA@ 1003a2bc     LIBCMT:winapisupp.obj
 0002:000022cc       ??_C@_0BA@ONOKGCMP@GetLocaleInfoEx?$AA@ 1003a2cc     LIBCMT:winapisupp.obj
 0002:000022dc       ??_C@_0BA@CIJJKCJJ@GetTimeFormatEx?$AA@ 1003a2dc     LIBCMT:winapisupp.obj
 0002:000022ec       ??_C@_0BJ@PBCCBIPI@GetUserDefaultLocaleName?$AA@ 1003a2ec     LIBCMT:winapisupp.obj
 0002:00002308       ??_C@_0BC@CELBKLLA@IsValidLocaleName?$AA@ 1003a308     LIBCMT:winapisupp.obj
 0002:0000231c       ??_C@_0O@KKBNKAPF@LCMapStringEx?$AA@ 1003a31c     LIBCMT:winapisupp.obj
 0002:0000232c       ??_C@_0BE@JOGNEJCI@GetCurrentPackageId?$AA@ 1003a32c     LIBCMT:winapisupp.obj
 0002:00002340       ??_C@_0P@CDHHOHKP@GetTickCount64?$AA@ 1003a340     LIBCMT:winapisupp.obj
 0002:00002350       ??_C@_0BO@KPCLFDJJ@GetFileInformationByHandleExW?$AA@ 1003a350     LIBCMT:winapisupp.obj
 0002:00002370       ??_C@_0BM@MHIDLABK@SetFileInformationByHandleW?$AA@ 1003a370     LIBCMT:winapisupp.obj
 0002:00002448       ??_C@_1FK@PGACCAFB@?$AAR?$AA6?$AA0?$AA0?$AA2?$AA?$AN?$AA?6?$AA?9?$AA?5?$AAf?$AAl?$AAo?$AAa?$AAt?$AAi?$AAn?$AAg?$AA?5?$AAp?$AAo?$AAi?$AAn?$AAt?$AA?5?$AAs?$AAu?$AAp?$AAp?$AAo?$AAr?$AAt?$AA?5@ 1003a448     LIBCMT:crt0msg.obj
 0002:000024a8       ??_C@_1FE@LLNEDJMD@?$AAR?$AA6?$AA0?$AA0?$AA8?$AA?$AN?$AA?6?$AA?9?$AA?5?$AAn?$AAo?$AAt?$AA?5?$AAe?$AAn?$AAo?$AAu?$AAg?$AAh?$AA?5?$AAs?$AAp?$AAa?$AAc?$AAe?$AA?5?$AAf?$AAo?$AAr?$AA?5?$AAa?$AAr@ 1003a4a8     LIBCMT:crt0msg.obj
 0002:00002500       ??_C@_1FI@HONFMGBI@?$AAR?$AA6?$AA0?$AA0?$AA9?$AA?$AN?$AA?6?$AA?9?$AA?5?$AAn?$AAo?$AAt?$AA?5?$AAe?$AAn?$AAo?$AAu?$AAg?$AAh?$AA?5?$AAs?$AAp?$AAa?$AAc?$AAe?$AA?5?$AAf?$AAo?$AAr?$AA?5?$AAe?$AAn@ 1003a500     LIBCMT:crt0msg.obj
 0002:00002558       ??_C@_1EG@BEHAGFJD@?$AAR?$AA6?$AA0?$AA1?$AA0?$AA?$AN?$AA?6?$AA?9?$AA?5?$AAa?$AAb?$AAo?$AAr?$AAt?$AA?$CI?$AA?$CJ?$AA?5?$AAh?$AAa?$AAs?$AA?5?$AAb?$AAe?$AAe?$AAn?$AA?5?$AAc?$AAa?$AAl?$AAl?$AAe?$AAd@ 1003a558     LIBCMT:crt0msg.obj
 0002:000025a0       ??_C@_1FI@LOGNIKDM@?$AAR?$AA6?$AA0?$AA1?$AA6?$AA?$AN?$AA?6?$AA?9?$AA?5?$AAn?$AAo?$AAt?$AA?5?$AAe?$AAn?$AAo?$AAu?$AAg?$AAh?$AA?5?$AAs?$AAp?$AAa?$AAc?$AAe?$AA?5?$AAf?$AAo?$AAr?$AA?5?$AAt?$AAh@ 1003a5a0     LIBCMT:crt0msg.obj
 0002:000025f8       ??_C@_1FK@BEOGODMC@?$AAR?$AA6?$AA0?$AA1?$AA7?$AA?$AN?$AA?6?$AA?9?$AA?5?$AAu?$AAn?$AAe?$AAx?$AAp?$AAe?$AAc?$AAt?$AAe?$AAd?$AA?5?$AAm?$AAu?$AAl?$AAt?$AAi?$AAt?$AAh?$AAr?$AAe?$AAa?$AAd?$AA?5@ 1003a5f8     LIBCMT:crt0msg.obj
 0002:00002658       ??_C@_1EC@JIBHAOPH@?$AAR?$AA6?$AA0?$AA1?$AA8?$AA?$AN?$AA?6?$AA?9?$AA?5?$AAu?$AAn?$AAe?$AAx?$AAp?$AAe?$AAc?$AAt?$AAe?$AAd?$AA?5?$AAh?$AAe?$AAa?$AAp?$AA?5?$AAe?$AAr?$AAr?$AAo?$AAr?$AA?$AN?$AA?6@ 1003a658     LIBCMT:crt0msg.obj
 0002:000026a0       ??_C@_1FC@ECHBIFBC@?$AAR?$AA6?$AA0?$AA1?$AA9?$AA?$AN?$AA?6?$AA?9?$AA?5?$AAu?$AAn?$AAa?$AAb?$AAl?$AAe?$AA?5?$AAt?$AAo?$AA?5?$AAo?$AAp?$AAe?$AAn?$AA?5?$AAc?$AAo?$AAn?$AAs?$AAo?$AAl?$AAe?$AA?5@ 1003a6a0     LIBCMT:crt0msg.obj
 0002:000026f8       ??_C@_1GK@FHCKBEFA@?$AAR?$AA6?$AA0?$AA2?$AA4?$AA?$AN?$AA?6?$AA?9?$AA?5?$AAn?$AAo?$AAt?$AA?5?$AAe?$AAn?$AAo?$AAu?$AAg?$AAh?$AA?5?$AAs?$AAp?$AAa?$AAc?$AAe?$AA?5?$AAf?$AAo?$AAr?$AA?5?$AA_?$AAo@ 1003a6f8     LIBCMT:crt0msg.obj
 0002:00002768       ??_C@_1EM@MAADIHMB@?$AAR?$AA6?$AA0?$AA2?$AA5?$AA?$AN?$AA?6?$AA?9?$AA?5?$AAp?$AAu?$AAr?$AAe?$AA?5?$AAv?$AAi?$AAr?$AAt?$AAu?$AAa?$AAl?$AA?5?$AAf?$AAu?$AAn?$AAc?$AAt?$AAi?$AAo?$AAn?$AA?5?$AAc@ 1003a768     LIBCMT:crt0msg.obj
 0002:000027b8       ??_C@_1GK@MCAAGJMO@?$AAR?$AA6?$AA0?$AA2?$AA6?$AA?$AN?$AA?6?$AA?9?$AA?5?$AAn?$AAo?$AAt?$AA?5?$AAe?$AAn?$AAo?$AAu?$AAg?$AAh?$AA?5?$AAs?$AAp?$AAa?$AAc?$AAe?$AA?5?$AAf?$AAo?$AAr?$AA?5?$AAs?$AAt@ 1003a7b8     LIBCMT:crt0msg.obj
 0002:00002828       ??_C@_1GK@MFGOKLAG@?$AAR?$AA6?$AA0?$AA2?$AA7?$AA?$AN?$AA?6?$AA?9?$AA?5?$AAn?$AAo?$AAt?$AA?5?$AAe?$AAn?$AAo?$AAu?$AAg?$AAh?$AA?5?$AAs?$AAp?$AAa?$AAc?$AAe?$AA?5?$AAf?$AAo?$AAr?$AA?5?$AAl?$AAo@ 1003a828     LIBCMT:crt0msg.obj
 0002:00002898       ??_C@_1EK@HHFLMAOL@?$AAR?$AA6?$AA0?$AA2?$AA8?$AA?$AN?$AA?6?$AA?9?$AA?5?$AAu?$AAn?$AAa?$AAb?$AAl?$AAe?$AA?5?$AAt?$AAo?$AA?5?$AAi?$AAn?$AAi?$AAt?$AAi?$AAa?$AAl?$AAi?$AAz?$AAe?$AA?5?$AAh?$AAe@ 1003a898     LIBCMT:crt0msg.obj
 0002:000028e4       ??_C@_1DO@BMFCDCD@?$AAR?$AA6?$AA0?$AA3?$AA0?$AA?$AN?$AA?6?$AA?9?$AA?5?$AAC?$AAR?$AAT?$AA?5?$AAn?$AAo?$AAt?$AA?5?$AAi?$AAn?$AAi?$AAt?$AAi?$AAa?$AAl?$AAi?$AAz?$AAe?$AAd?$AA?$AN?$AA?6?$AA?$AA@ 1003a8e4     LIBCMT:crt0msg.obj
 0002:00002928       ??_C@_1MG@ENCOOIDF@?$AAR?$AA6?$AA0?$AA3?$AA1?$AA?$AN?$AA?6?$AA?9?$AA?5?$AAA?$AAt?$AAt?$AAe?$AAm?$AAp?$AAt?$AA?5?$AAt?$AAo?$AA?5?$AAi?$AAn?$AAi?$AAt?$AAi?$AAa?$AAl?$AAi?$AAz?$AAe?$AA?5?$AAt@ 1003a928     LIBCMT:crt0msg.obj
 0002:000029f0       ??_C@_1GG@GOPILAJP@?$AAR?$AA6?$AA0?$AA3?$AA2?$AA?$AN?$AA?6?$AA?9?$AA?5?$AAn?$AAo?$AAt?$AA?5?$AAe?$AAn?$AAo?$AAu?$AAg?$AAh?$AA?5?$AAs?$AAp?$AAa?$AAc?$AAe?$AA?5?$AAf?$AAo?$AAr?$AA?5?$AAl?$AAo@ 1003a9f0     LIBCMT:crt0msg.obj
 0002:00002a58       ??_C@_1BOO@KGEDBGAJ@?$AAR?$AA6?$AA0?$AA3?$AA3?$AA?$AN?$AA?6?$AA?9?$AA?5?$AAA?$AAt?$AAt?$AAe?$AAm?$AAp?$AAt?$AA?5?$AAt?$AAo?$AA?5?$AAu?$AAs?$AAe?$AA?5?$AAM?$AAS?$AAI?$AAL?$AA?5?$AAc?$AAo?$AAd@ 1003aa58     LIBCMT:crt0msg.obj
 0002:00002c48       ??_C@_1GG@MKFPEKFO@?$AAR?$AA6?$AA0?$AA3?$AA4?$AA?$AN?$AA?6?$AA?9?$AA?5?$AAi?$AAn?$AAc?$AAo?$AAn?$AAs?$AAi?$AAs?$AAt?$AAe?$AAn?$AAt?$AA?5?$AAo?$AAn?$AAe?$AAx?$AAi?$AAt?$AA?5?$AAb?$AAe?$AAg@ 1003ac48     LIBCMT:crt0msg.obj
 0002:00002cb0       ??_C@_1BO@BFCDCGC@?$AAD?$AAO?$AAM?$AAA?$AAI?$AAN?$AA?5?$AAe?$AAr?$AAr?$AAo?$AAr?$AA?$AN?$AA?6?$AA?$AA@ 1003acb0     LIBCMT:crt0msg.obj
 0002:00002cd0       ??_C@_1BK@KMOMNAAI@?$AAS?$AAI?$AAN?$AAG?$AA?5?$AAe?$AAr?$AAr?$AAo?$AAr?$AA?$AN?$AA?6?$AA?$AA@ 1003acd0     LIBCMT:crt0msg.obj
 0002:00002cec       ??_C@_1BM@JBBEPPHI@?$AAT?$AAL?$AAO?$AAS?$AAS?$AA?5?$AAe?$AAr?$AAr?$AAo?$AAr?$AA?$AN?$AA?6?$AA?$AA@ 1003acec     LIBCMT:crt0msg.obj
 0002:00002d08       ??_C@_15JNBOKNOG@?$AA?$AN?$AA?6?$AA?$AA@ 1003ad08     LIBCMT:crt0msg.obj
 0002:00002d10       ??_C@_1BO@BKOMIGKJ@?$AAr?$AAu?$AAn?$AAt?$AAi?$AAm?$AAe?$AA?5?$AAe?$AAr?$AAr?$AAo?$AAr?$AA?5?$AA?$AA@ 1003ad10     LIBCMT:crt0msg.obj
 0002:00002d30       ??_C@_1DE@JNGNBFGO@?$AAR?$AAu?$AAn?$AAt?$AAi?$AAm?$AAe?$AA?5?$AAE?$AAr?$AAr?$AAo?$AAr?$AA?$CB?$AA?6?$AA?6?$AAP?$AAr?$AAo?$AAg?$AAr?$AAa?$AAm?$AA?3?$AA?5?$AA?$AA@ 1003ad30     LIBCMT:crt0msg.obj
 0002:00002d64       ??_C@_1CO@EAEJAADC@?$AA?$DM?$AAp?$AAr?$AAo?$AAg?$AAr?$AAa?$AAm?$AA?5?$AAn?$AAa?$AAm?$AAe?$AA?5?$AAu?$AAn?$AAk?$AAn?$AAo?$AAw?$AAn?$AA?$DO?$AA?$AA@ 1003ad64     LIBCMT:crt0msg.obj
 0002:00002d94       ??_C@_17LGKOMLJ@?$AA?4?$AA?4?$AA?4?$AA?$AA@ 1003ad94     LIBCMT:crt0msg.obj
 0002:00002d9c       ??_C@_15IABLJNFO@?$AA?6?$AA?6?$AA?$AA@ 1003ad9c     LIBCMT:crt0msg.obj
 0002:00002da8       ??_C@_1EK@MBDPDCGA@?$AAM?$AAi?$AAc?$AAr?$AAo?$AAs?$AAo?$AAf?$AAt?$AA?5?$AAV?$AAi?$AAs?$AAu?$AAa?$AAl?$AA?5?$AAC?$AA?$CL?$AA?$CL?$AA?5?$AAR?$AAu?$AAn?$AAt?$AAi?$AAm?$AAe?$AA?5?$AAL?$AAi?$AAb@ 1003ada8     LIBCMT:crt0msg.obj
 0002:00002df4       ??_C@_1BK@GAEMIDIL@?$AAA?$AAD?$AAV?$AAA?$AAP?$AAI?$AA3?$AA2?$AA?4?$AAD?$AAL?$AAL?$AA?$AA@ 1003adf4     LIBCMT:rand_s.obj
 0002:00002e10       ??_C@_0BC@JEAENNKH@SystemFunction036?$AA@ 1003ae10     LIBCMT:rand_s.obj
 0002:00002e34       ??_C@_1M@HPNHIDJI@?$AAj?$AAa?$AA?9?$AAJ?$AAP?$AA?$AA@ 1003ae34     LIBCMT:mbctype.obj
 0002:00002e40       ??_C@_1M@BIBDDEMK@?$AAz?$AAh?$AA?9?$AAC?$AAN?$AA?$AA@ 1003ae40     LIBCMT:mbctype.obj
 0002:00002e4c       ??_C@_1M@JLOOOEGK@?$AAk?$AAo?$AA?9?$AAK?$AAR?$AA?$AA@ 1003ae4c     LIBCMT:mbctype.obj
 0002:00002e58       ??_C@_1M@CLNBBOPM@?$AAz?$AAh?$AA?9?$AAT?$AAW?$AA?$AA@ 1003ae58     LIBCMT:mbctype.obj
 0002:00002e64       __pDestructExceptionObject 1003ae64     LIBCMT:frame.obj
 0002:00002e6c       ??_7bad_exception@std@@6B@ 1003ae6c     LIBCMT:frame.obj
 0002:00002e74       ??_C@_0O@DPKOEFFH@bad?5exception?$AA@ 1003ae74     LIBCMT:frame.obj
 0002:00002e88       ??_7exception@std@@6B@     1003ae88     LIBCMT:stdexcpt.obj
 0002:00002e90       ??_C@_0BC@EOODALEL@Unknown?5exception?$AA@ 1003ae90     LIBCMT:stdexcpt.obj
 0002:00002ea8       ??_7bad_cast@std@@6B@      1003aea8     LIBCMT:stdexcpt.obj
 0002:00002eb4       ??_7bad_typeid@std@@6B@    1003aeb4     LIBCMT:stdexcpt.obj
 0002:00002ec0       ??_7__non_rtti_object@std@@6B@ 1003aec0     LIBCMT:stdexcpt.obj
 0002:00002ec8       __real@00000000            1003aec8     LIBCMT:wcstoq.obj
 0002:00002ecc       ??_C@_03KOEHGMDN@Sun?$AA@  1003aecc     LIBCMT:nlsdata.obj
 0002:00002ed0       ??_C@_03PDAGKDH@Mon?$AA@   1003aed0     LIBCMT:nlsdata.obj
 0002:00002ed4       ??_C@_03NAGEINEP@Tue?$AA@  1003aed4     LIBCMT:nlsdata.obj
 0002:00002ed8       ??_C@_03MHOMLAJA@Wed?$AA@  1003aed8     LIBCMT:nlsdata.obj
 0002:00002edc       ??_C@_03IOFIKPDN@Thu?$AA@  1003aedc     LIBCMT:nlsdata.obj
 0002:00002ee0       ??_C@_03IDIOELNC@Fri?$AA@  1003aee0     LIBCMT:nlsdata.obj
 0002:00002ee4       ??_C@_03FEFJNEK@Sat?$AA@   1003aee4     LIBCMT:nlsdata.obj
 0002:00002ee8       ??_C@_06OOPIFAJ@Sunday?$AA@ 1003aee8     LIBCMT:nlsdata.obj
 0002:00002ef0       ??_C@_06JLEDEDGH@Monday?$AA@ 1003aef0     LIBCMT:nlsdata.obj
 0002:00002ef8       ??_C@_07BAAGCFCM@Tuesday?$AA@ 1003aef8     LIBCMT:nlsdata.obj
 0002:00002f00       ??_C@_09DLIGFAKA@Wednesday?$AA@ 1003af00     LIBCMT:nlsdata.obj
 0002:00002f0c       ??_C@_08HACCIKIA@Thursday?$AA@ 1003af0c     LIBCMT:nlsdata.obj
 0002:00002f18       ??_C@_06JECMNKMI@Friday?$AA@ 1003af18     LIBCMT:nlsdata.obj
 0002:00002f20       ??_C@_08INBOOONO@Saturday?$AA@ 1003af20     LIBCMT:nlsdata.obj
 0002:00002f2c       ??_C@_03JIHJHPIE@Jan?$AA@  1003af2c     LIBCMT:nlsdata.obj
 0002:00002f30       ??_C@_03HJBDCHOM@Feb?$AA@  1003af30     LIBCMT:nlsdata.obj
 0002:00002f34       ??_C@_03ODNJBKGA@Mar?$AA@  1003af34     LIBCMT:nlsdata.obj
 0002:00002f38       ??_C@_03LEOLGMJP@Apr?$AA@  1003af38     LIBCMT:nlsdata.obj
 0002:00002f3c       ??_C@_03CNMDKL@May?$AA@    1003af3c     LIBCMT:nlsdata.obj
 0002:00002f40       ??_C@_03IDFGHECI@Jun?$AA@  1003af40     LIBCMT:nlsdata.obj
 0002:00002f44       ??_C@_03LBGABGKK@Jul?$AA@  1003af44     LIBCMT:nlsdata.obj
 0002:00002f48       ??_C@_03IFJFEIGA@Aug?$AA@  1003af48     LIBCMT:nlsdata.obj
 0002:00002f4c       ??_C@_03GGCAPAJC@Sep?$AA@  1003af4c     LIBCMT:nlsdata.obj
 0002:00002f50       ??_C@_03BMAOKBAD@Oct?$AA@  1003af50     LIBCMT:nlsdata.obj
 0002:00002f54       ??_C@_03JPJOFNIA@Nov?$AA@  1003af54     LIBCMT:nlsdata.obj
 0002:00002f58       ??_C@_03MKABNOCG@Dec?$AA@  1003af58     LIBCMT:nlsdata.obj
 0002:00002f5c       ??_C@_07CGJPFGJA@January?$AA@ 1003af5c     LIBCMT:nlsdata.obj
 0002:00002f64       ??_C@_08GNJGEPFN@February?$AA@ 1003af64     LIBCMT:nlsdata.obj
 0002:00002f70       ??_C@_05HPCKOFNC@March?$AA@ 1003af70     LIBCMT:nlsdata.obj
 0002:00002f78       ??_C@_05DMJDNLEJ@April?$AA@ 1003af78     LIBCMT:nlsdata.obj
 0002:00002f80       ??_C@_04CNLMGBGM@June?$AA@ 1003af80     LIBCMT:nlsdata.obj
 0002:00002f88       ??_C@_04MIEPOIFP@July?$AA@ 1003af88     LIBCMT:nlsdata.obj
 0002:00002f90       ??_C@_06LBBHFDDG@August?$AA@ 1003af90     LIBCMT:nlsdata.obj
 0002:00002f98       ??_C@_09BHHEALKD@September?$AA@ 1003af98     LIBCMT:nlsdata.obj
 0002:00002fa4       ??_C@_07JJNFCEND@October?$AA@ 1003afa4     LIBCMT:nlsdata.obj
 0002:00002fac       ??_C@_08HCHEGEOA@November?$AA@ 1003afac     LIBCMT:nlsdata.obj
 0002:00002fb8       ??_C@_08EDHMEBNP@December?$AA@ 1003afb8     LIBCMT:nlsdata.obj
 0002:00002fc4       ??_C@_02DEDBPAFC@AM?$AA@   1003afc4     LIBCMT:nlsdata.obj
 0002:00002fc8       ??_C@_02CJNFDJBF@PM?$AA@   1003afc8     LIBCMT:nlsdata.obj
 0002:00002fcc       ??_C@_08BPBNCDIB@MM?1dd?1yy?$AA@ 1003afcc     LIBCMT:nlsdata.obj
 0002:00002fd8       ??_C@_0BE@CKGJFCPC@dddd?0?5MMMM?5dd?0?5yyyy?$AA@ 1003afd8     LIBCMT:nlsdata.obj
 0002:00002fec       ??_C@_08JCCMCCIL@HH?3mm?3ss?$AA@ 1003afec     LIBCMT:nlsdata.obj
 0002:00002ff8       ??_C@_17MBGCMIPB@?$AAS?$AAu?$AAn?$AA?$AA@ 1003aff8     LIBCMT:nlsdata.obj
 0002:00003000       ??_C@_17KBOMKBF@?$AAM?$AAo?$AAn?$AA?$AA@ 1003b000     LIBCMT:nlsdata.obj
 0002:00003008       ??_C@_17BMKGEGOJ@?$AAT?$AAu?$AAe?$AA?$AA@ 1003b008     LIBCMT:nlsdata.obj
 0002:00003010       ??_C@_17CJEDCEPE@?$AAW?$AAe?$AAd?$AA?$AA@ 1003b010     LIBCMT:nlsdata.obj
 0002:00003018       ??_C@_17PDPHAADD@?$AAT?$AAh?$AAu?$AA?$AA@ 1003b018     LIBCMT:nlsdata.obj
 0002:00003020       ??_C@_17HFOLPPLP@?$AAF?$AAr?$AAi?$AA?$AA@ 1003b020     LIBCMT:nlsdata.obj
 0002:00003028       ??_C@_17GGIBDPIH@?$AAS?$AAa?$AAt?$AA?$AA@ 1003b028     LIBCMT:nlsdata.obj
 0002:00003030       ??_C@_1O@IHNHDHPB@?$AAS?$AAu?$AAn?$AAd?$AAa?$AAy?$AA?$AA@ 1003b030     LIBCMT:nlsdata.obj
 0002:00003040       ??_C@_1O@MMNBFLIA@?$AAM?$AAo?$AAn?$AAd?$AAa?$AAy?$AA?$AA@ 1003b040     LIBCMT:nlsdata.obj
 0002:00003050       ??_C@_1BA@ENFBFFEK@?$AAT?$AAu?$AAe?$AAs?$AAd?$AAa?$AAy?$AA?$AA@ 1003b050     LIBCMT:nlsdata.obj
 0002:00003060       ??_C@_1BE@EBOGMDOH@?$AAW?$AAe?$AAd?$AAn?$AAe?$AAs?$AAd?$AAa?$AAy?$AA?$AA@ 1003b060     LIBCMT:nlsdata.obj
 0002:00003074       ??_C@_1BC@HHMNLIHE@?$AAT?$AAh?$AAu?$AAr?$AAs?$AAd?$AAa?$AAy?$AA?$AA@ 1003b074     LIBCMT:nlsdata.obj
 0002:00003088       ??_C@_1O@PDICJHAG@?$AAF?$AAr?$AAi?$AAd?$AAa?$AAy?$AA?$AA@ 1003b088     LIBCMT:nlsdata.obj
 0002:00003098       ??_C@_1BC@ENMNNPAJ@?$AAS?$AAa?$AAt?$AAu?$AAr?$AAd?$AAa?$AAy?$AA?$AA@ 1003b098     LIBCMT:nlsdata.obj
 0002:000030ac       ??_C@_17DKNBKCHM@?$AAJ?$AAa?$AAn?$AA?$AA@ 1003b0ac     LIBCMT:nlsdata.obj
 0002:000030b4       ??_C@_17LMDJEKJN@?$AAF?$AAe?$AAb?$AA?$AA@ 1003b0b4     LIBCMT:nlsdata.obj
 0002:000030bc       ??_C@_17CKNLEDEC@?$AAM?$AAa?$AAr?$AA?$AA@ 1003b0bc     LIBCMT:nlsdata.obj
 0002:000030c4       ??_C@_17LFPOIHDD@?$AAA?$AAp?$AAr?$AA?$AA@ 1003b0c4     LIBCMT:nlsdata.obj
 0002:000030cc       ??_C@_17PNNKMEED@?$AAM?$AAa?$AAy?$AA?$AA@ 1003b0cc     LIBCMT:nlsdata.obj
 0002:000030d4       ??_C@_17KCJGOCPB@?$AAJ?$AAu?$AAn?$AA?$AA@ 1003b0d4     LIBCMT:nlsdata.obj
 0002:000030dc       ??_C@_17IJPCKHK@?$AAJ?$AAu?$AAl?$AA?$AA@ 1003b0dc     LIBCMT:nlsdata.obj
 0002:000030e4       ??_C@_17ICPELBCN@?$AAA?$AAu?$AAg?$AA?$AA@ 1003b0e4     LIBCMT:nlsdata.obj
 0002:000030ec       ??_C@_17HCHCOKMG@?$AAS?$AAe?$AAp?$AA?$AA@ 1003b0ec     LIBCMT:nlsdata.obj
 0002:000030f4       ??_C@_17FNLKOI@?$AAO?$AAc?$AAt?$AA?$AA@ 1003b0f4     LIBCMT:nlsdata.obj
 0002:000030fc       ??_C@_17BBDMLCIG@?$AAN?$AAo?$AAv?$AA?$AA@ 1003b0fc     LIBCMT:nlsdata.obj
 0002:00003104       ??_C@_17EGKACKIF@?$AAD?$AAe?$AAc?$AA?$AA@ 1003b104     LIBCMT:nlsdata.obj
 0002:0000310c       ??_C@_1BA@EFMEIEBA@?$AAJ?$AAa?$AAn?$AAu?$AAa?$AAr?$AAy?$AA?$AA@ 1003b10c     LIBCMT:nlsdata.obj
 0002:0000311c       ??_C@_1BC@JGDDFFAM@?$AAF?$AAe?$AAb?$AAr?$AAu?$AAa?$AAr?$AAy?$AA?$AA@ 1003b11c     LIBCMT:nlsdata.obj
 0002:00003130       ??_C@_1M@IKEENEDF@?$AAM?$AAa?$AAr?$AAc?$AAh?$AA?$AA@ 1003b130     LIBCMT:nlsdata.obj
 0002:0000313c       ??_C@_1M@GJNLMHFD@?$AAA?$AAp?$AAr?$AAi?$AAl?$AA?$AA@ 1003b13c     LIBCMT:nlsdata.obj
 0002:00003148       ??_C@_19EPFLPGAP@?$AAJ?$AAu?$AAn?$AAe?$AA?$AA@ 1003b148     LIBCMT:nlsdata.obj
 0002:00003154       ??_C@_19BIFMLPCD@?$AAJ?$AAu?$AAl?$AAy?$AA?$AA@ 1003b154     LIBCMT:nlsdata.obj
 0002:00003160       ??_C@_1O@PAHLKOAC@?$AAA?$AAu?$AAg?$AAu?$AAs?$AAt?$AA?$AA@ 1003b160     LIBCMT:nlsdata.obj
 0002:00003170       ??_C@_1BE@DKAAMBJL@?$AAS?$AAe?$AAp?$AAt?$AAe?$AAm?$AAb?$AAe?$AAr?$AA?$AA@ 1003b170     LIBCMT:nlsdata.obj
 0002:00003184       ??_C@_1BA@EPANDLNG@?$AAO?$AAc?$AAt?$AAo?$AAb?$AAe?$AAr?$AA?$AA@ 1003b184     LIBCMT:nlsdata.obj
 0002:00003194       ??_C@_1BC@BGLIFPF@?$AAN?$AAo?$AAv?$AAe?$AAm?$AAb?$AAe?$AAr?$AA?$AA@ 1003b194     LIBCMT:nlsdata.obj
 0002:000031a8       ??_C@_1BC@FEMKIFH@?$AAD?$AAe?$AAc?$AAe?$AAm?$AAb?$AAe?$AAr?$AA?$AA@ 1003b1a8     LIBCMT:nlsdata.obj
 0002:000031bc       ??_C@_15ODEHAHHF@?$AAA?$AAM?$AA?$AA@ 1003b1bc     LIBCMT:nlsdata.obj
 0002:000031c4       ??_C@_15CLMNNGEL@?$AAP?$AAM?$AA?$AA@ 1003b1c4     LIBCMT:nlsdata.obj
 0002:000031cc       ??_C@_1BC@IEBCMHCM@?$AAM?$AAM?$AA?1?$AAd?$AAd?$AA?1?$AAy?$AAy?$AA?$AA@ 1003b1cc     LIBCMT:nlsdata.obj
 0002:000031e0       ??_C@_1CI@KNAKOEBC@?$AAd?$AAd?$AAd?$AAd?$AA?0?$AA?5?$AAM?$AAM?$AAM?$AAM?$AA?5?$AAd?$AAd?$AA?0?$AA?5?$AAy?$AAy?$AAy?$AAy?$AA?$AA@ 1003b1e0     LIBCMT:nlsdata.obj
 0002:00003208       ??_C@_1BC@GDGBMEMK@?$AAH?$AAH?$AA?3?$AAm?$AAm?$AA?3?$AAs?$AAs?$AA?$AA@ 1003b208     LIBCMT:nlsdata.obj
 0002:0000321c       ??_C@_1M@BMHNFIME@?$AAe?$AAn?$AA?9?$AAU?$AAS?$AA?$AA@ 1003b21c     LIBCMT:nlsdata.obj
 0002:00003260       ??_C@_02CLFPBFFP@TZ?$AA@   1003b260     LIBCMT:tzset.obj
 0002:00003264       ___dnames                  1003b264     LIBCMT:timeset.obj
 0002:0000327c       ___mnames                  1003b27c     LIBCMT:timeset.obj
 0002:000032a8       _LcidToLocaleNameTable     1003b2a8     LIBCMT:winapinls.obj
 0002:000039c8       _LocaleNameToIndexTable    1003b9c8     LIBCMT:winapinls.obj
 0002:000040e8       ??_C@_15EMKDOKLE@?$AAa?$AAr?$AA?$AA@ 1003c0e8     LIBCMT:winapinls.obj
 0002:000040f0       ??_C@_15KNPADPLH@?$AAb?$AAg?$AA?$AA@ 1003c0f0     LIBCMT:winapinls.obj
 0002:000040f8       ??_C@_15EDMHLDMO@?$AAc?$AAa?$AA?$AA@ 1003c0f8     LIBCMT:winapinls.obj
 0002:00004100       ??_C@_1O@BPEAJADD@?$AAz?$AAh?$AA?9?$AAC?$AAH?$AAS?$AA?$AA@ 1003c100     LIBCMT:winapinls.obj
 0002:00004110       ??_C@_15LJNHCMNK@?$AAc?$AAs?$AA?$AA@ 1003c110     LIBCMT:winapinls.obj
 0002:00004118       ??_C@_15FOMCIDHG@?$AAd?$AAa?$AA?$AA@ 1003c118     LIBCMT:winapinls.obj
 0002:00004120       ??_C@_15NBKABECB@?$AAd?$AAe?$AA?$AA@ 1003c120     LIBCMT:winapinls.obj
 0002:00004128       ??_C@_15GHPEIIAO@?$AAe?$AAl?$AA?$AA@ 1003c128     LIBCMT:winapinls.obj
 0002:00004130       ??_C@_15MNPNEAIF@?$AAe?$AAn?$AA?$AA@ 1003c130     LIBCMT:winapinls.obj
 0002:00004138       ??_C@_15GPIOMPMH@?$AAe?$AAs?$AA?$AA@ 1003c138     LIBCMT:winapinls.obj
 0002:00004140       ??_C@_15NGLOAKJC@?$AAf?$AAi?$AA?$AA@ 1003c140     LIBCMT:winapinls.obj
 0002:00004148       ??_C@_15FBKGNKAM@?$AAf?$AAr?$AA?$AA@ 1003c148     LIBCMT:winapinls.obj
 0002:00004150       ??_C@_15KGGCNEFK@?$AAh?$AAe?$AA?$AA@ 1003c150     LIBCMT:winapinls.obj
 0002:00004158       ??_C@_15PGHLIDMF@?$AAh?$AAu?$AA?$AA@ 1003c158     LIBCMT:winapinls.obj
 0002:00004160       ??_C@_15BIEMAPLM@?$AAi?$AAs?$AA?$AA@ 1003c160     LIBCMT:winapinls.obj
 0002:00004168       ??_C@_15IFJLDHAF@?$AAi?$AAt?$AA?$AA@ 1003c168     LIBCMT:winapinls.obj
 0002:00004170       ??_C@_15GEMIOCAG@?$AAj?$AAa?$AA?$AA@ 1003c170     LIBCMT:winapinls.obj
 0002:00004178       ??_C@_15EPELEGJA@?$AAk?$AAo?$AA?$AA@ 1003c178     LIBCMT:winapinls.obj
 0002:00004180       ??_C@_15NDDHIMN@?$AAn?$AAl?$AA?$AA@ 1003c180     LIBCMT:winapinls.obj
 0002:00004188       ??_C@_15BPIGNHCD@?$AAn?$AAo?$AA?$AA@ 1003c188     LIBCMT:winapinls.obj
 0002:00004190       ??_C@_15DEOPBLCG@?$AAp?$AAl?$AA?$AA@ 1003c190     LIBCMT:winapinls.obj
 0002:00004198       ??_C@_15KBECGEFG@?$AAp?$AAt?$AA?$AA@ 1003c198     LIBCMT:winapinls.obj
 0002:000041a0       ??_C@_15GLJCBFMD@?$AAr?$AAo?$AA?$AA@ 1003c1a0     LIBCMT:winapinls.obj
 0002:000041a8       ??_C@_15FEDGKCDI@?$AAr?$AAu?$AA?$AA@ 1003c1a8     LIBCMT:winapinls.obj
 0002:000041b0       ??_C@_15GLKMLLHM@?$AAh?$AAr?$AA?$AA@ 1003c1b0     LIBCMT:winapinls.obj
 0002:000041b8       ??_C@_15CPKMFBDB@?$AAs?$AAk?$AA?$AA@ 1003c1b8     LIBCMT:winapinls.obj
 0002:000041c0       ??_C@_15BAAIOGMK@?$AAs?$AAq?$AA?$AA@ 1003c1c0     LIBCMT:winapinls.obj
 0002:000041c8       ??_C@_15INNPNOHD@?$AAs?$AAv?$AA?$AA@ 1003c1c8     LIBCMT:winapinls.obj
 0002:000041d0       ??_C@_15CABMMOGH@?$AAt?$AAh?$AA?$AA@ 1003c1d0     LIBCMT:winapinls.obj
 0002:000041d8       ??_C@_15BPLIHJJM@?$AAt?$AAr?$AA?$AA@ 1003c1d8     LIBCMT:winapinls.obj
 0002:000041e0       ??_C@_15NEOEKKDJ@?$AAu?$AAr?$AA?$AA@ 1003c1e0     LIBCMT:winapinls.obj
 0002:000041e8       ??_C@_15NFICGAJK@?$AAi?$AAd?$AA?$AA@ 1003c1e8     LIBCMT:winapinls.obj
 0002:000041f0       ??_C@_15PJPFLCCM@?$AAu?$AAk?$AA?$AA@ 1003c1f0     LIBCMT:winapinls.obj
 0002:000041f8       ??_C@_15HPJPHDM@?$AAb?$AAe?$AA?$AA@ 1003c1f8     LIBCMT:winapinls.obj
 0002:00004200       ??_C@_15LCHLGJII@?$AAs?$AAl?$AA?$AA@ 1003c200     LIBCMT:winapinls.obj
 0002:00004208       ??_C@_15PCFJPHHO@?$AAe?$AAt?$AA?$AA@ 1003c208     LIBCMT:winapinls.obj
 0002:00004210       ??_C@_15HPFPGODN@?$AAl?$AAv?$AA?$AA@ 1003c210     LIBCMT:winapinls.obj
 0002:00004218       ??_C@_15NFFGKGLG@?$AAl?$AAt?$AA?$AA@ 1003c218     LIBCMT:winapinls.obj
 0002:00004220       ??_C@_15BDAKCCHN@?$AAf?$AAa?$AA?$AA@ 1003c220     LIBCMT:winapinls.obj
 0002:00004228       ??_C@_15NFGIAIAJ@?$AAv?$AAi?$AA?$AA@ 1003c228     LIBCMT:winapinls.obj
 0002:00004230       ??_C@_15LMKNDMHN@?$AAh?$AAy?$AA?$AA@ 1003c230     LIBCMT:winapinls.obj
 0002:00004238       ??_C@_15IJBHMCFL@?$AAa?$AAz?$AA?$AA@ 1003c238     LIBCMT:winapinls.obj
 0002:00004240       ??_C@_15EKOFJABL@?$AAe?$AAu?$AA?$AA@ 1003c240     LIBCMT:winapinls.obj
 0002:00004248       ??_C@_15BGHADCNK@?$AAm?$AAk?$AA?$AA@ 1003c248     LIBCMT:winapinls.obj
 0002:00004250       ??_C@_15JDNICKHM@?$AAa?$AAf?$AA?$AA@ 1003c250     LIBCMT:winapinls.obj
 0002:00004258       ??_C@_15KPJEDBKD@?$AAk?$AAa?$AA?$AA@ 1003c258     LIBCMT:winapinls.obj
 0002:00004260       ??_C@_15PDNFFFEO@?$AAf?$AAo?$AA?$AA@ 1003c260     LIBCMT:winapinls.obj
 0002:00004268       ??_C@_15OMLEGLOC@?$AAh?$AAi?$AA?$AA@ 1003c268     LIBCMT:winapinls.obj
 0002:00004270       ??_C@_15IDNNENKK@?$AAm?$AAs?$AA?$AA@ 1003c270     LIBCMT:winapinls.obj
 0002:00004278       ??_C@_15MACJNBMH@?$AAk?$AAk?$AA?$AA@ 1003c278     LIBCMT:winapinls.obj
 0002:00004280       ??_C@_15DKDJEOND@?$AAk?$AAy?$AA?$AA@ 1003c280     LIBCMT:winapinls.obj
 0002:00004288       ??_C@_15DFGDLJBG@?$AAs?$AAw?$AA?$AA@ 1003c288     LIBCMT:winapinls.obj
 0002:00004290       ??_C@_15BBFAICNG@?$AAu?$AAz?$AA?$AA@ 1003c290     LIBCMT:winapinls.obj
 0002:00004298       ??_C@_15DKNDCGEA@?$AAt?$AAt?$AA?$AA@ 1003c298     LIBCMT:winapinls.obj
 0002:000042a0       ??_C@_15MGIFMDPL@?$AAp?$AAa?$AA?$AA@ 1003c2a0     LIBCMT:winapinls.obj
 0002:000042a8       ??_C@_15HCNDBBA@?$AAg?$AAu?$AA?$AA@ 1003c2a8     LIBCMT:winapinls.obj
 0002:000042b0       ??_C@_15FNBEIBON@?$AAt?$AAa?$AA?$AA@ 1003c2b0     LIBCMT:winapinls.obj
 0002:000042b8       ??_C@_15NCHGBGLK@?$AAt?$AAe?$AA?$AA@ 1003c2b8     LIBCMT:winapinls.obj
 0002:000042c0       ??_C@_15PHPHCBPF@?$AAk?$AAn?$AA?$AA@ 1003c2c0     LIBCMT:winapinls.obj
 0002:000042c8       ??_C@_15DLGBCKMP@?$AAm?$AAr?$AA?$AA@ 1003c2c8     LIBCMT:winapinls.obj
 0002:000042d0       ??_C@_15EABBLBFF@?$AAs?$AAa?$AA?$AA@ 1003c2d0     LIBCMT:winapinls.obj
 0002:000042d8       ??_C@_15CBKOMCOI@?$AAm?$AAn?$AA?$AA@ 1003c2d8     LIBCMT:winapinls.obj
 0002:000042e0       ??_C@_15CKDMCJAF@?$AAg?$AAl?$AA?$AA@ 1003c2e0     LIBCMT:winapinls.obj
 0002:000042e8       ??_C@_17CNJFBPG@?$AAk?$AAo?$AAk?$AA?$AA@ 1003c2e8     LIBCMT:winapinls.obj
 0002:000042f0       ??_C@_17FFBJICPL@?$AAs?$AAy?$AAr?$AA?$AA@ 1003c2f0     LIBCMT:winapinls.obj
 0002:000042f8       ??_C@_17KPNDCPAF@?$AAd?$AAi?$AAv?$AA?$AA@ 1003c2f8     LIBCMT:winapinls.obj
 0002:00004300       ??_C@_1M@OKAHONE@?$AAa?$AAr?$AA?9?$AAS?$AAA?$AA?$AA@ 1003c300     LIBCMT:winapinls.obj
 0002:0000430c       ??_C@_1M@FFFIGIGK@?$AAb?$AAg?$AA?9?$AAB?$AAG?$AA?$AA@ 1003c30c     LIBCMT:winapinls.obj
 0002:00004318       ??_C@_1M@BJNKEDC@?$AAc?$AAa?$AA?9?$AAE?$AAS?$AA?$AA@ 1003c318     LIBCMT:winapinls.obj
 0002:00004324       ??_C@_1M@IJJHFJHA@?$AAc?$AAs?$AA?9?$AAC?$AAZ?$AA?$AA@ 1003c324     LIBCMT:winapinls.obj
 0002:00004330       ??_C@_1M@CLPEOBGI@?$AAd?$AAa?$AA?9?$AAD?$AAK?$AA?$AA@ 1003c330     LIBCMT:winapinls.obj
 0002:0000433c       ??_C@_1M@MCMADGCB@?$AAd?$AAe?$AA?9?$AAD?$AAE?$AA?$AA@ 1003c33c     LIBCMT:winapinls.obj
 0002:00004348       ??_C@_1M@OOCKEMAM@?$AAe?$AAl?$AA?9?$AAG?$AAR?$AA?$AA@ 1003c348     LIBCMT:winapinls.obj
 0002:00004354       ??_C@_1M@DDNJFGID@?$AAf?$AAi?$AA?9?$AAF?$AAI?$AA?$AA@ 1003c354     LIBCMT:winapinls.obj
 0002:00004360       ??_C@_1M@GLIPPMAC@?$AAf?$AAr?$AA?9?$AAF?$AAR?$AA?$AA@ 1003c360     LIBCMT:winapinls.obj
 0002:0000436c       ??_C@_1M@GFMCHPE@?$AAh?$AAe?$AA?9?$AAI?$AAL?$AA?$AA@ 1003c36c     LIBCMT:winapinls.obj
 0002:00004378       ??_C@_1M@MHLPGNKM@?$AAh?$AAu?$AA?9?$AAH?$AAU?$AA?$AA@ 1003c378     LIBCMT:winapinls.obj
 0002:00004384       ??_C@_1M@LPDDNNPN@?$AAi?$AAs?$AA?9?$AAI?$AAS?$AA?$AA@ 1003c384     LIBCMT:winapinls.obj
 0002:00004390       ??_C@_1M@MADIPODN@?$AAi?$AAt?$AA?9?$AAI?$AAT?$AA?$AA@ 1003c390     LIBCMT:winapinls.obj
 0002:0000439c       ??_C@_1M@IHBJJGG@?$AAn?$AAl?$AA?9?$AAN?$AAL?$AA?$AA@ 1003c39c     LIBCMT:winapinls.obj
 0002:000043a8       ??_C@_1M@EANAGDL@?$AAn?$AAb?$AA?9?$AAN?$AAO?$AA?$AA@ 1003c3a8     LIBCMT:winapinls.obj
 0002:000043b4       ??_C@_1M@NEIEMEGP@?$AAp?$AAl?$AA?9?$AAP?$AAL?$AA?$AA@ 1003c3b4     LIBCMT:winapinls.obj
 0002:000043c0       ??_C@_1M@BOCFIGEP@?$AAp?$AAt?$AA?9?$AAB?$AAR?$AA?$AA@ 1003c3c0     LIBCMT:winapinls.obj
 0002:000043cc       ??_C@_1M@IMPFOPBG@?$AAr?$AAo?$AA?9?$AAR?$AAO?$AA?$AA@ 1003c3cc     LIBCMT:winapinls.obj
 0002:000043d8       ??_C@_1M@IDNNEJMM@?$AAr?$AAu?$AA?9?$AAR?$AAU?$AA?$AA@ 1003c3d8     LIBCMT:winapinls.obj
 0002:000043e4       ??_C@_1M@LILEEOGM@?$AAh?$AAr?$AA?9?$AAH?$AAR?$AA?$AA@ 1003c3e4     LIBCMT:winapinls.obj
 0002:000043f0       ??_C@_1M@FKIFEHPB@?$AAs?$AAk?$AA?9?$AAS?$AAK?$AA?$AA@ 1003c3f0     LIBCMT:winapinls.obj
 0002:000043fc       ??_C@_1M@LJMAMNPJ@?$AAs?$AAq?$AA?9?$AAA?$AAL?$AA?$AA@ 1003c3fc     LIBCMT:winapinls.obj
 0002:00004408       ??_C@_1M@GIAKDKJK@?$AAs?$AAv?$AA?9?$AAS?$AAE?$AA?$AA@ 1003c408     LIBCMT:winapinls.obj
 0002:00004414       ??_C@_1M@MKJKIKCL@?$AAt?$AAh?$AA?9?$AAT?$AAH?$AA?$AA@ 1003c414     LIBCMT:winapinls.obj
 0002:00004420       ??_C@_1M@MFLCCMPB@?$AAt?$AAr?$AA?9?$AAT?$AAR?$AA?$AA@ 1003c420     LIBCMT:winapinls.obj
 0002:0000442c       ??_C@_1M@OIJHDKJN@?$AAu?$AAr?$AA?9?$AAP?$AAK?$AA?$AA@ 1003c42c     LIBCMT:winapinls.obj
 0002:00004438       ??_C@_1M@LHIPCIEK@?$AAi?$AAd?$AA?9?$AAI?$AAD?$AA?$AA@ 1003c438     LIBCMT:winapinls.obj
 0002:00004444       ??_C@_1M@MFMOBGI@?$AAu?$AAk?$AA?9?$AAU?$AAA?$AA?$AA@ 1003c444     LIBCMT:winapinls.obj
 0002:00004450       ??_C@_1M@OBGLJIPL@?$AAb?$AAe?$AA?9?$AAB?$AAY?$AA?$AA@ 1003c450     LIBCMT:winapinls.obj
 0002:0000445c       ??_C@_1M@BCFAJEAD@?$AAs?$AAl?$AA?9?$AAS?$AAI?$AA?$AA@ 1003c45c     LIBCMT:winapinls.obj
 0002:00004468       ??_C@_1M@FKFFEDDN@?$AAe?$AAt?$AA?9?$AAE?$AAE?$AA?$AA@ 1003c468     LIBCMT:winapinls.obj
 0002:00004474       ??_C@_1M@KGKKAACI@?$AAl?$AAv?$AA?9?$AAL?$AAV?$AA?$AA@ 1003c474     LIBCMT:winapinls.obj
 0002:00004480       ??_C@_1M@IFGBIJO@?$AAl?$AAt?$AA?9?$AAL?$AAT?$AA?$AA@ 1003c480     LIBCMT:winapinls.obj
 0002:0000448c       ??_C@_1M@FGEAHEDM@?$AAf?$AAa?$AA?9?$AAI?$AAR?$AA?$AA@ 1003c48c     LIBCMT:winapinls.obj
 0002:00004498       ??_C@_1M@KBMAIBFN@?$AAv?$AAi?$AA?9?$AAV?$AAN?$AA?$AA@ 1003c498     LIBCMT:winapinls.obj
 0002:000044a4       ??_C@_1M@GPCBKDJK@?$AAh?$AAy?$AA?9?$AAA?$AAM?$AA?$AA@ 1003c4a4     LIBCMT:winapinls.obj
 0002:000044b0       ??_C@_1BG@BECMDDJB@?$AAa?$AAz?$AA?9?$AAA?$AAZ?$AA?9?$AAL?$AAa?$AAt?$AAn?$AA?$AA@ 1003c4b0     LIBCMT:winapinls.obj
 0002:000044c8       ??_C@_1M@MAOFCAEA@?$AAe?$AAu?$AA?9?$AAE?$AAS?$AA?$AA@ 1003c4c8     LIBCMT:winapinls.obj
 0002:000044d4       ??_C@_1M@IGHABKPI@?$AAm?$AAk?$AA?9?$AAM?$AAK?$AA?$AA@ 1003c4d4     LIBCMT:winapinls.obj
 0002:000044e0       ??_C@_1M@IAIGNEJG@?$AAt?$AAn?$AA?9?$AAZ?$AAA?$AA?$AA@ 1003c4e0     LIBCMT:winapinls.obj
 0002:000044ec       ??_C@_1M@IIJCOJFA@?$AAx?$AAh?$AA?9?$AAZ?$AAA?$AA?$AA@ 1003c4ec     LIBCMT:winapinls.obj
 0002:000044f8       ??_C@_1M@LGPJHNJH@?$AAz?$AAu?$AA?9?$AAZ?$AAA?$AA?$AA@ 1003c4f8     LIBCMT:winapinls.obj
 0002:00004504       ??_C@_1M@HOKAOIO@?$AAa?$AAf?$AA?9?$AAZ?$AAA?$AA?$AA@ 1003c504     LIBCMT:winapinls.obj
 0002:00004510       ??_C@_1M@DPCLHLIE@?$AAk?$AAa?$AA?9?$AAG?$AAE?$AA?$AA@ 1003c510     LIBCMT:winapinls.obj
 0002:0000451c       ??_C@_1M@BLKMHJBI@?$AAf?$AAo?$AA?9?$AAF?$AAO?$AA?$AA@ 1003c51c     LIBCMT:winapinls.obj
 0002:00004528       ??_C@_1M@LGGJAPPB@?$AAh?$AAi?$AA?9?$AAI?$AAN?$AA?$AA@ 1003c528     LIBCMT:winapinls.obj
 0002:00004534       ??_C@_1M@FIKPIHFE@?$AAm?$AAt?$AA?9?$AAM?$AAT?$AA?$AA@ 1003c534     LIBCMT:winapinls.obj
 0002:00004540       ??_C@_1M@HEGGPBFA@?$AAs?$AAe?$AA?9?$AAN?$AAO?$AA?$AA@ 1003c540     LIBCMT:winapinls.obj
 0002:0000454c       ??_C@_1M@EIBJEEPA@?$AAm?$AAs?$AA?9?$AAM?$AAY?$AA?$AA@ 1003c54c     LIBCMT:winapinls.obj
 0002:00004558       ??_C@_1M@FHLBGMPP@?$AAk?$AAk?$AA?9?$AAK?$AAZ?$AA?$AA@ 1003c558     LIBCMT:winapinls.obj
 0002:00004564       ??_C@_1M@NGJJLCGI@?$AAk?$AAy?$AA?9?$AAK?$AAG?$AA?$AA@ 1003c564     LIBCMT:winapinls.obj
 0002:00004570       ??_C@_1M@GIENNBFC@?$AAs?$AAw?$AA?9?$AAK?$AAE?$AA?$AA@ 1003c570     LIBCMT:winapinls.obj
 0002:0000457c       ??_C@_1BG@NDGMJIMJ@?$AAu?$AAz?$AA?9?$AAU?$AAZ?$AA?9?$AAL?$AAa?$AAt?$AAn?$AA?$AA@ 1003c57c     LIBCMT:winapinls.obj
 0002:00004594       ??_C@_1M@IDCCIHBC@?$AAt?$AAt?$AA?9?$AAR?$AAU?$AA?$AA@ 1003c594     LIBCMT:winapinls.obj
 0002:000045a0       ??_C@_1M@LOICPMOJ@?$AAb?$AAn?$AA?9?$AAI?$AAN?$AA?$AA@ 1003c5a0     LIBCMT:winapinls.obj
 0002:000045ac       ??_C@_1M@KPKKNEAH@?$AAp?$AAa?$AA?9?$AAI?$AAN?$AA?$AA@ 1003c5ac     LIBCMT:winapinls.obj
 0002:000045b8       ??_C@_1M@PJGPPBOG@?$AAg?$AAu?$AA?9?$AAI?$AAN?$AA?$AA@ 1003c5b8     LIBCMT:winapinls.obj
 0002:000045c4       ??_C@_1M@KMKMOPHI@?$AAt?$AAa?$AA?9?$AAI?$AAN?$AA?$AA@ 1003c5c4     LIBCMT:winapinls.obj
 0002:000045d0       ??_C@_1M@KFEHEPAC@?$AAt?$AAe?$AA?9?$AAI?$AAN?$AA?$AA@ 1003c5d0     LIBCMT:winapinls.obj
 0002:000045dc       ??_C@_1M@CDCLMGHI@?$AAk?$AAn?$AA?9?$AAI?$AAN?$AA?$AA@ 1003c5dc     LIBCMT:winapinls.obj
 0002:000045e8       ??_C@_1M@MIODLDKF@?$AAm?$AAl?$AA?9?$AAI?$AAN?$AA?$AA@ 1003c5e8     LIBCMT:winapinls.obj
 0002:000045f4       ??_C@_1M@PBIEACPO@?$AAm?$AAr?$AA?9?$AAI?$AAN?$AA?$AA@ 1003c5f4     LIBCMT:winapinls.obj
 0002:00004600       ??_C@_1M@NIDEAGPH@?$AAs?$AAa?$AA?9?$AAI?$AAN?$AA?$AA@ 1003c600     LIBCMT:winapinls.obj
 0002:0000460c       ??_C@_1M@FHIHCBIO@?$AAm?$AAn?$AA?9?$AAM?$AAN?$AA?$AA@ 1003c60c     LIBCMT:winapinls.obj
 0002:00004618       ??_C@_1M@JAIJPENP@?$AAc?$AAy?$AA?9?$AAG?$AAB?$AA?$AA@ 1003c618     LIBCMT:winapinls.obj
 0002:00004624       ??_C@_1M@PHGFBEPN@?$AAg?$AAl?$AA?9?$AAE?$AAS?$AA?$AA@ 1003c624     LIBCMT:winapinls.obj
 0002:00004630       ??_C@_1O@KPIPDNCP@?$AAk?$AAo?$AAk?$AA?9?$AAI?$AAN?$AA?$AA@ 1003c630     LIBCMT:winapinls.obj
 0002:00004640       ??_C@_1O@KNHJLDJA@?$AAs?$AAy?$AAr?$AA?9?$AAS?$AAY?$AA?$AA@ 1003c640     LIBCMT:winapinls.obj
 0002:00004650       ??_C@_1O@MKEKBLAH@?$AAd?$AAi?$AAv?$AA?9?$AAM?$AAV?$AA?$AA@ 1003c650     LIBCMT:winapinls.obj
 0002:00004660       ??_C@_1O@OHDCKDDF@?$AAq?$AAu?$AAz?$AA?9?$AAB?$AAO?$AA?$AA@ 1003c660     LIBCMT:winapinls.obj
 0002:00004670       ??_C@_1M@LEPJNLFD@?$AAn?$AAs?$AA?9?$AAZ?$AAA?$AA?$AA@ 1003c670     LIBCMT:winapinls.obj
 0002:0000467c       ??_C@_1M@OMLEIIJB@?$AAm?$AAi?$AA?9?$AAN?$AAZ?$AA?$AA@ 1003c67c     LIBCMT:winapinls.obj
 0002:00004688       ??_C@_1M@PMPEAILG@?$AAa?$AAr?$AA?9?$AAI?$AAQ?$AA?$AA@ 1003c688     LIBCMT:winapinls.obj
 0002:00004694       ??_C@_1M@CNKPNOEE@?$AAd?$AAe?$AA?9?$AAC?$AAH?$AA?$AA@ 1003c694     LIBCMT:winapinls.obj
 0002:000046a0       ??_C@_1M@LKMGMLKO@?$AAe?$AAn?$AA?9?$AAG?$AAB?$AA?$AA@ 1003c6a0     LIBCMT:winapinls.obj
 0002:000046ac       ??_C@_1M@PGKJFFGL@?$AAe?$AAs?$AA?9?$AAM?$AAX?$AA?$AA@ 1003c6ac     LIBCMT:winapinls.obj
 0002:000046b8       ??_C@_1M@DNNANBDC@?$AAf?$AAr?$AA?9?$AAB?$AAE?$AA?$AA@ 1003c6b8     LIBCMT:winapinls.obj
 0002:000046c4       ??_C@_1M@HLGMDFHM@?$AAi?$AAt?$AA?9?$AAC?$AAH?$AA?$AA@ 1003c6c4     LIBCMT:winapinls.obj
 0002:000046d0       ??_C@_1M@CLLBGJH@?$AAn?$AAl?$AA?9?$AAB?$AAE?$AA?$AA@ 1003c6d0     LIBCMT:winapinls.obj
 0002:000046dc       ??_C@_1M@BODBOGLF@?$AAn?$AAn?$AA?9?$AAN?$AAO?$AA?$AA@ 1003c6dc     LIBCMT:winapinls.obj
 0002:000046e8       ??_C@_1M@HFFAHKAD@?$AAp?$AAt?$AA?9?$AAP?$AAT?$AA?$AA@ 1003c6e8     LIBCMT:winapinls.obj
 0002:000046f4       ??_C@_1BG@LNOAKHIE@?$AAs?$AAr?$AA?9?$AAS?$AAP?$AA?9?$AAL?$AAa?$AAt?$AAn?$AA?$AA@ 1003c6f4     LIBCMT:winapinls.obj
 0002:0000470c       ??_C@_1M@HBMHBGAK@?$AAs?$AAv?$AA?9?$AAF?$AAI?$AA?$AA@ 1003c70c     LIBCMT:winapinls.obj
 0002:00004718       ??_C@_1BG@DGCJGJBE@?$AAa?$AAz?$AA?9?$AAA?$AAZ?$AA?9?$AAC?$AAy?$AAr?$AAl?$AA?$AA@ 1003c718     LIBCMT:winapinls.obj
 0002:00004730       ??_C@_1M@KEJDAAHB@?$AAs?$AAe?$AA?9?$AAS?$AAE?$AA?$AA@ 1003c730     LIBCMT:winapinls.obj
 0002:0000473c       ??_C@_1M@HEIBJJAD@?$AAm?$AAs?$AA?9?$AAB?$AAN?$AA?$AA@ 1003c73c     LIBCMT:winapinls.obj
 0002:00004748       ??_C@_1BG@PBGJMCEM@?$AAu?$AAz?$AA?9?$AAU?$AAZ?$AA?9?$AAC?$AAy?$AAr?$AAl?$AA?$AA@ 1003c748     LIBCMT:winapinls.obj
 0002:00004760       ??_C@_1O@LAOBCMDF@?$AAq?$AAu?$AAz?$AA?9?$AAE?$AAC?$AA?$AA@ 1003c760     LIBCMT:winapinls.obj
 0002:00004770       ??_C@_1M@POEEMAIO@?$AAa?$AAr?$AA?9?$AAE?$AAG?$AA?$AA@ 1003c770     LIBCMT:winapinls.obj
 0002:0000477c       ??_C@_1M@EFAKDEDL@?$AAz?$AAh?$AA?9?$AAH?$AAK?$AA?$AA@ 1003c77c     LIBCMT:winapinls.obj
 0002:00004788       ??_C@_1M@HKKIJHGI@?$AAd?$AAe?$AA?9?$AAA?$AAT?$AA?$AA@ 1003c788     LIBCMT:winapinls.obj
 0002:00004794       ??_C@_1M@KBFBEHJF@?$AAe?$AAn?$AA?9?$AAA?$AAU?$AA?$AA@ 1003c794     LIBCMT:winapinls.obj
 0002:000047a0       ??_C@_1M@MNPLFAAH@?$AAe?$AAs?$AA?9?$AAE?$AAS?$AA?$AA@ 1003c7a0     LIBCMT:winapinls.obj
 0002:000047ac       ??_C@_1M@HJOOJFMA@?$AAf?$AAr?$AA?9?$AAC?$AAA?$AA?$AA@ 1003c7ac     LIBCMT:winapinls.obj
 0002:000047b8       ??_C@_1BG@JPOFPNAB@?$AAs?$AAr?$AA?9?$AAS?$AAP?$AA?9?$AAC?$AAy?$AAr?$AAl?$AA?$AA@ 1003c7b8     LIBCMT:winapinls.obj
 0002:000047d0       ??_C@_1M@LNFOCMOB@?$AAs?$AAe?$AA?9?$AAF?$AAI?$AA?$AA@ 1003c7d0     LIBCMT:winapinls.obj
 0002:000047dc       ??_C@_1O@MGJBOAMB@?$AAq?$AAu?$AAz?$AA?9?$AAP?$AAE?$AA?$AA@ 1003c7dc     LIBCMT:winapinls.obj
 0002:000047ec       ??_C@_1M@GJINLBOK@?$AAa?$AAr?$AA?9?$AAL?$AAY?$AA?$AA@ 1003c7ec     LIBCMT:winapinls.obj
 0002:000047f8       ??_C@_1M@GGMNHJNL@?$AAz?$AAh?$AA?9?$AAS?$AAG?$AA?$AA@ 1003c7f8     LIBCMT:winapinls.obj
 0002:00004804       ??_C@_1M@HOIKODND@?$AAd?$AAe?$AA?9?$AAL?$AAU?$AA?$AA@ 1003c804     LIBCMT:winapinls.obj
 0002:00004810       ??_C@_1M@DDOCCGFG@?$AAe?$AAn?$AA?9?$AAC?$AAA?$AA?$AA@ 1003c810     LIBCMT:winapinls.obj
 0002:0000481c       ??_C@_1M@BNOEMJLF@?$AAe?$AAs?$AA?9?$AAG?$AAT?$AA?$AA@ 1003c81c     LIBCMT:winapinls.obj
 0002:00004828       ??_C@_1M@EOGNKEK@?$AAf?$AAr?$AA?9?$AAC?$AAH?$AA?$AA@ 1003c828     LIBCMT:winapinls.obj
 0002:00004834       ??_C@_1M@FLIDJFHL@?$AAh?$AAr?$AA?9?$AAB?$AAA?$AA?$AA@ 1003c834     LIBCMT:winapinls.obj
 0002:00004840       ??_C@_1O@FMCELNAJ@?$AAs?$AAm?$AAj?$AA?9?$AAN?$AAO?$AA?$AA@ 1003c840     LIBCMT:winapinls.obj
 0002:00004850       ??_C@_1M@JHGLJMGJ@?$AAa?$AAr?$AA?9?$AAD?$AAZ?$AA?$AA@ 1003c850     LIBCMT:winapinls.obj
 0002:0000485c       ??_C@_1M@JKKFDCNP@?$AAz?$AAh?$AA?9?$AAM?$AAO?$AA?$AA@ 1003c85c     LIBCMT:winapinls.obj
 0002:00004868       ??_C@_1M@GEEFALPE@?$AAd?$AAe?$AA?9?$AAL?$AAI?$AA?$AA@ 1003c868     LIBCMT:winapinls.obj
 0002:00004874       ??_C@_1M@IGEOFBG@?$AAe?$AAn?$AA?9?$AAN?$AAZ?$AA?$AA@ 1003c874     LIBCMT:winapinls.obj
 0002:00004880       ??_C@_1M@KDBONEHP@?$AAe?$AAs?$AA?9?$AAC?$AAR?$AA?$AA@ 1003c880     LIBCMT:winapinls.obj
 0002:0000488c       ??_C@_1M@FHMDOHNN@?$AAf?$AAr?$AA?9?$AAL?$AAU?$AA?$AA@ 1003c88c     LIBCMT:winapinls.obj
 0002:00004898       ??_C@_1BG@NFKKMAFG@?$AAb?$AAs?$AA?9?$AAB?$AAA?$AA?9?$AAL?$AAa?$AAt?$AAn?$AA?$AA@ 1003c898     LIBCMT:winapinls.obj
 0002:000048b0       ??_C@_1O@IMNBEMCI@?$AAs?$AAm?$AAj?$AA?9?$AAS?$AAE?$AA?$AA@ 1003c8b0     LIBCMT:winapinls.obj
 0002:000048c0       ??_C@_1M@DHHMBNDP@?$AAa?$AAr?$AA?9?$AAM?$AAA?$AA?$AA@ 1003c8c0     LIBCMT:winapinls.obj
 0002:000048cc       ??_C@_1M@BNBLJCGH@?$AAe?$AAn?$AA?9?$AAI?$AAE?$AA?$AA@ 1003c8cc     LIBCMT:winapinls.obj
 0002:000048d8       ??_C@_1M@GEPAFMDL@?$AAe?$AAs?$AA?9?$AAP?$AAA?$AA?$AA@ 1003c8d8     LIBCMT:winapinls.obj
 0002:000048e4       ??_C@_1M@OJONDMDL@?$AAf?$AAr?$AA?9?$AAM?$AAC?$AA?$AA@ 1003c8e4     LIBCMT:winapinls.obj
 0002:000048f0       ??_C@_1BG@OBCNFJB@?$AAs?$AAr?$AA?9?$AAB?$AAA?$AA?9?$AAL?$AAa?$AAt?$AAn?$AA?$AA@ 1003c8f0     LIBCMT:winapinls.obj
 0002:00004908       ??_C@_1O@KEMEEGPO@?$AAs?$AAm?$AAa?$AA?9?$AAN?$AAO?$AA?$AA@ 1003c908     LIBCMT:winapinls.obj
 0002:00004918       ??_C@_1M@ELMGFODK@?$AAa?$AAr?$AA?9?$AAT?$AAN?$AA?$AA@ 1003c918     LIBCMT:winapinls.obj
 0002:00004924       ??_C@_1M@BHDLHFAF@?$AAe?$AAn?$AA?9?$AAZ?$AAA?$AA?$AA@ 1003c924     LIBCMT:winapinls.obj
 0002:00004930       ??_C@_1M@BMGIGLIF@?$AAe?$AAs?$AA?9?$AAD?$AAO?$AA?$AA@ 1003c930     LIBCMT:winapinls.obj
 0002:0000493c       ??_C@_1BG@CMBHIPBE@?$AAs?$AAr?$AA?9?$AAB?$AAA?$AA?9?$AAC?$AAy?$AAr?$AAl?$AA?$AA@ 1003c93c     LIBCMT:winapinls.obj
 0002:00004954       ??_C@_1O@HEDBLHNP@?$AAs?$AAm?$AAa?$AA?9?$AAS?$AAE?$AA?$AA@ 1003c954     LIBCMT:winapinls.obj
 0002:00004964       ??_C@_1M@DAGCADIM@?$AAa?$AAr?$AA?9?$AAO?$AAM?$AA?$AA@ 1003c964     LIBCMT:winapinls.obj
 0002:00004970       ??_C@_1M@FODLMICG@?$AAe?$AAn?$AA?9?$AAJ?$AAM?$AA?$AA@ 1003c970     LIBCMT:winapinls.obj
 0002:0000497c       ??_C@_1M@DNMLCIHB@?$AAe?$AAs?$AA?9?$AAV?$AAE?$AA?$AA@ 1003c97c     LIBCMT:winapinls.obj
 0002:00004988       ??_C@_1O@EOKHMKJK@?$AAs?$AAm?$AAs?$AA?9?$AAF?$AAI?$AA?$AA@ 1003c988     LIBCMT:winapinls.obj
 0002:00004998       ??_C@_1M@CAFJMKOF@?$AAa?$AAr?$AA?9?$AAY?$AAE?$AA?$AA@ 1003c998     LIBCMT:winapinls.obj
 0002:000049a4       ??_C@_1M@CBFHIJLI@?$AAe?$AAn?$AA?9?$AAC?$AAB?$AA?$AA@ 1003c9a4     LIBCMT:winapinls.obj
 0002:000049b0       ??_C@_1M@BGNFLDN@?$AAe?$AAs?$AA?9?$AAC?$AAO?$AA?$AA@ 1003c9b0     LIBCMT:winapinls.obj
 0002:000049bc       ??_C@_1O@JMPHMAMC@?$AAs?$AAm?$AAn?$AA?9?$AAF?$AAI?$AA?$AA@ 1003c9bc     LIBCMT:winapinls.obj
 0002:000049cc       ??_C@_1M@JLANABKE@?$AAa?$AAr?$AA?9?$AAS?$AAY?$AA?$AA@ 1003c9cc     LIBCMT:winapinls.obj
 0002:000049d8       ??_C@_1M@HPKGCFGN@?$AAe?$AAn?$AA?9?$AAB?$AAZ?$AA?$AA@ 1003c9d8     LIBCMT:winapinls.obj
 0002:000049e4       ??_C@_1M@OLJCMLGM@?$AAe?$AAs?$AA?9?$AAP?$AAE?$AA?$AA@ 1003c9e4     LIBCMT:winapinls.obj
 0002:000049f0       ??_C@_1M@MKKGFKLE@?$AAa?$AAr?$AA?9?$AAJ?$AAO?$AA?$AA@ 1003c9f0     LIBCMT:winapinls.obj
 0002:000049fc       ??_C@_1M@EKPGLDNI@?$AAe?$AAn?$AA?9?$AAT?$AAT?$AA?$AA@ 1003c9fc     LIBCMT:winapinls.obj
 0002:00004a08       ??_C@_1M@OONGHFHE@?$AAe?$AAs?$AA?9?$AAA?$AAR?$AA?$AA@ 1003ca08     LIBCMT:winapinls.obj
 0002:00004a14       ??_C@_1M@OOJFGBHE@?$AAa?$AAr?$AA?9?$AAL?$AAB?$AA?$AA@ 1003ca14     LIBCMT:winapinls.obj
 0002:00004a20       ??_C@_1M@GCEJHNEG@?$AAe?$AAn?$AA?9?$AAZ?$AAW?$AA?$AA@ 1003ca20     LIBCMT:winapinls.obj
 0002:00004a2c       ??_C@_1M@JNOCAHJI@?$AAe?$AAs?$AA?9?$AAE?$AAC?$AA?$AA@ 1003ca2c     LIBCMT:winapinls.obj
 0002:00004a38       ??_C@_1M@JEFHPGGB@?$AAa?$AAr?$AA?9?$AAK?$AAW?$AA?$AA@ 1003ca38     LIBCMT:winapinls.obj
 0002:00004a44       ??_C@_1M@MLKIBJOJ@?$AAe?$AAn?$AA?9?$AAP?$AAH?$AA?$AA@ 1003ca44     LIBCMT:winapinls.obj
 0002:00004a50       ??_C@_1M@BDNIPEND@?$AAe?$AAs?$AA?9?$AAC?$AAL?$AA?$AA@ 1003ca50     LIBCMT:winapinls.obj
 0002:00004a5c       ??_C@_1M@MPNMEKBD@?$AAa?$AAr?$AA?9?$AAA?$AAE?$AA?$AA@ 1003ca5c     LIBCMT:winapinls.obj
 0002:00004a68       ??_C@_1M@KBJALCPI@?$AAe?$AAs?$AA?9?$AAU?$AAY?$AA?$AA@ 1003ca68     LIBCMT:winapinls.obj
 0002:00004a74       ??_C@_1M@LLCCOAGA@?$AAa?$AAr?$AA?9?$AAB?$AAH?$AA?$AA@ 1003ca74     LIBCMT:winapinls.obj
 0002:00004a80       ??_C@_1M@PBFNCDEL@?$AAe?$AAs?$AA?9?$AAP?$AAY?$AA?$AA@ 1003ca80     LIBCMT:winapinls.obj
 0002:00004a8c       ??_C@_1M@EDGINPNP@?$AAa?$AAr?$AA?9?$AAQ?$AAA?$AA?$AA@ 1003ca8c     LIBCMT:winapinls.obj
 0002:00004a98       ??_C@_1M@MKDBIIJI@?$AAe?$AAs?$AA?9?$AAB?$AAO?$AA?$AA@ 1003ca98     LIBCMT:winapinls.obj
 0002:00004aa4       ??_C@_1M@CPKKEBLD@?$AAe?$AAs?$AA?9?$AAS?$AAV?$AA?$AA@ 1003caa4     LIBCMT:winapinls.obj
 0002:00004ab0       ??_C@_1M@NDBGMMJL@?$AAe?$AAs?$AA?9?$AAH?$AAN?$AA?$AA@ 1003cab0     LIBCMT:winapinls.obj
 0002:00004abc       ??_C@_1M@JIJIBHDP@?$AAe?$AAs?$AA?9?$AAN?$AAI?$AA?$AA@ 1003cabc     LIBCMT:winapinls.obj
 0002:00004ac8       ??_C@_1M@CGFMKEEK@?$AAe?$AAs?$AA?9?$AAP?$AAR?$AA?$AA@ 1003cac8     LIBCMT:winapinls.obj
 0002:00004ad4       ??_C@_1O@ICJHKIIK@?$AAz?$AAh?$AA?9?$AAC?$AAH?$AAT?$AA?$AA@ 1003cad4     LIBCMT:winapinls.obj
 0002:00004ae4       ??_C@_15CLNEJCE@?$AAs?$AAr?$AA?$AA@ 1003cae4     LIBCMT:winapinls.obj
 0002:00004aec       ??_C@_1M@KAHEKEIG@?$AAa?$AAf?$AA?9?$AAz?$AAa?$AA?$AA@ 1003caec     LIBCMT:winapinls.obj
 0002:00004af8       ??_C@_1M@GIECOABL@?$AAa?$AAr?$AA?9?$AAa?$AAe?$AA?$AA@ 1003caf8     LIBCMT:winapinls.obj
 0002:00004b04       ??_C@_1M@BMLMEKGI@?$AAa?$AAr?$AA?9?$AAb?$AAh?$AA?$AA@ 1003cb04     LIBCMT:winapinls.obj
 0002:00004b10       ??_C@_1M@DAPFDGGB@?$AAa?$AAr?$AA?9?$AAd?$AAz?$AA?$AA@ 1003cb10     LIBCMT:winapinls.obj
 0002:00004b1c       ??_C@_1M@FJNKGKIG@?$AAa?$AAr?$AA?9?$AAe?$AAg?$AA?$AA@ 1003cb1c     LIBCMT:winapinls.obj
 0002:00004b28       ??_C@_1M@FLGKKCLO@?$AAa?$AAr?$AA?9?$AAi?$AAq?$AA?$AA@ 1003cb28     LIBCMT:winapinls.obj
 0002:00004b34       ??_C@_1M@GNDIPALM@?$AAa?$AAr?$AA?9?$AAj?$AAo?$AA?$AA@ 1003cb34     LIBCMT:winapinls.obj
 0002:00004b40       ??_C@_1M@DDMJFMGJ@?$AAa?$AAr?$AA?9?$AAk?$AAw?$AA?$AA@ 1003cb40     LIBCMT:winapinls.obj
 0002:00004b4c       ??_C@_1M@EJALMLHM@?$AAa?$AAr?$AA?9?$AAl?$AAb?$AA?$AA@ 1003cb4c     LIBCMT:winapinls.obj
 0002:00004b58       ??_C@_1M@MOBDBLOC@?$AAa?$AAr?$AA?9?$AAl?$AAy?$AA?$AA@ 1003cb58     LIBCMT:winapinls.obj
 0002:00004b64       ??_C@_1M@JAOCLHDH@?$AAa?$AAr?$AA?9?$AAm?$AAa?$AA?$AA@ 1003cb64     LIBCMT:winapinls.obj
 0002:00004b70       ??_C@_1M@JHPMKJIE@?$AAa?$AAr?$AA?9?$AAo?$AAm?$AA?$AA@ 1003cb70     LIBCMT:winapinls.obj
 0002:00004b7c       ??_C@_1M@OEPGHFNH@?$AAa?$AAr?$AA?9?$AAq?$AAa?$AA?$AA@ 1003cb7c     LIBCMT:winapinls.obj
 0002:00004b88       ??_C@_1M@KJDONENM@?$AAa?$AAr?$AA?9?$AAs?$AAa?$AA?$AA@ 1003cb88     LIBCMT:winapinls.obj
 0002:00004b94       ??_C@_1M@DMJDKLKM@?$AAa?$AAr?$AA?9?$AAs?$AAy?$AA?$AA@ 1003cb94     LIBCMT:winapinls.obj
 0002:00004ba0       ??_C@_1M@OMFIPEDC@?$AAa?$AAr?$AA?9?$AAt?$AAn?$AA?$AA@ 1003cba0     LIBCMT:winapinls.obj
 0002:00004bac       ??_C@_1M@IHMHGAON@?$AAa?$AAr?$AA?9?$AAy?$AAe?$AA?$AA@ 1003cbac     LIBCMT:winapinls.obj
 0002:00004bb8       ??_C@_1BG@KDCPGJGB@?$AAa?$AAz?$AA?9?$AAa?$AAz?$AA?9?$AAc?$AAy?$AAr?$AAl?$AA?$AA@ 1003cbb8     LIBCMT:winapinls.obj
 0002:00004bd0       ??_C@_1BG@IBCKDDOE@?$AAa?$AAz?$AA?9?$AAa?$AAz?$AA?9?$AAl?$AAa?$AAt?$AAn?$AA?$AA@ 1003cbd0     LIBCMT:winapinls.obj
 0002:00004be8       ??_C@_1M@EGPFDCPD@?$AAb?$AAe?$AA?9?$AAb?$AAy?$AA?$AA@ 1003cbe8     LIBCMT:winapinls.obj
 0002:00004bf4       ??_C@_1M@PCMGMCGC@?$AAb?$AAg?$AA?9?$AAb?$AAg?$AA?$AA@ 1003cbf4     LIBCMT:winapinls.obj
 0002:00004c00       ??_C@_1M@BJBMFGOB@?$AAb?$AAn?$AA?9?$AAi?$AAn?$AA?$AA@ 1003cc00     LIBCMT:winapinls.obj
 0002:00004c0c       ??_C@_1BG@EAKMMACD@?$AAb?$AAs?$AA?9?$AAb?$AAa?$AA?9?$AAl?$AAa?$AAt?$AAn?$AA?$AA@ 1003cc0c     LIBCMT:winapinls.obj
 0002:00004c24       ??_C@_1M@KGADAODK@?$AAc?$AAa?$AA?9?$AAe?$AAs?$AA?$AA@ 1003cc24     LIBCMT:winapinls.obj
 0002:00004c30       ??_C@_1M@COAJPDHI@?$AAc?$AAs?$AA?9?$AAc?$AAz?$AA?$AA@ 1003cc30     LIBCMT:winapinls.obj
 0002:00004c3c       ??_C@_1M@DHBHFONH@?$AAc?$AAy?$AA?9?$AAg?$AAb?$AA?$AA@ 1003cc3c     LIBCMT:winapinls.obj
 0002:00004c48       ??_C@_1M@IMGKELGA@?$AAd?$AAa?$AA?9?$AAd?$AAk?$AA?$AA@ 1003cc48     LIBCMT:winapinls.obj
 0002:00004c54       ??_C@_1M@NNDGDNGA@?$AAd?$AAe?$AA?9?$AAa?$AAt?$AA?$AA@ 1003cc54     LIBCMT:winapinls.obj
 0002:00004c60       ??_C@_1M@IKDBHEEM@?$AAd?$AAe?$AA?9?$AAc?$AAh?$AA?$AA@ 1003cc60     LIBCMT:winapinls.obj
 0002:00004c6c       ??_C@_1M@GFFOJMCJ@?$AAd?$AAe?$AA?9?$AAd?$AAe?$AA?$AA@ 1003cc6c     LIBCMT:winapinls.obj
 0002:00004c78       ??_C@_1M@MDNLKBPM@?$AAd?$AAe?$AA?9?$AAl?$AAi?$AA?$AA@ 1003cc78     LIBCMT:winapinls.obj
 0002:00004c84       ??_C@_1M@NJBEEJNL@?$AAd?$AAe?$AA?9?$AAl?$AAu?$AA?$AA@ 1003cc84     LIBCMT:winapinls.obj
 0002:00004c90       ??_C@_1O@GNNELBAP@?$AAd?$AAi?$AAv?$AA?9?$AAm?$AAv?$AA?$AA@ 1003cc90     LIBCMT:winapinls.obj
 0002:00004ca0       ??_C@_1M@EJLEOGAE@?$AAe?$AAl?$AA?9?$AAg?$AAr?$AA?$AA@ 1003cca0     LIBCMT:winapinls.obj
 0002:00004cac       ??_C@_1M@GMPONJN@?$AAe?$AAn?$AA?9?$AAa?$AAu?$AA?$AA@ 1003ccac     LIBCMT:winapinls.obj
 0002:00004cb8       ??_C@_1M@NIDIIPGF@?$AAe?$AAn?$AA?9?$AAb?$AAz?$AA?$AA@ 1003ccb8     LIBCMT:winapinls.obj
 0002:00004cc4       ??_C@_1M@JEHMIMFO@?$AAe?$AAn?$AA?9?$AAc?$AAa?$AA?$AA@ 1003ccc4     LIBCMT:winapinls.obj
 0002:00004cd0       ??_C@_1M@IGMJCDLA@?$AAe?$AAn?$AA?9?$AAc?$AAb?$AA?$AA@ 1003ccd0     LIBCMT:winapinls.obj
 0002:00004cdc       ??_C@_1M@BNFIGBKG@?$AAe?$AAn?$AA?9?$AAg?$AAb?$AA?$AA@ 1003ccdc     LIBCMT:winapinls.obj
 0002:00004ce8       ??_C@_1M@LKIFDIGP@?$AAe?$AAn?$AA?9?$AAi?$AAe?$AA?$AA@ 1003cce8     LIBCMT:winapinls.obj
 0002:00004cf4       ??_C@_1M@PJKFGCCO@?$AAe?$AAn?$AA?9?$AAj?$AAm?$AA?$AA@ 1003ccf4     LIBCMT:winapinls.obj
 0002:00004d00       ??_C@_1M@KPPKEPBO@?$AAe?$AAn?$AA?9?$AAn?$AAz?$AA?$AA@ 1003cd00     LIBCMT:winapinls.obj
 0002:00004d0c       ??_C@_1M@GMDGLDOB@?$AAe?$AAn?$AA?9?$AAp?$AAh?$AA?$AA@ 1003cd0c     LIBCMT:winapinls.obj
 0002:00004d18       ??_C@_1M@ONGIBJNA@?$AAe?$AAn?$AA?9?$AAt?$AAt?$AA?$AA@ 1003cd18     LIBCMT:winapinls.obj
 0002:00004d24       ??_C@_1M@LLODPCMM@?$AAe?$AAn?$AA?9?$AAu?$AAs?$AA?$AA@ 1003cd24     LIBCMT:winapinls.obj
 0002:00004d30       ??_C@_1M@LAKFNPAN@?$AAe?$AAn?$AA?9?$AAz?$AAa?$AA?$AA@ 1003cd30     LIBCMT:winapinls.obj
 0002:00004d3c       ??_C@_1M@MFNHNHEO@?$AAe?$AAn?$AA?9?$AAz?$AAw?$AA?$AA@ 1003cd3c     LIBCMT:winapinls.obj
 0002:00004d48       ??_C@_1M@EJEINPHM@?$AAe?$AAs?$AA?9?$AAa?$AAr?$AA?$AA@ 1003cd48     LIBCMT:winapinls.obj
 0002:00004d54       ??_C@_1M@GNKPCCJA@?$AAe?$AAs?$AA?9?$AAb?$AAo?$AA?$AA@ 1003cd54     LIBCMT:winapinls.obj
 0002:00004d60       ??_C@_1M@LEEGFONL@?$AAe?$AAs?$AA?9?$AAc?$AAl?$AA?$AA@ 1003cd60     LIBCMT:winapinls.obj
 0002:00004d6c       ??_C@_1M@KGPDPBDF@?$AAe?$AAs?$AA?9?$AAc?$AAo?$AA?$AA@ 1003cd6c     LIBCMT:winapinls.obj
 0002:00004d78       ??_C@_1M@EIAHOHH@?$AAe?$AAs?$AA?9?$AAc?$AAr?$AA?$AA@ 1003cd78     LIBCMT:winapinls.obj
 0002:00004d84       ??_C@_1M@LLPGMBIN@?$AAe?$AAs?$AA?9?$AAd?$AAo?$AA?$AA@ 1003cd84     LIBCMT:winapinls.obj
 0002:00004d90       ??_C@_1M@DKHMKNJA@?$AAe?$AAs?$AA?9?$AAe?$AAc?$AA?$AA@ 1003cd90     LIBCMT:winapinls.obj
 0002:00004d9c       ??_C@_1M@GKGFPKAP@?$AAe?$AAs?$AA?9?$AAe?$AAs?$AA?$AA@ 1003cd9c     LIBCMT:winapinls.obj
 0002:00004da8       ??_C@_1M@LKHKGDLN@?$AAe?$AAs?$AA?9?$AAg?$AAt?$AA?$AA@ 1003cda8     LIBCMT:winapinls.obj
 0002:00004db4       ??_C@_1M@HEIIGGJD@?$AAe?$AAs?$AA?9?$AAh?$AAn?$AA?$AA@ 1003cdb4     LIBCMT:winapinls.obj
 0002:00004dc0       ??_C@_1M@FBDHPPGD@?$AAe?$AAs?$AA?9?$AAm?$AAx?$AA?$AA@ 1003cdc0     LIBCMT:winapinls.obj
 0002:00004dcc       ??_C@_1M@DPAGLNDH@?$AAe?$AAs?$AA?9?$AAn?$AAi?$AA?$AA@ 1003cdcc     LIBCMT:winapinls.obj
 0002:00004dd8       ??_C@_1M@MDGOPGDD@?$AAe?$AAs?$AA?9?$AAp?$AAa?$AA?$AA@ 1003cdd8     LIBCMT:winapinls.obj
 0002:00004de4       ??_C@_1M@EMAMGBGE@?$AAe?$AAs?$AA?9?$AAp?$AAe?$AA?$AA@ 1003cde4     LIBCMT:winapinls.obj
 0002:00004df0       ??_C@_1M@IBMCAOEC@?$AAe?$AAs?$AA?9?$AAp?$AAr?$AA?$AA@ 1003cdf0     LIBCMT:winapinls.obj
 0002:00004dfc       ??_C@_1M@FGMDIJED@?$AAe?$AAs?$AA?9?$AAp?$AAy?$AA?$AA@ 1003cdfc     LIBCMT:winapinls.obj
 0002:00004e08       ??_C@_1M@IIDEOLLL@?$AAe?$AAs?$AA?9?$AAs?$AAv?$AA?$AA@ 1003ce08     LIBCMT:winapinls.obj
 0002:00004e14       ??_C@_1M@GAOBIPA@?$AAe?$AAs?$AA?9?$AAu?$AAy?$AA?$AA@ 1003ce14     LIBCMT:winapinls.obj
 0002:00004e20       ??_C@_1M@JKFFICHJ@?$AAe?$AAs?$AA?9?$AAv?$AAe?$AA?$AA@ 1003ce20     LIBCMT:winapinls.obj
 0002:00004e2c       ??_C@_1M@PNMLOJDF@?$AAe?$AAt?$AA?9?$AAe?$AAe?$AA?$AA@ 1003ce2c     LIBCMT:winapinls.obj
 0002:00004e38       ??_C@_1M@GHHLIKEI@?$AAe?$AAu?$AA?9?$AAe?$AAs?$AA?$AA@ 1003ce38     LIBCMT:winapinls.obj
 0002:00004e44       ??_C@_1M@PBNONODE@?$AAf?$AAa?$AA?9?$AAi?$AAr?$AA?$AA@ 1003ce44     LIBCMT:winapinls.obj
 0002:00004e50       ??_C@_1M@JEEHPMIL@?$AAf?$AAi?$AA?9?$AAf?$AAi?$AA?$AA@ 1003ce50     LIBCMT:winapinls.obj
 0002:00004e5c       ??_C@_1M@LMDCNDBA@?$AAf?$AAo?$AA?9?$AAf?$AAo?$AA?$AA@ 1003ce5c     LIBCMT:winapinls.obj
 0002:00004e68       ??_C@_1M@JKEOHLDK@?$AAf?$AAr?$AA?9?$AAb?$AAe?$AA?$AA@ 1003ce68     LIBCMT:winapinls.obj
 0002:00004e74       ??_C@_1M@NOHADPMI@?$AAf?$AAr?$AA?9?$AAc?$AAa?$AA?$AA@ 1003ce74     LIBCMT:winapinls.obj
 0002:00004e80       ??_C@_1M@KDHIHAEC@?$AAf?$AAr?$AA?9?$AAc?$AAh?$AA?$AA@ 1003ce80     LIBCMT:winapinls.obj
 0002:00004e8c       ??_C@_1M@MMBBFGAK@?$AAf?$AAr?$AA?9?$AAf?$AAr?$AA?$AA@ 1003ce8c     LIBCMT:winapinls.obj
 0002:00004e98       ??_C@_1M@PAFNENNF@?$AAf?$AAr?$AA?9?$AAl?$AAu?$AA?$AA@ 1003ce98     LIBCMT:winapinls.obj
 0002:00004ea4       ??_C@_1M@EOHDJGDD@?$AAf?$AAr?$AA?9?$AAm?$AAc?$AA?$AA@ 1003cea4     LIBCMT:winapinls.obj
 0002:00004eb0       ??_C@_1M@FAPLLOPF@?$AAg?$AAl?$AA?9?$AAe?$AAs?$AA?$AA@ 1003ceb0     LIBCMT:winapinls.obj
 0002:00004ebc       ??_C@_1M@FOPBFLOO@?$AAg?$AAu?$AA?9?$AAi?$AAn?$AA?$AA@ 1003cebc     LIBCMT:winapinls.obj
 0002:00004ec8       ??_C@_1M@KBMCINPM@?$AAh?$AAe?$AA?9?$AAi?$AAl?$AA?$AA@ 1003cec8     LIBCMT:winapinls.obj
 0002:00004ed4       ??_C@_1M@BBPHKFPJ@?$AAh?$AAi?$AA?9?$AAi?$AAn?$AA?$AA@ 1003ced4     LIBCMT:winapinls.obj
 0002:00004ee0       ??_C@_1M@PMBNDPHD@?$AAh?$AAr?$AA?9?$AAb?$AAa?$AA?$AA@ 1003cee0     LIBCMT:winapinls.obj
 0002:00004eec       ??_C@_1M@BPCKOEGE@?$AAh?$AAr?$AA?9?$AAh?$AAr?$AA?$AA@ 1003ceec     LIBCMT:winapinls.obj
 0002:00004ef8       ??_C@_1M@GACBMHKE@?$AAh?$AAu?$AA?9?$AAh?$AAu?$AA?$AA@ 1003cef8     LIBCMT:winapinls.obj
 0002:00004f04       ??_C@_1M@MILPAJJC@?$AAh?$AAy?$AA?9?$AAa?$AAm?$AA?$AA@ 1003cf04     LIBCMT:winapinls.obj
 0002:00004f10       ??_C@_1M@BABBICEC@?$AAi?$AAd?$AA?9?$AAi?$AAd?$AA?$AA@ 1003cf10     LIBCMT:winapinls.obj
 0002:00004f1c       ??_C@_1M@BIKNHHPF@?$AAi?$AAs?$AA?9?$AAi?$AAs?$AA?$AA@ 1003cf1c     LIBCMT:winapinls.obj
 0002:00004f28       ??_C@_1M@NMPCJPHE@?$AAi?$AAt?$AA?9?$AAc?$AAh?$AA?$AA@ 1003cf28     LIBCMT:winapinls.obj
 0002:00004f34       ??_C@_1M@GHKGFEDF@?$AAi?$AAt?$AA?9?$AAi?$AAt?$AA?$AA@ 1003cf34     LIBCMT:winapinls.obj
 0002:00004f40       ??_C@_1M@NIEJCJJA@?$AAj?$AAa?$AA?9?$AAj?$AAp?$AA?$AA@ 1003cf40     LIBCMT:winapinls.obj
 0002:00004f4c       ??_C@_1M@JILFNBIM@?$AAk?$AAa?$AA?9?$AAg?$AAe?$AA?$AA@ 1003cf4c     LIBCMT:winapinls.obj
 0002:00004f58       ??_C@_1M@PACPMGPH@?$AAk?$AAk?$AA?9?$AAk?$AAz?$AA?$AA@ 1003cf58     LIBCMT:winapinls.obj
 0002:00004f64       ??_C@_1M@IELFGMHA@?$AAk?$AAn?$AA?9?$AAi?$AAn?$AA?$AA@ 1003cf64     LIBCMT:winapinls.obj
 0002:00004f70       ??_C@_1O@IBBJHCH@?$AAk?$AAo?$AAk?$AA?9?$AAi?$AAn?$AA?$AA@ 1003cf70     LIBCMT:winapinls.obj
 0002:00004f80       ??_C@_1M@DMHAEOGC@?$AAk?$AAo?$AA?9?$AAk?$AAr?$AA?$AA@ 1003cf80     LIBCMT:winapinls.obj
 0002:00004f8c       ??_C@_1M@HBAHBIGA@?$AAk?$AAy?$AA?9?$AAk?$AAg?$AA?$AA@ 1003cf8c     LIBCMT:winapinls.obj
 0002:00004f98       ??_C@_1M@KPMILCJG@?$AAl?$AAt?$AA?9?$AAl?$AAt?$AA?$AA@ 1003cf98     LIBCMT:winapinls.obj
 0002:00004fa4       ??_C@_1M@BDEKKCA@?$AAl?$AAv?$AA?9?$AAl?$AAv?$AA?$AA@ 1003cfa4     LIBCMT:winapinls.obj
 0002:00004fb0       ??_C@_1M@ELCKCCJJ@?$AAm?$AAi?$AA?9?$AAn?$AAz?$AA?$AA@ 1003cfb0     LIBCMT:winapinls.obj
 0002:00004fbc       ??_C@_1M@CBOOLAPA@?$AAm?$AAk?$AA?9?$AAm?$AAk?$AA?$AA@ 1003cfbc     LIBCMT:winapinls.obj
 0002:00004fc8       ??_C@_1M@GPHNBJKN@?$AAm?$AAl?$AA?9?$AAi?$AAn?$AA?$AA@ 1003cfc8     LIBCMT:winapinls.obj
 0002:00004fd4       ??_C@_1M@PABJILIG@?$AAm?$AAn?$AA?9?$AAm?$AAn?$AA?$AA@ 1003cfd4     LIBCMT:winapinls.obj
 0002:00004fe0       ??_C@_1M@FGBKKIPG@?$AAm?$AAr?$AA?9?$AAi?$AAn?$AA?$AA@ 1003cfe0     LIBCMT:winapinls.obj
 0002:00004fec       ??_C@_1M@NDBPDDAL@?$AAm?$AAs?$AA?9?$AAb?$AAn?$AA?$AA@ 1003cfec     LIBCMT:winapinls.obj
 0002:00004ff8       ??_C@_1M@OPIHOOPI@?$AAm?$AAs?$AA?9?$AAm?$AAy?$AA?$AA@ 1003cff8     LIBCMT:winapinls.obj
 0002:00005004       ??_C@_1M@PPDBCNFM@?$AAm?$AAt?$AA?9?$AAm?$AAt?$AA?$AA@ 1003d004     LIBCMT:winapinls.obj
 0002:00005010       ??_C@_1M@KDJDKMDD@?$AAn?$AAb?$AA?9?$AAn?$AAo?$AA?$AA@ 1003d010     LIBCMT:winapinls.obj
 0002:0000501c       ??_C@_1M@KFCFLMJP@?$AAn?$AAl?$AA?9?$AAb?$AAe?$AA?$AA@ 1003d01c     LIBCMT:winapinls.obj
 0002:00005028       ??_C@_1M@KPOPDDGO@?$AAn?$AAl?$AA?9?$AAn?$AAl?$AA?$AA@ 1003d028     LIBCMT:winapinls.obj
 0002:00005034       ??_C@_1M@LJKPEMLN@?$AAn?$AAn?$AA?9?$AAn?$AAo?$AA?$AA@ 1003d034     LIBCMT:winapinls.obj
 0002:00005040       ??_C@_1M@BDGHHBFL@?$AAn?$AAs?$AA?9?$AAz?$AAa?$AA?$AA@ 1003d040     LIBCMT:winapinls.obj
 0002:0000504c       ??_C@_1M@IDEHOAP@?$AAp?$AAa?$AA?9?$AAi?$AAn?$AA?$AA@ 1003d04c     LIBCMT:winapinls.obj
 0002:00005058       ??_C@_1M@HDBKGOGH@?$AAp?$AAl?$AA?9?$AAp?$AAl?$AA?$AA@ 1003d058     LIBCMT:winapinls.obj
 0002:00005064       ??_C@_1M@LJLLCMEH@?$AAp?$AAt?$AA?9?$AAb?$AAr?$AA?$AA@ 1003d064     LIBCMT:winapinls.obj
 0002:00005070       ??_C@_1M@NCMONAAL@?$AAp?$AAt?$AA?9?$AAp?$AAt?$AA?$AA@ 1003d070     LIBCMT:winapinls.obj
 0002:0000507c       ??_C@_1O@EAKMAJDN@?$AAq?$AAu?$AAz?$AA?9?$AAb?$AAo?$AA?$AA@ 1003d07c     LIBCMT:winapinls.obj
 0002:0000508c       ??_C@_1O@BHHPIGDN@?$AAq?$AAu?$AAz?$AA?9?$AAe?$AAc?$AA?$AA@ 1003d08c     LIBCMT:winapinls.obj
 0002:0000509c       ??_C@_1O@GBAPEKMJ@?$AAq?$AAu?$AAz?$AA?9?$AAp?$AAe?$AA?$AA@ 1003d09c     LIBCMT:winapinls.obj
 0002:000050ac       ??_C@_1M@CLGLEFBO@?$AAr?$AAo?$AA?9?$AAr?$AAo?$AA?$AA@ 1003d0ac     LIBCMT:winapinls.obj
 0002:000050b8       ??_C@_1M@CEEDODME@?$AAr?$AAu?$AA?9?$AAr?$AAu?$AA?$AA@ 1003d0b8     LIBCMT:winapinls.obj
 0002:000050c4       ??_C@_1M@HPKKKMPP@?$AAs?$AAa?$AA?9?$AAi?$AAn?$AA?$AA@ 1003d0c4     LIBCMT:winapinls.obj
 0002:000050d0       ??_C@_1M@BKMAIGOJ@?$AAs?$AAe?$AA?9?$AAf?$AAi?$AA?$AA@ 1003d0d0     LIBCMT:winapinls.obj
 0002:000050dc       ??_C@_1M@NDPIFLFI@?$AAs?$AAe?$AA?9?$AAn?$AAo?$AA?$AA@ 1003d0dc     LIBCMT:winapinls.obj
 0002:000050e8       ??_C@_1M@DANKKHJ@?$AAs?$AAe?$AA?9?$AAs?$AAe?$AA?$AA@ 1003d0e8     LIBCMT:winapinls.obj
 0002:000050f4       ??_C@_1M@PNBLONPJ@?$AAs?$AAk?$AA?9?$AAs?$AAk?$AA?$AA@ 1003d0f4     LIBCMT:winapinls.obj
 0002:00005100       ??_C@_1M@LFMODOAL@?$AAs?$AAl?$AA?9?$AAs?$AAi?$AA?$AA@ 1003d100     LIBCMT:winapinls.obj
 0002:0000510c       ??_C@_1O@DFKOMPG@?$AAs?$AAm?$AAa?$AA?9?$AAn?$AAo?$AA?$AA@ 1003d10c     LIBCMT:winapinls.obj
 0002:0000511c       ??_C@_1O@NDKPBNNH@?$AAs?$AAm?$AAa?$AA?9?$AAs?$AAe?$AA?$AA@ 1003d11c     LIBCMT:winapinls.obj
 0002:0000512c       ??_C@_1O@PLLKBHAB@?$AAs?$AAm?$AAj?$AA?9?$AAn?$AAo?$AA?$AA@ 1003d12c     LIBCMT:winapinls.obj
 0002:0000513c       ??_C@_1O@CLEPOGCA@?$AAs?$AAm?$AAj?$AA?9?$AAs?$AAe?$AA?$AA@ 1003d13c     LIBCMT:winapinls.obj
 0002:0000514c       ??_C@_1O@DLGJGKMK@?$AAs?$AAm?$AAn?$AA?9?$AAf?$AAi?$AA?$AA@ 1003d14c     LIBCMT:winapinls.obj
 0002:0000515c       ??_C@_1O@OJDJGAJC@?$AAs?$AAm?$AAs?$AA?9?$AAf?$AAi?$AA?$AA@ 1003d15c     LIBCMT:winapinls.obj
 0002:0000516c       ??_C@_1M@BOFOGHPB@?$AAs?$AAq?$AA?9?$AAa?$AAl?$AA?$AA@ 1003d16c     LIBCMT:winapinls.obj
 0002:00005178       ??_C@_1BG@LJBBIPGB@?$AAs?$AAr?$AA?9?$AAb?$AAa?$AA?9?$AAc?$AAy?$AAr?$AAl?$AA?$AA@ 1003d178     LIBCMT:winapinls.obj
 0002:00005190       ??_C@_1BG@JLBENFOE@?$AAs?$AAr?$AA?9?$AAb?$AAa?$AA?9?$AAl?$AAa?$AAt?$AAn?$AA?$AA@ 1003d190     LIBCMT:winapinls.obj
 0002:000051a8       ??_C@_1BG@KODPNHE@?$AAs?$AAr?$AA?9?$AAs?$AAp?$AA?9?$AAc?$AAy?$AAr?$AAl?$AA?$AA@ 1003d1a8     LIBCMT:winapinls.obj
 0002:000051c0       ??_C@_1BG@CIOGKHPB@?$AAs?$AAr?$AA?9?$AAs?$AAp?$AA?9?$AAl?$AAa?$AAt?$AAn?$AA?$AA@ 1003d1c0     LIBCMT:winapinls.obj
 0002:000051d8       ??_C@_1M@NGFJLMAC@?$AAs?$AAv?$AA?9?$AAf?$AAi?$AA?$AA@ 1003d1d8     LIBCMT:winapinls.obj
 0002:000051e4       ??_C@_1M@MPJEJAJC@?$AAs?$AAv?$AA?9?$AAs?$AAe?$AA?$AA@ 1003d1e4     LIBCMT:winapinls.obj
 0002:000051f0       ??_C@_1M@MPNDHLFK@?$AAs?$AAw?$AA?9?$AAk?$AAe?$AA?$AA@ 1003d1f0     LIBCMT:winapinls.obj
 0002:000051fc       ??_C@_1O@KOHBJJI@?$AAs?$AAy?$AAr?$AA?9?$AAs?$AAy?$AA?$AA@ 1003d1fc     LIBCMT:winapinls.obj
 0002:0000520c       ??_C@_1M@LDCEFHA@?$AAt?$AAa?$AA?9?$AAi?$AAn?$AA?$AA@ 1003d20c     LIBCMT:winapinls.obj
 0002:00005218       ??_C@_1M@CNJOFAK@?$AAt?$AAe?$AA?9?$AAi?$AAn?$AA?$AA@ 1003d218     LIBCMT:winapinls.obj
 0002:00005224       ??_C@_1M@GNAECACD@?$AAt?$AAh?$AA?9?$AAt?$AAh?$AA?$AA@ 1003d224     LIBCMT:winapinls.obj
 0002:00005230       ??_C@_1M@CHBIHOJO@?$AAt?$AAn?$AA?9?$AAz?$AAa?$AA?$AA@ 1003d230     LIBCMT:winapinls.obj
 0002:0000523c       ??_C@_1M@GCCMIGPJ@?$AAt?$AAr?$AA?9?$AAt?$AAr?$AA?$AA@ 1003d23c     LIBCMT:winapinls.obj
 0002:00005248       ??_C@_1M@CELMCNBK@?$AAt?$AAt?$AA?9?$AAr?$AAu?$AA?$AA@ 1003d248     LIBCMT:winapinls.obj
 0002:00005254       ??_C@_1M@KLMCELGA@?$AAu?$AAk?$AA?9?$AAu?$AAa?$AA?$AA@ 1003d254     LIBCMT:winapinls.obj
 0002:00005260       ??_C@_1M@EPAJJAJF@?$AAu?$AAr?$AA?9?$AAp?$AAk?$AA?$AA@ 1003d260     LIBCMT:winapinls.obj
 0002:0000526c       ??_C@_1BG@GEGPMCDJ@?$AAu?$AAz?$AA?9?$AAu?$AAz?$AA?9?$AAc?$AAy?$AAr?$AAl?$AA?$AA@ 1003d26c     LIBCMT:winapinls.obj
 0002:00005284       ??_C@_1BG@EGGKJILM@?$AAu?$AAz?$AA?9?$AAu?$AAz?$AA?9?$AAl?$AAa?$AAt?$AAn?$AA?$AA@ 1003d284     LIBCMT:winapinls.obj
 0002:0000529c       ??_C@_1M@GFOCLFF@?$AAv?$AAi?$AA?9?$AAv?$AAn?$AA?$AA@ 1003d29c     LIBCMT:winapinls.obj
 0002:000052a8       ??_C@_1M@CPAMEDFI@?$AAx?$AAh?$AA?9?$AAz?$AAa?$AA?$AA@ 1003d2a8     LIBCMT:winapinls.obj
 0002:000052b4       ??_C@_1O@EBKIFIGN@?$AAz?$AAh?$AA?9?$AAc?$AAh?$AAs?$AA?$AA@ 1003d2b4     LIBCMT:winapinls.obj
 0002:000052c4       ??_C@_1O@NMHPGANE@?$AAz?$AAh?$AA?9?$AAc?$AAh?$AAt?$AA?$AA@ 1003d2c4     LIBCMT:winapinls.obj
 0002:000052d4       ??_C@_1M@LPINJOMC@?$AAz?$AAh?$AA?9?$AAc?$AAn?$AA?$AA@ 1003d2d4     LIBCMT:winapinls.obj
 0002:000052e0       ??_C@_1M@OCJEJODD@?$AAz?$AAh?$AA?9?$AAh?$AAk?$AA?$AA@ 1003d2e0     LIBCMT:winapinls.obj
 0002:000052ec       ??_C@_1M@DNDLJINH@?$AAz?$AAh?$AA?9?$AAm?$AAo?$AA?$AA@ 1003d2ec     LIBCMT:winapinls.obj
 0002:000052f8       ??_C@_1M@MBFDNDND@?$AAz?$AAh?$AA?9?$AAs?$AAg?$AA?$AA@ 1003d2f8     LIBCMT:winapinls.obj
 0002:00005304       ??_C@_1M@IMEPLEPE@?$AAz?$AAh?$AA?9?$AAt?$AAw?$AA?$AA@ 1003d304     LIBCMT:winapinls.obj
 0002:00005310       ??_C@_1M@BBGHNHJP@?$AAz?$AAu?$AA?9?$AAz?$AAa?$AA?$AA@ 1003d310     LIBCMT:winapinls.obj
 0002:00005320       __XcptActTab               1003d320     LIBCMT:winxfltr.obj
 0002:000053b0       __XcptActTabCount          1003d3b0     LIBCMT:winxfltr.obj
 0002:000053b4       __XcptActTabSize           1003d3b4     LIBCMT:winxfltr.obj
 0002:000053b8       __First_FPE_Indx           1003d3b8     LIBCMT:winxfltr.obj
 0002:000053bc       __Num_FPE                  1003d3bc     LIBCMT:winxfltr.obj
 0002:000053c0       ??_C@_03KHJOGHMM@exp?$AA@  1003d3c0     LIBCMT:fpexcept.obj
 0002:000053c4       ??_C@_03JGHBODFD@pow?$AA@  1003d3c4     LIBCMT:fpexcept.obj
 0002:000053c8       ??_C@_03MGHMBJCF@log?$AA@  1003d3c8     LIBCMT:fpexcept.obj
 0002:000053cc       ??_C@_05HGHHAHAP@log10?$AA@ 1003d3cc     LIBCMT:fpexcept.obj
 0002:000053d4       ??_C@_04COOMCNPB@sinh?$AA@ 1003d3d4     LIBCMT:fpexcept.obj
 0002:000053dc       ??_C@_04HPJJNFIM@cosh?$AA@ 1003d3dc     LIBCMT:fpexcept.obj
 0002:000053e4       ??_C@_04FJHINJAO@tanh?$AA@ 1003d3e4     LIBCMT:fpexcept.obj
 0002:000053ec       ??_C@_04FIHNOPOL@asin?$AA@ 1003d3ec     LIBCMT:fpexcept.obj
 0002:000053f4       ??_C@_04PDIFKINK@acos?$AA@ 1003d3f4     LIBCMT:fpexcept.obj
 0002:000053fc       ??_C@_04MLLJIGOK@atan?$AA@ 1003d3fc     LIBCMT:fpexcept.obj
 0002:00005404       ??_C@_05KNGEOGJB@atan2?$AA@ 1003d404     LIBCMT:fpexcept.obj
 0002:0000540c       ??_C@_04EIAKFFMI@sqrt?$AA@ 1003d40c     LIBCMT:fpexcept.obj
 0002:00005414       ??_C@_03BLEJJJBH@sin?$AA@  1003d414     LIBCMT:fpexcept.obj
 0002:00005418       ??_C@_03LALBNOCG@cos?$AA@  1003d418     LIBCMT:fpexcept.obj
 0002:0000541c       ??_C@_03IIINPABG@tan?$AA@  1003d41c     LIBCMT:fpexcept.obj
 0002:00005420       ??_C@_04GFPJNGEK@ceil?$AA@ 1003d420     LIBCMT:fpexcept.obj
 0002:00005428       ??_C@_05PBJFFIGL@floor?$AA@ 1003d428     LIBCMT:fpexcept.obj
 0002:00005430       ??_C@_04ODHECPBC@fabs?$AA@ 1003d430     LIBCMT:fpexcept.obj
 0002:00005438       ??_C@_04EHEDPDJG@modf?$AA@ 1003d438     LIBCMT:fpexcept.obj
 0002:00005440       ??_C@_05CEJMAHNP@ldexp?$AA@ 1003d440     LIBCMT:fpexcept.obj
 0002:00005448       ??_C@_05KBKMEMPO@_cabs?$AA@ 1003d448     LIBCMT:fpexcept.obj
 0002:00005450       ??_C@_06MEIMCGCF@_hypot?$AA@ 1003d450     LIBCMT:fpexcept.obj
 0002:00005458       ??_C@_04KEPJIHGP@fmod?$AA@ 1003d458     LIBCMT:fpexcept.obj
 0002:00005460       ??_C@_05GKKHEGJL@frexp?$AA@ 1003d460     LIBCMT:fpexcept.obj
 0002:00005468       ??_C@_03MJLDFKDL@_y0?$AA@  1003d468     LIBCMT:fpexcept.obj
 0002:0000546c       ??_C@_03NAKIGLHK@_y1?$AA@  1003d46c     LIBCMT:fpexcept.obj
 0002:00005470       ??_C@_03ONILCKOB@_yn?$AA@  1003d470     LIBCMT:fpexcept.obj
 0002:00005474       ??_C@_05JGDBENOH@_logb?$AA@ 1003d474     LIBCMT:fpexcept.obj
 0002:0000547c       ??_C@_0L@KDOEJCKC@_nextafter?$AA@ 1003d47c     LIBCMT:fpexcept.obj
 0002:00005488       ??_C@_05KLBDPFGC@e?$CL000?$AA@ 1003d488     LIBCMT:cvt.obj
 0002:00005490       ??_C@_1BG@GOEBHBDC@?$AAU?$AAS?$AAE?$AAR?$AA3?$AA2?$AA?4?$AAD?$AAL?$AAL?$AA?$AA@ 1003d490     LIBCMT:crtmboxw.obj
 0002:000054a8       ??_C@_0M@DLDCCGNP@MessageBoxW?$AA@ 1003d4a8     LIBCMT:crtmboxw.obj
 0002:000054b4       ??_C@_0BA@HNOPNCHB@GetActiveWindow?$AA@ 1003d4b4     LIBCMT:crtmboxw.obj
 0002:000054c4       ??_C@_0BD@HHGDFDBJ@GetLastActivePopup?$AA@ 1003d4c4     LIBCMT:crtmboxw.obj
 0002:000054d8       ??_C@_0BK@DEKFELLI@GetUserObjectInformationW?$AA@ 1003d4d8     LIBCMT:crtmboxw.obj
 0002:000054f4       ??_C@_0BI@DFKBFLJE@GetProcessWindowStation?$AA@ 1003d4f4     LIBCMT:crtmboxw.obj
 0002:0000550c       ??_C@_06OJHGLDPL@?$CInull?$CJ?$AA@ 1003d50c     LIBCMT:output.obj
 0002:00005514       ??_C@_1O@CEDCILHN@?$AA?$CI?$AAn?$AAu?$AAl?$AAl?$AA?$CJ?$AA?$AA@ 1003d514     LIBCMT:output.obj
 0002:00005528       ___lookuptable             1003d528     LIBCMT:output.obj
 0002:00005714       ??_C@_08EHJDFFNH@__based?$CI?$AA@ 1003d714     LIBCMT:undname.obj
 0002:00005720       ??_C@_07KOLFKCDI@__cdecl?$AA@ 1003d720     LIBCMT:undname.obj
 0002:00005728       ??_C@_08GHMPAG@__pascal?$AA@ 1003d728     LIBCMT:undname.obj
 0002:00005734       ??_C@_09IFJBGAPI@__stdcall?$AA@ 1003d734     LIBCMT:undname.obj
 0002:00005740       ??_C@_0L@NPHFGOKO@__thiscall?$AA@ 1003d740     LIBCMT:undname.obj
 0002:0000574c       ??_C@_0L@JMKHOMEK@__fastcall?$AA@ 1003d74c     LIBCMT:undname.obj
 0002:00005758       ??_C@_0N@BCKKPABJ@__vectorcall?$AA@ 1003d758     LIBCMT:undname.obj
 0002:00005768       ??_C@_09HIJEGCPM@__clrcall?$AA@ 1003d768     LIBCMT:undname.obj
 0002:00005774       ??_C@_06GHPCKEAG@__eabi?$AA@ 1003d774     LIBCMT:undname.obj
 0002:0000577c       ??_C@_07JOMMBBKO@__ptr64?$AA@ 1003d77c     LIBCMT:undname.obj
 0002:00005784       ??_C@_0L@PILCLIHE@__restrict?$AA@ 1003d784     LIBCMT:undname.obj
 0002:00005790       ??_C@_0M@GFIIJFMG@__unaligned?$AA@ 1003d790     LIBCMT:undname.obj
 0002:0000579c       ??_C@_09DHDLOLLB@restrict?$CI?$AA@ 1003d79c     LIBCMT:undname.obj
 0002:000057a6       ??_C@_00CNPNBAHC@?$AA@     1003d7a6     LIBCMT:undname.obj
 0002:000057a8       ??_C@_04NIHEBCM@?5new?$AA@ 1003d7a8     LIBCMT:undname.obj
 0002:000057b0       ??_C@_07FPCDHGMM@?5delete?$AA@ 1003d7b0     LIBCMT:undname.obj
 0002:000057b8       ??_C@_01NEMOKFLO@?$DN?$AA@ 1003d7b8     LIBCMT:undname.obj
 0002:000057bc       ??_C@_02GPIOPFAK@?$DO?$DO?$AA@ 1003d7bc     LIBCMT:undname.obj
 0002:000057c0       ??_C@_02FODMEDOG@?$DM?$DM?$AA@ 1003d7c0     LIBCMT:undname.obj
 0002:000057c4       ??_C@_01DCLJPIOD@?$CB?$AA@ 1003d7c4     LIBCMT:undname.obj
 0002:000057c8       ??_C@_02EGOFBIJA@?$DN?$DN?$AA@ 1003d7c8     LIBCMT:undname.obj
 0002:000057cc       ??_C@_02FDNJECIE@?$CB?$DN?$AA@ 1003d7cc     LIBCMT:undname.obj
 0002:000057d0       ??_C@_02GPECMEKF@?$FL?$FN?$AA@ 1003d7d0     LIBCMT:undname.obj
 0002:000057d4       ??_C@_08LHJFAFGD@operator?$AA@ 1003d7d4     LIBCMT:undname.obj
 0002:000057e0       ??_C@_02HBOOOICD@?9?$DO?$AA@ 1003d7e0     LIBCMT:undname.obj
 0002:000057e4       ??_C@_01NBENCBCI@?$CK?$AA@ 1003d7e4     LIBCMT:undname.obj
 0002:000057e8       ??_C@_02ECNGHCIF@?$CL?$CL?$AA@ 1003d7e8     LIBCMT:undname.obj
 0002:000057ec       ??_C@_02BAABKJLB@?9?9?$AA@ 1003d7ec     LIBCMT:undname.obj
 0002:000057f0       ??_C@_01JOAMLHOP@?9?$AA@   1003d7f0     LIBCMT:undname.obj
 0002:000057f4       ??_C@_01MIFGBAGJ@?$CL?$AA@ 1003d7f4     LIBCMT:undname.obj
 0002:000057f8       ??_C@_01HNPIGOCE@?$CG?$AA@ 1003d7f8     LIBCMT:undname.obj
 0002:000057fc       ??_C@_03MNHNFDLC@?9?$DO?$CK?$AA@ 1003d7fc     LIBCMT:undname.obj
 0002:00005800       ??_C@_01KMDKNFGN@?1?$AA@   1003d800     LIBCMT:undname.obj
 0002:00005804       ??_C@_01FGNFDNOH@?$CF?$AA@ 1003d804     LIBCMT:undname.obj
 0002:00005808       ??_C@_01MNNFJEPP@?$DM?$AA@ 1003d808     LIBCMT:undname.obj
 0002:0000580c       ??_C@_02EHCHHCKH@?$DM?$DN?$AA@ 1003d80c     LIBCMT:undname.obj
 0002:00005810       ??_C@_01PPODPGHN@?$DO?$AA@ 1003d810     LIBCMT:undname.obj
 0002:00005814       ??_C@_02EEKDKGMJ@?$DO?$DN?$AA@ 1003d814     LIBCMT:undname.obj
 0002:00005818       ??_C@_01IHBHIGKO@?0?$AA@   1003d818     LIBCMT:undname.obj
 0002:0000581c       ??_C@_02HCKGKOFO@?$CI?$CJ?$AA@ 1003d81c     LIBCMT:undname.obj
 0002:00005820       ??_C@_01PJKLJHI@?$HO?$AA@  1003d820     LIBCMT:undname.obj
 0002:00005824       ??_C@_01JKBOJNNK@?$FO?$AA@ 1003d824     LIBCMT:undname.obj
 0002:00005828       ??_C@_01DNKMNLPK@?$HM?$AA@ 1003d828     LIBCMT:undname.obj
 0002:0000582c       ??_C@_02PPKAJPJL@?$CG?$CG?$AA@ 1003d82c     LIBCMT:undname.obj
 0002:00005830       ??_C@_02NONPIBCD@?$HM?$HM?$AA@ 1003d830     LIBCMT:undname.obj
 0002:00005834       ??_C@_02FPIMKNGF@?$CK?$DN?$AA@ 1003d834     LIBCMT:undname.obj
 0002:00005838       ??_C@_02FOEOMHFC@?$CL?$DN?$AA@ 1003d838     LIBCMT:undname.obj
 0002:0000583c       ??_C@_02FKMDLLOA@?9?$DN?$AA@ 1003d83c     LIBCMT:undname.obj
 0002:00005840       ??_C@_02FJEHGPIO@?1?$DN?$AA@ 1003d840     LIBCMT:undname.obj
 0002:00005844       ??_C@_02FENAOKFI@?$CF?$DN?$AA@ 1003d844     LIBCMT:undname.obj
 0002:00005848       ??_C@_03IKFCCPFF@?$DO?$DO?$DN?$AA@ 1003d848     LIBCMT:undname.obj
 0002:0000584c       ??_C@_03CDNPDDLA@?$DM?$DM?$DN?$AA@ 1003d84c     LIBCMT:undname.obj
 0002:00005850       ??_C@_02FGJGFEAB@?$CG?$DN?$AA@ 1003d850     LIBCMT:undname.obj
 0002:00005854       ??_C@_02DHLNPPGH@?$HM?$DN?$AA@ 1003d854     LIBCMT:undname.obj
 0002:00005858       ??_C@_02MHEGNOJ@?$FO?$DN?$AA@ 1003d858     LIBCMT:undname.obj
 0002:0000585c       ??_C@_09IFPLHPGF@?$GAvftable?8?$AA@ 1003d85c     LIBCMT:undname.obj
 0002:00005868       ??_C@_09BLBHBJP@?$GAvbtable?8?$AA@ 1003d868     LIBCMT:undname.obj
 0002:00005874       ??_C@_07FEEIOKP@?$GAvcall?8?$AA@ 1003d874     LIBCMT:undname.obj
 0002:0000587c       ??_C@_08LLFFHHDJ@?$GAtypeof?8?$AA@ 1003d87c     LIBCMT:undname.obj
 0002:00005888       ??_C@_0BF@KDPPACIK@?$GAlocal?5static?5guard?8?$AA@ 1003d888     LIBCMT:undname.obj
 0002:000058a0       ??_C@_08OBABFOLI@?$GAstring?8?$AA@ 1003d8a0     LIBCMT:undname.obj
 0002:000058ac       ??_C@_0BD@JDLKDPAB@?$GAvbase?5destructor?8?$AA@ 1003d8ac     LIBCMT:undname.obj
 0002:000058c0       ??_C@_0BN@DEGPLNFK@?$GAvector?5deleting?5destructor?8?$AA@ 1003d8c0     LIBCMT:undname.obj
 0002:000058e0       ??_C@_0BO@OBMKPJIG@?$GAdefault?5constructor?5closure?8?$AA@ 1003d8e0     LIBCMT:undname.obj
 0002:00005900       ??_C@_0BN@IMDCHIKM@?$GAscalar?5deleting?5destructor?8?$AA@ 1003d900     LIBCMT:undname.obj
 0002:00005920       ??_C@_0BO@PFGOCPJJ@?$GAvector?5constructor?5iterator?8?$AA@ 1003d920     LIBCMT:undname.obj
 0002:00005940       ??_C@_0BN@LFPFMEDL@?$GAvector?5destructor?5iterator?8?$AA@ 1003d940     LIBCMT:undname.obj
 0002:00005960       ??_C@_0CE@IKBNEHA@?$GAvector?5vbase?5constructor?5iterat@ 1003d960     LIBCMT:undname.obj
 0002:00005984       ??_C@_0BL@NILFHHPC@?$GAvirtual?5displacement?5map?8?$AA@ 1003d984     LIBCMT:undname.obj
 0002:000059a0       ??_C@_0CB@JONCMFFK@?$GAeh?5vector?5constructor?5iterator?8@ 1003d9a0     LIBCMT:undname.obj
 0002:000059c4       ??_C@_0CA@GCEOPDGL@?$GAeh?5vector?5destructor?5iterator?8?$AA@ 1003d9c4     LIBCMT:undname.obj
 0002:000059e4       ??_C@_0CH@OOJPLCPH@?$GAeh?5vector?5vbase?5constructor?5ite@ 1003d9e4     LIBCMT:undname.obj
 0002:00005a0c       ??_C@_0BL@LLKPOHJI@?$GAcopy?5constructor?5closure?8?$AA@ 1003da0c     LIBCMT:undname.obj
 0002:00005a28       ??_C@_0BA@KBCDOMBN@?$GAudt?5returning?8?$AA@ 1003da28     LIBCMT:undname.obj
 0002:00005a38       ??_C@_03KLGMFNMG@?$GAEH?$AA@ 1003da38     LIBCMT:undname.obj
 0002:00005a3c       ??_C@_05KHLCHHI@?$GARTTI?$AA@ 1003da3c     LIBCMT:undname.obj
 0002:00005a44       ??_C@_0BA@KKLDJDLB@?$GAlocal?5vftable?8?$AA@ 1003da44     LIBCMT:undname.obj
 0002:00005a54       ??_C@_0CE@IIHCMGGL@?$GAlocal?5vftable?5constructor?5closu@ 1003da54     LIBCMT:undname.obj
 0002:00005a78       ??_C@_06FHBGPFGH@?5new?$FL?$FN?$AA@ 1003da78     LIBCMT:undname.obj
 0002:00005a80       ??_C@_09LBNFPBCA@?5delete?$FL?$FN?$AA@ 1003da80     LIBCMT:undname.obj
 0002:00005a8c       ??_C@_0P@HJKNJFNN@?$GAomni?5callsig?8?$AA@ 1003da8c     LIBCMT:undname.obj
 0002:00005a9c       ??_C@_0BL@CNOONJFP@?$GAplacement?5delete?5closure?8?$AA@ 1003da9c     LIBCMT:undname.obj
 0002:00005ab8       ??_C@_0BN@CKNJLHMB@?$GAplacement?5delete?$FL?$FN?5closure?8?$AA@ 1003dab8     LIBCMT:undname.obj
 0002:00005ad8       ??_C@_0CG@CFDHKGGD@?$GAmanaged?5vector?5constructor?5iter@ 1003dad8     LIBCMT:undname.obj
 0002:00005b00       ??_C@_0CF@IMGKMJNO@?$GAmanaged?5vector?5destructor?5itera@ 1003db00     LIBCMT:undname.obj
 0002:00005b28       ??_C@_0CG@HLDDJMAG@?$GAeh?5vector?5copy?5constructor?5iter@ 1003db28     LIBCMT:undname.obj
 0002:00005b50       ??_C@_0CM@FCBBDIGB@?$GAeh?5vector?5vbase?5copy?5constructo@ 1003db50     LIBCMT:undname.obj
 0002:00005b7c       ??_C@_0BL@CLIPGLGB@?$GAdynamic?5initializer?5for?5?8?$AA@ 1003db7c     LIBCMT:undname.obj
 0002:00005b98       ??_C@_0CB@PDBIFEP@?$GAdynamic?5atexit?5destructor?5for?5?8@ 1003db98     LIBCMT:undname.obj
 0002:00005bbc       ??_C@_0CD@CGAJBKEJ@?$GAvector?5copy?5constructor?5iterato@ 1003dbbc     LIBCMT:undname.obj
 0002:00005be0       ??_C@_0CJ@GJELGAMM@?$GAvector?5vbase?5copy?5constructor?5i@ 1003dbe0     LIBCMT:undname.obj
 0002:00005c0c       ??_C@_0CL@FGIJHLCE@?$GAmanaged?5vector?5copy?5constructor@ 1003dc0c     LIBCMT:undname.obj
 0002:00005c38       ??_C@_0BM@PMGGMLDN@?$GAlocal?5static?5thread?5guard?8?$AA@ 1003dc38     LIBCMT:undname.obj
 0002:00005c54       ??_C@_0BC@DAFEJGAK@?5Type?5Descriptor?8?$AA@ 1003dc54     LIBCMT:undname.obj
 0002:00005c68       ??_C@_0BM@LDKODKLH@?5Base?5Class?5Descriptor?5at?5?$CI?$AA@ 1003dc68     LIBCMT:undname.obj
 0002:00005c84       ??_C@_0BD@LGICGFMM@?5Base?5Class?5Array?8?$AA@ 1003dc84     LIBCMT:undname.obj
 0002:00005c98       ??_C@_0BN@MECKDCOJ@?5Class?5Hierarchy?5Descriptor?8?$AA@ 1003dc98     LIBCMT:undname.obj
 0002:00005cb8       ??_C@_0BK@CFCOFLF@?5Complete?5Object?5Locator?8?$AA@ 1003dcb8     LIBCMT:undname.obj
 0002:00005cd4       ??_C@_04HEJADOOB@CV?3?5?$AA@ 1003dcd4     LIBCMT:undname.obj
 0002:00005cdc       ??_C@_02MOLJINC@?3?3?$AA@  1003dcdc     LIBCMT:undname.obj
 0002:00005ce0       ??_C@_0BE@JAEOCHPE@template?9parameter?9?$AA@ 1003dce0     LIBCMT:undname.obj
 0002:00005cf4       ??_C@_0O@KHGCOMHP@generic?9type?9?$AA@ 1003dcf4     LIBCMT:undname.obj
 0002:00005d04       ??_C@_01NLNLIGKH@?$GA?$AA@ 1003dd04     LIBCMT:undname.obj
 0002:00005d08       ??_C@_01GEODFPGF@?8?$AA@   1003dd08     LIBCMT:undname.obj
 0002:00005d0c       ??_C@_0BG@JNJLAMPM@?$GAanonymous?5namespace?8?$AA@ 1003dd0c     LIBCMT:undname.obj
 0002:00005d24       ??_C@_02OHHJMEON@?8?8?$AA@ 1003dd24     LIBCMT:undname.obj
 0002:00005d28       ??_C@_0BN@IBLMMFAP@?$GAnon?9type?9template?9parameter?$AA@ 1003dd28     LIBCMT:undname.obj
 0002:00005d48       ??_C@_04GKJNKENE@void?$AA@ 1003dd48     LIBCMT:undname.obj
 0002:00005d50       ??_C@_0BE@EODMJLIF@?$GAtemplate?9parameter?$AA@ 1003dd50     LIBCMT:undname.obj
 0002:00005d64       ??_C@_03KHICJKCI@?4?4?4?$AA@ 1003dd64     LIBCMT:undname.obj
 0002:00005d68       ??_C@_04HIBGFPH@NULL?$AA@  1003dd68     LIBCMT:undname.obj
 0002:00005d70       ??_C@_03OPGICMGF@?$HN?8?5?$AA@ 1003dd70     LIBCMT:undname.obj
 0002:00005d74       ??_C@_02IGFCGPIL@?$HN?8?$AA@ 1003dd74     LIBCMT:undname.obj
 0002:00005d78       ??_C@_01CLKCMJKC@?5?$AA@   1003dd78     LIBCMT:undname.obj
 0002:00005d7c       ??_C@_0N@CBHHHENL@?$GAvtordispex?$HL?$AA@ 1003dd7c     LIBCMT:undname.obj
 0002:00005d8c       ??_C@_0L@GHPFDFH@?$GAvtordisp?$HL?$AA@ 1003dd8c     LIBCMT:undname.obj
 0002:00005d98       ??_C@_0L@HNGCOGAE@?$GAadjustor?$HL?$AA@ 1003dd98     LIBCMT:undname.obj
 0002:00005da4       ??_C@_0CB@KJDOOODE@?$GAlocal?5static?5destructor?5helper?8@ 1003dda4     LIBCMT:undname.obj
 0002:00005dc8       ??_C@_0DB@ILEFOCIJ@?$GAtemplate?5static?5data?5member?5con@ 1003ddc8     LIBCMT:undname.obj
 0002:00005dfc       ??_C@_0DA@HGFJFBBE@?$GAtemplate?5static?5data?5member?5des@ 1003ddfc     LIBCMT:undname.obj
 0002:00005e2c       ??_C@_07PGOEDBHP@static?5?$AA@ 1003de2c     LIBCMT:undname.obj
 0002:00005e34       ??_C@_08NIEOINHE@virtual?5?$AA@ 1003de34     LIBCMT:undname.obj
 0002:00005e40       ??_C@_09LAPHOOG@private?3?5?$AA@ 1003de40     LIBCMT:undname.obj
 0002:00005e4c       ??_C@_0M@GAIFPFIP@protected?3?5?$AA@ 1003de4c     LIBCMT:undname.obj
 0002:00005e58       ??_C@_08GPDDCMKI@public?3?5?$AA@ 1003de58     LIBCMT:undname.obj
 0002:00005e64       ??_C@_08KJLFOPNE@?$FLthunk?$FN?3?$AA@ 1003de64     LIBCMT:undname.obj
 0002:00005e70       ??_C@_0M@DHNBOJMP@extern?5?$CCC?$CC?5?$AA@ 1003de70     LIBCMT:undname.obj
 0002:00005e7c       ??_C@_02KCKGHPCA@?$CJ?5?$AA@ 1003de7c     LIBCMT:undname.obj
 0002:00005e80       ??_C@_05CIHEBHNO@char?5?$AA@ 1003de80     LIBCMT:undname.obj
 0002:00005e88       ??_C@_06EHJMALKF@short?5?$AA@ 1003de88     LIBCMT:undname.obj
 0002:00005e90       ??_C@_04LAHKHJMA@int?5?$AA@ 1003de90     LIBCMT:undname.obj
 0002:00005e98       ??_C@_05CJIMAING@long?5?$AA@ 1003de98     LIBCMT:undname.obj
 0002:00005ea0       ??_C@_09EBBEKKIH@unsigned?5?$AA@ 1003dea0     LIBCMT:undname.obj
 0002:00005eac       ??_C@_05BEFAKPML@void?5?$AA@ 1003deac     LIBCMT:undname.obj
 0002:00005eb4       ??_C@_08PABEKFH@volatile?$AA@ 1003deb4     LIBCMT:undname.obj
 0002:00005ec0       ??_C@_0P@GCOCNKDM@std?3?3nullptr_t?$AA@ 1003dec0     LIBCMT:undname.obj
 0002:00005ed0       ??_C@_0L@EGPHHEKN@?$DMellipsis?$DO?$AA@ 1003ded0     LIBCMT:undname.obj
 0002:00005edc       ??_C@_04EENFHACM@?0?4?4?4?$AA@ 1003dedc     LIBCMT:undname.obj
 0002:00005ee4       ??_C@_0M@ELJOJFFH@?0?$DMellipsis?$DO?$AA@ 1003dee4     LIBCMT:undname.obj
 0002:00005ef0       ??_C@_07HDJPLPEK@?5throw?$CI?$AA@ 1003def0     LIBCMT:undname.obj
 0002:00005ef8       ??_C@_03PBJBJNON@cpu?$AA@  1003def8     LIBCMT:undname.obj
 0002:00005efc       ??_C@_03DCBBJBAA@amp?$AA@  1003defc     LIBCMT:undname.obj
 0002:00005f00       ??_C@_02KEGNLNML@?0?5?$AA@ 1003df00     LIBCMT:undname.obj
 0002:00005f04       ??_C@_04ENMBGAPA@char?$AA@ 1003df04     LIBCMT:undname.obj
 0002:00005f0c       ??_C@_05BFKKPKCG@short?$AA@ 1003df0c     LIBCMT:undname.obj
 0002:00005f14       ??_C@_03JBIPMCLC@int?$AA@  1003df14     LIBCMT:undname.obj
 0002:00005f18       ??_C@_04GOKPGOLB@long?$AA@ 1003df18     LIBCMT:undname.obj
 0002:00005f20       ??_C@_05KNFBNCOH@float?$AA@ 1003df20     LIBCMT:undname.obj
 0002:00005f28       ??_C@_06BNJCAIGJ@double?$AA@ 1003df28     LIBCMT:undname.obj
 0002:00005f30       ??_C@_04DDKJGDCM@bool?$AA@ 1003df30     LIBCMT:undname.obj
 0002:00005f38       ??_C@_06EBGKOKIG@__int8?$AA@ 1003df38     LIBCMT:undname.obj
 0002:00005f40       ??_C@_07ICFHOGAF@__int16?$AA@ 1003df40     LIBCMT:undname.obj
 0002:00005f48       ??_C@_07OFLPPHGP@__int32?$AA@ 1003df48     LIBCMT:undname.obj
 0002:00005f50       ??_C@_07LFCOJCAC@__int64?$AA@ 1003df50     LIBCMT:undname.obj
 0002:00005f58       ??_C@_08GAHOLHEO@__int128?$AA@ 1003df58     LIBCMT:undname.obj
 0002:00005f64       ??_C@_09EEKGDCPH@?$DMunknown?$DO?$AA@ 1003df64     LIBCMT:undname.obj
 0002:00005f70       ??_C@_07CLGGIAMF@wchar_t?$AA@ 1003df70     LIBCMT:undname.obj
 0002:00005f78       ??_C@_06GCICPBLB@__w64?5?$AA@ 1003df78     LIBCMT:undname.obj
 0002:00005f80       ??_C@_07NFANNNEC@UNKNOWN?$AA@ 1003df80     LIBCMT:undname.obj
 0002:00005f88       ??_C@_07EDHNAJHC@signed?5?$AA@ 1003df88     LIBCMT:undname.obj
 0002:00005f90       ??_C@_05BNCCCJPP@const?$AA@ 1003df90     LIBCMT:undname.obj
 0002:00005f98       ??_C@_09EFNPDFFP@?5volatile?$AA@ 1003df98     LIBCMT:undname.obj
 0002:00005fa4       ??_C@_0P@GCIFDJCJ@?$GAunknown?5ecsu?8?$AA@ 1003dfa4     LIBCMT:undname.obj
 0002:00005fb4       ??_C@_06MOJHIBMG@union?5?$AA@ 1003dfb4     LIBCMT:undname.obj
 0002:00005fbc       ??_C@_07DIBCDNGL@struct?5?$AA@ 1003dfbc     LIBCMT:undname.obj
 0002:00005fc4       ??_C@_06LJBABKPM@class?5?$AA@ 1003dfc4     LIBCMT:undname.obj
 0002:00005fcc       ??_C@_08KOFANOFK@coclass?5?$AA@ 1003dfcc     LIBCMT:undname.obj
 0002:00005fd8       ??_C@_0N@DLIEFKNA@cointerface?5?$AA@ 1003dfd8     LIBCMT:undname.obj
 0002:00005fe8       ??_C@_05LJGMCFOG@enum?5?$AA@ 1003dfe8     LIBCMT:undname.obj
 0002:00005ff0       ??_C@_09GAIEOBLP@volatile?5?$AA@ 1003dff0     LIBCMT:undname.obj
 0002:00005ffc       ??_C@_06LIJLOJAG@const?5?$AA@ 1003dffc     LIBCMT:undname.obj
 0002:00006004       ??_C@_0M@EALIELKG@cli?3?3array?$DM?$AA@ 1003e004     LIBCMT:undname.obj
 0002:00006010       ??_C@_0O@GKABPPIF@cli?3?3pin_ptr?$DM?$AA@ 1003e010     LIBCMT:undname.obj
 0002:00006020       ??_C@_02GOGNNPBN@?$CJ?$FL?$AA@ 1003e020     LIBCMT:undname.obj
 0002:00006024       ??_C@_06EEGAIFAK@?$HLflat?$HN?$AA@ 1003e024     LIBCMT:undname.obj
 0002:0000602c       ??_C@_05JIBOFOHK@?$HLfor?5?$AA@ 1003e02c     LIBCMT:undname.obj
 0002:00006034       ??_C@_02MDINNEEG@s?5?$AA@  1003e034     LIBCMT:undname.obj
 0002:0000603c       ??_7DNameNode@@6B@         1003e03c     LIBCMT:undname.obj
 0002:0000604c       ??_7charNode@@6B@          1003e04c     LIBCMT:undname.obj
 0002:0000605c       ??_7pcharNode@@6B@         1003e05c     LIBCMT:undname.obj
 0002:0000606c       ??_7pDNameNode@@6B@        1003e06c     LIBCMT:undname.obj
 0002:0000607c       ??_7DNameStatusNode@@6B@   1003e07c     LIBCMT:undname.obj
 0002:0000608c       ??_7pairNode@@6B@          1003e08c     LIBCMT:undname.obj
 0002:00006098       ??_C@_04OKOHEJBO@?5?$DP?$DP?5?$AA@ 1003e098     LIBCMT:undname.obj
 0002:000060a0       ___lc_category             1003e0a0     LIBCMT:wsetloca.obj
 0002:000060e8       ??_C@_1O@GIFLHMA@?$AAL?$AAC?$AA_?$AAA?$AAL?$AAL?$AA?$AA@ 1003e0e8     LIBCMT:wsetloca.obj
 0002:000060f8       ??_C@_1BG@PPOMIBNJ@?$AAL?$AAC?$AA_?$AAC?$AAO?$AAL?$AAL?$AAA?$AAT?$AAE?$AA?$AA@ 1003e0f8     LIBCMT:wsetloca.obj
 0002:00006110       ??_C@_1BC@FFJGAPJM@?$AAL?$AAC?$AA_?$AAC?$AAT?$AAY?$AAP?$AAE?$AA?$AA@ 1003e110     LIBCMT:wsetloca.obj
 0002:00006124       ??_C@_1BI@PCKFNJFB@?$AAL?$AAC?$AA_?$AAM?$AAO?$AAN?$AAE?$AAT?$AAA?$AAR?$AAY?$AA?$AA@ 1003e124     LIBCMT:wsetloca.obj
 0002:0000613c       ??_C@_1BG@ENIEDKID@?$AAL?$AAC?$AA_?$AAN?$AAU?$AAM?$AAE?$AAR?$AAI?$AAC?$AA?$AA@ 1003e13c     LIBCMT:wsetloca.obj
 0002:00006154       ??_C@_1BA@HAAOMIIG@?$AAL?$AAC?$AA_?$AAT?$AAI?$AAM?$AAE?$AA?$AA@ 1003e154     LIBCMT:wsetloca.obj
 0002:000061e8       ??_C@_15NBPDDFIP@?$AA?$DN?$AA?$DL?$AA?$AA@ 1003e1e8     LIBCMT:wsetloca.obj
 0002:000061f0       ??_C@_13PJJBFPED@?$AA?$DL?$AA?$AA@ 1003e1f0     LIBCMT:wsetloca.obj
 0002:000061f4       ??_C@_13NMPKAAJP@?$AA?$DN?$AA?$AA@ 1003e1f4     LIBCMT:wsetloca.obj
 0002:000061f8       ??_C@_13FHBKNHDA@?$AAC?$AA?$AA@ 1003e1f8     LIBCMT:wsetloca.obj
 0002:000061fc       ??_C@_17MBJJLFDM@?$AA_?$AA?4?$AA?0?$AA?$AA@ 1003e1fc     LIBCMT:wsetloca.obj
 0002:00006204       ??_C@_13ENNFDPBH@?$AA_?$AA?$AA@ 1003e204     LIBCMT:wsetloca.obj
 0002:00006208       ??_C@_13JOFGPIOO@?$AA?4?$AA?$AA@ 1003e208     LIBCMT:wsetloca.obj
 0002:00006210       ___newctype                1003e210     LIBCMT:ctype.obj
 0002:00006510       __wctype                   1003e510     LIBCMT:ctype.obj
 0002:00006718       ___newclmap                1003e718     LIBCMT:ctype.obj
 0002:00006898       ___newcumap                1003e898     LIBCMT:ctype.obj
 0002:00006a18       ??_C@_0M@HHGEPIBF@CreateFile2?$AA@ 1003ea18     LIBCMT:wopen.obj
 0002:00006a30       __indefinite               1003ea30     LIBCMT:87disp.obj
 0002:00006a3a       __piby2                    1003ea3a     LIBCMT:87disp.obj
 0002:00006a68       __DEFAULT_CW_in_mem        1003ea68     LIBCMT:common.obj
 0002:00006a6a       __pi_by_2_to_61            1003ea6a     LIBCMT:common.obj
 0002:00006aa8       ___lookuptable_s           1003eaa8     LIBCMT:outputs.obj
 0002:00006b08       ___rg_language             1003eb08     LIBCMT:getqloc.obj
 0002:00006e14       ??_C@_1BC@LLOKLNP@?$AAa?$AAm?$AAe?$AAr?$AAi?$AAc?$AAa?$AAn?$AA?$AA@ 1003ee14     LIBCMT:getqloc.obj
 0002:00006e28       ??_C@_1CC@HEIGCDGG@?$AAa?$AAm?$AAe?$AAr?$AAi?$AAc?$AAa?$AAn?$AA?5?$AAe?$AAn?$AAg?$AAl?$AAi?$AAs?$AAh?$AA?$AA@ 1003ee28     LIBCMT:getqloc.obj
 0002:00006e4c       ??_C@_1CC@IHCNOMIN@?$AAa?$AAm?$AAe?$AAr?$AAi?$AAc?$AAa?$AAn?$AA?9?$AAe?$AAn?$AAg?$AAl?$AAi?$AAs?$AAh?$AA?$AA@ 1003ee4c     LIBCMT:getqloc.obj
 0002:00006e70       ??_C@_1BG@GKAGPCGG@?$AAa?$AAu?$AAs?$AAt?$AAr?$AAa?$AAl?$AAi?$AAa?$AAn?$AA?$AA@ 1003ee70     LIBCMT:getqloc.obj
 0002:00006e88       ??_C@_1BA@GMENCENF@?$AAb?$AAe?$AAl?$AAg?$AAi?$AAa?$AAn?$AA?$AA@ 1003ee88     LIBCMT:getqloc.obj
 0002:00006e98       ??_C@_1BC@PJMIIAAN@?$AAc?$AAa?$AAn?$AAa?$AAd?$AAi?$AAa?$AAn?$AA?$AA@ 1003ee98     LIBCMT:getqloc.obj
 0002:00006eac       ??_C@_17NOIMNFBF@?$AAc?$AAh?$AAh?$AA?$AA@ 1003eeac     LIBCMT:getqloc.obj
 0002:00006eb4       ??_C@_17GGDALCHA@?$AAc?$AAh?$AAi?$AA?$AA@ 1003eeb4     LIBCMT:getqloc.obj
 0002:00006ebc       ??_C@_1BA@NPNJKIBL@?$AAc?$AAh?$AAi?$AAn?$AAe?$AAs?$AAe?$AA?$AA@ 1003eebc     LIBCMT:getqloc.obj
 0002:00006ecc       ??_C@_1CC@DINBAMMJ@?$AAc?$AAh?$AAi?$AAn?$AAe?$AAs?$AAe?$AA?9?$AAh?$AAo?$AAn?$AAg?$AAk?$AAo?$AAn?$AAg?$AA?$AA@ 1003eecc     LIBCMT:getqloc.obj
 0002:00006ef0       ??_C@_1CG@IOBJPACO@?$AAc?$AAh?$AAi?$AAn?$AAe?$AAs?$AAe?$AA?9?$AAs?$AAi?$AAm?$AAp?$AAl?$AAi?$AAf?$AAi?$AAe?$AAd?$AA?$AA@ 1003eef0     LIBCMT:getqloc.obj
 0002:00006f18       ??_C@_1CE@GAJNDCKG@?$AAc?$AAh?$AAi?$AAn?$AAe?$AAs?$AAe?$AA?9?$AAs?$AAi?$AAn?$AAg?$AAa?$AAp?$AAo?$AAr?$AAe?$AA?$AA@ 1003ef18     LIBCMT:getqloc.obj
 0002:00006f3c       ??_C@_1CI@PAJPIOOD@?$AAc?$AAh?$AAi?$AAn?$AAe?$AAs?$AAe?$AA?9?$AAt?$AAr?$AAa?$AAd?$AAi?$AAt?$AAi?$AAo?$AAn?$AAa?$AAl?$AA?$AA@ 1003ef3c     LIBCMT:getqloc.obj
 0002:00006f64       ??_C@_1BM@NILJBMMD@?$AAd?$AAu?$AAt?$AAc?$AAh?$AA?9?$AAb?$AAe?$AAl?$AAg?$AAi?$AAa?$AAn?$AA?$AA@ 1003ef64     LIBCMT:getqloc.obj
 0002:00006f80       ??_C@_1CC@OOJPJNEJ@?$AAe?$AAn?$AAg?$AAl?$AAi?$AAs?$AAh?$AA?9?$AAa?$AAm?$AAe?$AAr?$AAi?$AAc?$AAa?$AAn?$AA?$AA@ 1003ef80     LIBCMT:getqloc.obj
 0002:00006fa4       ??_C@_1BI@IOLFEEM@?$AAe?$AAn?$AAg?$AAl?$AAi?$AAs?$AAh?$AA?9?$AAa?$AAu?$AAs?$AA?$AA@ 1003efa4     LIBCMT:getqloc.obj
 0002:00006fbc       ??_C@_1BO@HFFNLENJ@?$AAe?$AAn?$AAg?$AAl?$AAi?$AAs?$AAh?$AA?9?$AAb?$AAe?$AAl?$AAi?$AAz?$AAe?$AA?$AA@ 1003efbc     LIBCMT:getqloc.obj
 0002:00006fdc       ??_C@_1BI@HAPKJMPO@?$AAe?$AAn?$AAg?$AAl?$AAi?$AAs?$AAh?$AA?9?$AAc?$AAa?$AAn?$AA?$AA@ 1003efdc     LIBCMT:getqloc.obj
 0002:00006ff4       ??_C@_1CE@HLNDMIOJ@?$AAe?$AAn?$AAg?$AAl?$AAi?$AAs?$AAh?$AA?9?$AAc?$AAa?$AAr?$AAi?$AAb?$AAb?$AAe?$AAa?$AAn?$AA?$AA@ 1003eff4     LIBCMT:getqloc.obj
 0002:00007018       ??_C@_1BI@LDHJHHAC@?$AAe?$AAn?$AAg?$AAl?$AAi?$AAs?$AAh?$AA?9?$AAi?$AAr?$AAe?$AA?$AA@ 1003f018     LIBCMT:getqloc.obj
 0002:00007030       ??_C@_1CA@NJMMCFOC@?$AAe?$AAn?$AAg?$AAl?$AAi?$AAs?$AAh?$AA?9?$AAj?$AAa?$AAm?$AAa?$AAi?$AAc?$AAa?$AA?$AA@ 1003f030     LIBCMT:getqloc.obj
 0002:00007050       ??_C@_1BG@BHJEBBGG@?$AAe?$AAn?$AAg?$AAl?$AAi?$AAs?$AAh?$AA?9?$AAn?$AAz?$AA?$AA@ 1003f050     LIBCMT:getqloc.obj
 0002:00007068       ??_C@_1CK@FGOEJJCO@?$AAe?$AAn?$AAg?$AAl?$AAi?$AAs?$AAh?$AA?9?$AAs?$AAo?$AAu?$AAt?$AAh?$AA?5?$AAa?$AAf?$AAr?$AAi?$AAc?$AAa?$AA?$AA@ 1003f068     LIBCMT:getqloc.obj
 0002:00007094       ??_C@_1DE@PDBJPCJ@?$AAe?$AAn?$AAg?$AAl?$AAi?$AAs?$AAh?$AA?9?$AAt?$AAr?$AAi?$AAn?$AAi?$AAd?$AAa?$AAd?$AA?5?$AAy?$AA?5?$AAt?$AAo?$AAb?$AAa?$AAg?$AAo?$AA?$AA@ 1003f094     LIBCMT:getqloc.obj
 0002:000070c8       ??_C@_1BG@JGCANDME@?$AAe?$AAn?$AAg?$AAl?$AAi?$AAs?$AAh?$AA?9?$AAu?$AAk?$AA?$AA@ 1003f0c8     LIBCMT:getqloc.obj
 0002:000070e0       ??_C@_1BG@DINKMLE@?$AAe?$AAn?$AAg?$AAl?$AAi?$AAs?$AAh?$AA?9?$AAu?$AAs?$AA?$AA@ 1003f0e0     LIBCMT:getqloc.obj
 0002:000070f8       ??_C@_1BI@NMFDBHJE@?$AAe?$AAn?$AAg?$AAl?$AAi?$AAs?$AAh?$AA?9?$AAu?$AAs?$AAa?$AA?$AA@ 1003f0f8     LIBCMT:getqloc.obj
 0002:00007110       ??_C@_1BO@OIHKJKII@?$AAf?$AAr?$AAe?$AAn?$AAc?$AAh?$AA?9?$AAb?$AAe?$AAl?$AAg?$AAi?$AAa?$AAn?$AA?$AA@ 1003f110     LIBCMT:getqloc.obj
 0002:00007130       ??_C@_1CA@NKAELJKI@?$AAf?$AAr?$AAe?$AAn?$AAc?$AAh?$AA?9?$AAc?$AAa?$AAn?$AAa?$AAd?$AAi?$AAa?$AAn?$AA?$AA@ 1003f130     LIBCMT:getqloc.obj
 0002:00007150       ??_C@_1CE@MGKCNLGN@?$AAf?$AAr?$AAe?$AAn?$AAc?$AAh?$AA?9?$AAl?$AAu?$AAx?$AAe?$AAm?$AAb?$AAo?$AAu?$AAr?$AAg?$AA?$AA@ 1003f150     LIBCMT:getqloc.obj
 0002:00007174       ??_C@_1BK@CEGEAILM@?$AAf?$AAr?$AAe?$AAn?$AAc?$AAh?$AA?9?$AAs?$AAw?$AAi?$AAs?$AAs?$AA?$AA@ 1003f174     LIBCMT:getqloc.obj
 0002:00007190       ??_C@_1CA@PAFKEOCC@?$AAg?$AAe?$AAr?$AAm?$AAa?$AAn?$AA?9?$AAa?$AAu?$AAs?$AAt?$AAr?$AAi?$AAa?$AAn?$AA?$AA@ 1003f190     LIBCMT:getqloc.obj
 0002:000071b0       ??_C@_1CI@HCFHGOFD@?$AAg?$AAe?$AAr?$AAm?$AAa?$AAn?$AA?9?$AAl?$AAi?$AAc?$AAh?$AAt?$AAe?$AAn?$AAs?$AAt?$AAe?$AAi?$AAn?$AA?$AA@ 1003f1b0     LIBCMT:getqloc.obj
 0002:000071d8       ??_C@_1CE@FEDDNPDG@?$AAg?$AAe?$AAr?$AAm?$AAa?$AAn?$AA?9?$AAl?$AAu?$AAx?$AAe?$AAm?$AAb?$AAo?$AAu?$AAr?$AAg?$AA?$AA@ 1003f1d8     LIBCMT:getqloc.obj
 0002:000071fc       ??_C@_1BK@LIMINNMN@?$AAg?$AAe?$AAr?$AAm?$AAa?$AAn?$AA?9?$AAs?$AAw?$AAi?$AAs?$AAs?$AA?$AA@ 1003f1fc     LIBCMT:getqloc.obj
 0002:00007218       ??_C@_1BM@LGMDBEPD@?$AAi?$AAr?$AAi?$AAs?$AAh?$AA?9?$AAe?$AAn?$AAg?$AAl?$AAi?$AAs?$AAh?$AA?$AA@ 1003f218     LIBCMT:getqloc.obj
 0002:00007234       ??_C@_1BM@NNCFBAEE@?$AAi?$AAt?$AAa?$AAl?$AAi?$AAa?$AAn?$AA?9?$AAs?$AAw?$AAi?$AAs?$AAs?$AA?$AA@ 1003f234     LIBCMT:getqloc.obj
 0002:00007250       ??_C@_1BE@FEDJNPIB@?$AAn?$AAo?$AAr?$AAw?$AAe?$AAg?$AAi?$AAa?$AAn?$AA?$AA@ 1003f250     LIBCMT:getqloc.obj
 0002:00007264       ??_C@_1CC@CILKDEIE@?$AAn?$AAo?$AAr?$AAw?$AAe?$AAg?$AAi?$AAa?$AAn?$AA?9?$AAb?$AAo?$AAk?$AAm?$AAa?$AAl?$AA?$AA@ 1003f264     LIBCMT:getqloc.obj
 0002:00007288       ??_C@_1CE@DHMMHEPL@?$AAn?$AAo?$AAr?$AAw?$AAe?$AAg?$AAi?$AAa?$AAn?$AA?9?$AAn?$AAy?$AAn?$AAo?$AAr?$AAs?$AAk?$AA?$AA@ 1003f288     LIBCMT:getqloc.obj
 0002:000072ac       ??_C@_1CK@OPNMHECD@?$AAp?$AAo?$AAr?$AAt?$AAu?$AAg?$AAu?$AAe?$AAs?$AAe?$AA?9?$AAb?$AAr?$AAa?$AAz?$AAi?$AAl?$AAi?$AAa?$AAn?$AA?$AA@ 1003f2ac     LIBCMT:getqloc.obj
 0002:000072d8       ??_C@_1CE@KEEHCDB@?$AAs?$AAp?$AAa?$AAn?$AAi?$AAs?$AAh?$AA?9?$AAa?$AAr?$AAg?$AAe?$AAn?$AAt?$AAi?$AAn?$AAa?$AA?$AA@ 1003f2d8     LIBCMT:getqloc.obj
 0002:000072fc       ??_C@_1CA@GIAOLHJD@?$AAs?$AAp?$AAa?$AAn?$AAi?$AAs?$AAh?$AA?9?$AAb?$AAo?$AAl?$AAi?$AAv?$AAi?$AAa?$AA?$AA@ 1003f2fc     LIBCMT:getqloc.obj
 0002:0000731c       ??_C@_1BM@OJNDFNPD@?$AAs?$AAp?$AAa?$AAn?$AAi?$AAs?$AAh?$AA?9?$AAc?$AAh?$AAi?$AAl?$AAe?$AA?$AA@ 1003f31c     LIBCMT:getqloc.obj
 0002:00007338       ??_C@_1CC@OCOLPALL@?$AAs?$AAp?$AAa?$AAn?$AAi?$AAs?$AAh?$AA?9?$AAc?$AAo?$AAl?$AAo?$AAm?$AAb?$AAi?$AAa?$AA?$AA@ 1003f338     LIBCMT:getqloc.obj
 0002:0000735c       ??_C@_1CG@BPOFMKBB@?$AAs?$AAp?$AAa?$AAn?$AAi?$AAs?$AAh?$AA?9?$AAc?$AAo?$AAs?$AAt?$AAa?$AA?5?$AAr?$AAi?$AAc?$AAa?$AA?$AA@ 1003f35c     LIBCMT:getqloc.obj
 0002:00007384       ??_C@_1DG@IGOBAPBB@?$AAs?$AAp?$AAa?$AAn?$AAi?$AAs?$AAh?$AA?9?$AAd?$AAo?$AAm?$AAi?$AAn?$AAi?$AAc?$AAa?$AAn?$AA?5?$AAr?$AAe?$AAp?$AAu?$AAb?$AAl?$AAi?$AAc?$AA?$AA@ 1003f384     LIBCMT:getqloc.obj
 0002:000073bc       ??_C@_1CA@JHAPGEGI@?$AAs?$AAp?$AAa?$AAn?$AAi?$AAs?$AAh?$AA?9?$AAe?$AAc?$AAu?$AAa?$AAd?$AAo?$AAr?$AA?$AA@ 1003f3bc     LIBCMT:getqloc.obj
 0002:000073dc       ??_C@_1CI@LAPALJPP@?$AAs?$AAp?$AAa?$AAn?$AAi?$AAs?$AAh?$AA?9?$AAe?$AAl?$AA?5?$AAs?$AAa?$AAl?$AAv?$AAa?$AAd?$AAo?$AAr?$AA?$AA@ 1003f3dc     LIBCMT:getqloc.obj
 0002:00007404       ??_C@_1CE@PDGBOFOM@?$AAs?$AAp?$AAa?$AAn?$AAi?$AAs?$AAh?$AA?9?$AAg?$AAu?$AAa?$AAt?$AAe?$AAm?$AAa?$AAl?$AAa?$AA?$AA@ 1003f404     LIBCMT:getqloc.obj
 0002:00007428       ??_C@_1CC@NBEBAODI@?$AAs?$AAp?$AAa?$AAn?$AAi?$AAs?$AAh?$AA?9?$AAh?$AAo?$AAn?$AAd?$AAu?$AAr?$AAa?$AAs?$AA?$AA@ 1003f428     LIBCMT:getqloc.obj
 0002:0000744c       ??_C@_1CA@LLKGHBMF@?$AAs?$AAp?$AAa?$AAn?$AAi?$AAs?$AAh?$AA?9?$AAm?$AAe?$AAx?$AAi?$AAc?$AAa?$AAn?$AA?$AA@ 1003f44c     LIBCMT:getqloc.obj
 0002:0000746c       ??_C@_1BO@LKNDOIGD@?$AAs?$AAp?$AAa?$AAn?$AAi?$AAs?$AAh?$AA?9?$AAm?$AAo?$AAd?$AAe?$AAr?$AAn?$AA?$AA@ 1003f46c     LIBCMT:getqloc.obj
 0002:0000748c       ??_C@_1CE@NMDMOEEB@?$AAs?$AAp?$AAa?$AAn?$AAi?$AAs?$AAh?$AA?9?$AAn?$AAi?$AAc?$AAa?$AAr?$AAa?$AAg?$AAu?$AAa?$AA?$AA@ 1003f48c     LIBCMT:getqloc.obj
 0002:000074b0       ??_C@_1BO@LLCBEJGB@?$AAs?$AAp?$AAa?$AAn?$AAi?$AAs?$AAh?$AA?9?$AAp?$AAa?$AAn?$AAa?$AAm?$AAa?$AA?$AA@ 1003f4b0     LIBCMT:getqloc.obj
 0002:000074d0       ??_C@_1CC@FKPGGIHO@?$AAs?$AAp?$AAa?$AAn?$AAi?$AAs?$AAh?$AA?9?$AAp?$AAa?$AAr?$AAa?$AAg?$AAu?$AAa?$AAy?$AA?$AA@ 1003f4d0     LIBCMT:getqloc.obj
 0002:000074f4       ??_C@_1BK@CDEIHOOP@?$AAs?$AAp?$AAa?$AAn?$AAi?$AAs?$AAh?$AA?9?$AAp?$AAe?$AAr?$AAu?$AA?$AA@ 1003f4f4     LIBCMT:getqloc.obj
 0002:00007510       ??_C@_1CI@GAHAKKGP@?$AAs?$AAp?$AAa?$AAn?$AAi?$AAs?$AAh?$AA?9?$AAp?$AAu?$AAe?$AAr?$AAt?$AAo?$AA?5?$AAr?$AAi?$AAc?$AAo?$AA?$AA@ 1003f510     LIBCMT:getqloc.obj
 0002:00007538       ??_C@_1CA@NKJBCAGP@?$AAs?$AAp?$AAa?$AAn?$AAi?$AAs?$AAh?$AA?9?$AAu?$AAr?$AAu?$AAg?$AAu?$AAa?$AAy?$AA?$AA@ 1003f538     LIBCMT:getqloc.obj
 0002:00007558       ??_C@_1CE@ODILCONM@?$AAs?$AAp?$AAa?$AAn?$AAi?$AAs?$AAh?$AA?9?$AAv?$AAe?$AAn?$AAe?$AAz?$AAu?$AAe?$AAl?$AAa?$AA?$AA@ 1003f558     LIBCMT:getqloc.obj
 0002:0000757c       ??_C@_1CA@OBNMCGFO@?$AAs?$AAw?$AAe?$AAd?$AAi?$AAs?$AAh?$AA?9?$AAf?$AAi?$AAn?$AAl?$AAa?$AAn?$AAd?$AA?$AA@ 1003f57c     LIBCMT:getqloc.obj
 0002:0000759c       ??_C@_1M@PIPDDPPI@?$AAs?$AAw?$AAi?$AAs?$AAs?$AA?$AA@ 1003f59c     LIBCMT:getqloc.obj
 0002:000075a8       ??_C@_15GMFIMNFM@?$AAu?$AAs?$AA?$AA@ 1003f5a8     LIBCMT:getqloc.obj
 0002:000075b0       ??_C@_17HAEBFAGL@?$AAu?$AAs?$AAa?$AA?$AA@ 1003f5b0     LIBCMT:getqloc.obj
 0002:000075b8       ___rg_country              1003f5b8     LIBCMT:getqloc.obj
 0002:000076cc       ??_C@_1BA@DPFJEPHB@?$AAa?$AAm?$AAe?$AAr?$AAi?$AAc?$AAa?$AA?$AA@ 1003f6cc     LIBCMT:getqloc.obj
 0002:000076dc       ??_C@_1BA@ELOGGFK@?$AAb?$AAr?$AAi?$AAt?$AAa?$AAi?$AAn?$AA?$AA@ 1003f6dc     LIBCMT:getqloc.obj
 0002:000076ec       ??_C@_1M@GHBGIGDA@?$AAc?$AAh?$AAi?$AAn?$AAa?$AA?$AA@ 1003f6ec     LIBCMT:getqloc.obj
 0002:000076f8       ??_C@_1M@NCHEJOPO@?$AAc?$AAz?$AAe?$AAc?$AAh?$AA?$AA@ 1003f6f8     LIBCMT:getqloc.obj
 0002:00007704       ??_C@_1BA@BKPAPBLA@?$AAe?$AAn?$AAg?$AAl?$AAa?$AAn?$AAd?$AA?$AA@ 1003f704     LIBCMT:getqloc.obj
 0002:00007714       ??_C@_1BM@HKBCKIPC@?$AAg?$AAr?$AAe?$AAa?$AAt?$AA?5?$AAb?$AAr?$AAi?$AAt?$AAa?$AAi?$AAn?$AA?$AA@ 1003f714     LIBCMT:getqloc.obj
 0002:00007730       ??_C@_1BA@PPCHPGJB@?$AAh?$AAo?$AAl?$AAl?$AAa?$AAn?$AAd?$AA?$AA@ 1003f730     LIBCMT:getqloc.obj
 0002:00007740       ??_C@_1BE@JBMPEGDG@?$AAh?$AAo?$AAn?$AAg?$AA?9?$AAk?$AAo?$AAn?$AAg?$AA?$AA@ 1003f740     LIBCMT:getqloc.obj
 0002:00007754       ??_C@_1BI@KOELBBPJ@?$AAn?$AAe?$AAw?$AA?9?$AAz?$AAe?$AAa?$AAl?$AAa?$AAn?$AAd?$AA?$AA@ 1003f754     LIBCMT:getqloc.obj
 0002:0000776c       ??_C@_15HIEBHAIO@?$AAn?$AAz?$AA?$AA@ 1003f76c     LIBCMT:getqloc.obj
 0002:00007774       ??_C@_1BC@CHBCPFPI@?$AAp?$AAr?$AA?5?$AAc?$AAh?$AAi?$AAn?$AAa?$AA?$AA@ 1003f774     LIBCMT:getqloc.obj
 0002:00007788       ??_C@_1BC@JAOIIFKD@?$AAp?$AAr?$AA?9?$AAc?$AAh?$AAi?$AAn?$AAa?$AA?$AA@ 1003f788     LIBCMT:getqloc.obj
 0002:0000779c       ??_C@_1BI@BEHPPHKC@?$AAp?$AAu?$AAe?$AAr?$AAt?$AAo?$AA?9?$AAr?$AAi?$AAc?$AAo?$AA?$AA@ 1003f79c     LIBCMT:getqloc.obj
 0002:000077b4       ??_C@_1O@PAEOFKDI@?$AAs?$AAl?$AAo?$AAv?$AAa?$AAk?$AA?$AA@ 1003f7b4     LIBCMT:getqloc.obj
 0002:000077c4       ??_C@_1BK@FIHMCKAM@?$AAs?$AAo?$AAu?$AAt?$AAh?$AA?5?$AAa?$AAf?$AAr?$AAi?$AAc?$AAa?$AA?$AA@ 1003f7c4     LIBCMT:getqloc.obj
 0002:000077e0       ??_C@_1BI@NAEOODKB@?$AAs?$AAo?$AAu?$AAt?$AAh?$AA?5?$AAk?$AAo?$AAr?$AAe?$AAa?$AA?$AA@ 1003f7e0     LIBCMT:getqloc.obj
 0002:000077f8       ??_C@_1BK@FBDGGIFF@?$AAs?$AAo?$AAu?$AAt?$AAh?$AA?9?$AAa?$AAf?$AAr?$AAi?$AAc?$AAa?$AA?$AA@ 1003f7f8     LIBCMT:getqloc.obj
 0002:00007814       ??_C@_1BI@GHLEJDPK@?$AAs?$AAo?$AAu?$AAt?$AAh?$AA?9?$AAk?$AAo?$AAr?$AAe?$AAa?$AA?$AA@ 1003f814     LIBCMT:getqloc.obj
 0002:0000782c       ??_C@_1CE@PLHLOMJF@?$AAt?$AAr?$AAi?$AAn?$AAi?$AAd?$AAa?$AAd?$AA?5?$AA?$CG?$AA?5?$AAt?$AAo?$AAb?$AAa?$AAg?$AAo?$AA?$AA@ 1003f82c     LIBCMT:getqloc.obj
 0002:00007850       ??_C@_1BO@MODIMHHI@?$AAu?$AAn?$AAi?$AAt?$AAe?$AAd?$AA?9?$AAk?$AAi?$AAn?$AAg?$AAd?$AAo?$AAm?$AA?$AA@ 1003f850     LIBCMT:getqloc.obj
 0002:00007870       ??_C@_1BM@FFHJONBJ@?$AAu?$AAn?$AAi?$AAt?$AAe?$AAd?$AA?9?$AAs?$AAt?$AAa?$AAt?$AAe?$AAs?$AA?$AA@ 1003f870     LIBCMT:getqloc.obj
 0002:0000788c       ___rg_language_count       1003f88c     LIBCMT:getqloc.obj
 0002:00007890       ___rg_country_count        1003f890     LIBCMT:getqloc.obj
 0002:00007894       ??_C@_17DNCLJFIF@?$AAA?$AAC?$AAP?$AA?$AA@ 1003f894     LIBCMT:getqloc.obj
 0002:0000789c       ??_C@_17CIKBIHLH@?$AAO?$AAC?$AAP?$AA?$AA@ 1003f89c     LIBCMT:getqloc.obj
 0002:000078a4       ___rglangidNotDefault      1003f8a4     LIBCMT:getqloc_downlevel.obj
 0002:000078b8       ??_C@_06PGGFOGJG@1?$CDSNAN?$AA@ 1003f8b8     LIBCMT:x10fout.obj
 0002:000078c0       ??_C@_05PHHOCPM@1?$CDIND?$AA@ 1003f8c0     LIBCMT:x10fout.obj
 0002:000078c8       ??_C@_05DNEBIAHO@1?$CDINF?$AA@ 1003f8c8     LIBCMT:x10fout.obj
 0002:000078d0       ??_C@_06IMKFLFPG@1?$CDQNAN?$AA@ 1003f8d0     LIBCMT:x10fout.obj
 0002:000078d8       ??_C@_1BA@BALFACEM@?$AAC?$AAO?$AAN?$AAO?$AAU?$AAT?$AA$?$AA?$AA@ 1003f8d8     LIBCMT:initcon.obj
 0002:000078e8       ?has_quiet_NaN@_Num_float_base@std@@2_NB 1003f8e8     libcpmt:xthrow.obj
 0002:000078e9       ?has_signaling_NaN@_Num_float_base@std@@2_NB 1003f8e9     libcpmt:xthrow.obj
 0002:000078ea       ?is_bounded@_Num_float_base@std@@2_NB 1003f8ea     libcpmt:xthrow.obj
 0002:000078ec       ??_C@_1M@KLMEPMCM@?$AAa?$AAl?$AAn?$AAu?$AAm?$AA?$AA@ 1003f8ec     libcpmt:xthrow.obj
 0002:000078f8       ??_C@_1M@DHGLHBMI@?$AAa?$AAl?$AAp?$AAh?$AAa?$AA?$AA@ 1003f8f8     libcpmt:xthrow.obj
 0002:00007904       ?is_exact@_Num_float_base@std@@2_NB 1003f904     libcpmt:xthrow.obj
 0002:00007908       ??_C@_1M@EJAAJBPE@?$AAb?$AAl?$AAa?$AAn?$AAk?$AA?$AA@ 1003f908     libcpmt:xthrow.obj
 0002:00007914       ??_C@_1M@LMIMILA@?$AAc?$AAn?$AAt?$AAr?$AAl?$AA?$AA@ 1003f914     libcpmt:xthrow.obj
 0002:00007920       ??_C@_13GKPPEALH@?$AAd?$AA?$AA@ 1003f920     libcpmt:xthrow.obj
 0002:00007924       ?is_iec559@_Num_float_base@std@@2_NB 1003f924     libcpmt:xthrow.obj
 0002:00007928       ??_C@_1M@JDAEIBKG@?$AAd?$AAi?$AAg?$AAi?$AAt?$AA?$AA@ 1003f928     libcpmt:xthrow.obj
 0002:00007934       ??_C@_1M@MDKNJLLK@?$AAg?$AAr?$AAa?$AAp?$AAh?$AA?$AA@ 1003f934     libcpmt:xthrow.obj
 0002:00007940       ??_C@_1M@LGAECJJD@?$AAl?$AAo?$AAw?$AAe?$AAr?$AA?$AA@ 1003f940     libcpmt:xthrow.obj
 0002:0000794c       ?is_integer@_Num_float_base@std@@2_NB 1003f94c     libcpmt:xthrow.obj
 0002:00007950       ??_C@_1M@ELNLAPLA@?$AAp?$AAr?$AAi?$AAn?$AAt?$AA?$AA@ 1003f950     libcpmt:xthrow.obj
 0002:0000795c       ??_C@_1M@BPFMAOAO@?$AAp?$AAu?$AAn?$AAc?$AAt?$AA?$AA@ 1003f95c     libcpmt:xthrow.obj
 0002:00007968       ??_C@_1M@LPGODFOM@?$AAs?$AAp?$AAa?$AAc?$AAe?$AA?$AA@ 1003f968     libcpmt:xthrow.obj
 0002:00007974       ?is_modulo@_Num_float_base@std@@2_NB 1003f974     libcpmt:xthrow.obj
 0002:00007978       ??_C@_13KHDBCPJB@?$AAs?$AA?$AA@ 1003f978     libcpmt:xthrow.obj
 0002:0000797c       ??_C@_1M@PLNFCNIC@?$AAu?$AAp?$AAp?$AAe?$AAr?$AA?$AA@ 1003f97c     libcpmt:xthrow.obj
 0002:00007988       ?is_signed@_Num_float_base@std@@2_NB 1003f988     libcpmt:xthrow.obj
 0002:0000798c       ??_C@_1O@OAFMJDHN@?$AAx?$AAd?$AAi?$AAg?$AAi?$AAt?$AA?$AA@ 1003f98c     libcpmt:xthrow.obj
 0002:0000799a       ?is_specialized@_Num_float_base@std@@2_NB 1003f99a     libcpmt:xthrow.obj
 0002:0000799b       ?tinyness_before@_Num_float_base@std@@2_NB 1003f99b     libcpmt:xthrow.obj
 0002:0000799c       ?traps@_Num_float_base@std@@2_NB 1003f99c     libcpmt:xthrow.obj
 0002:000079a0       ?round_style@_Num_float_base@std@@2W4float_round_style@2@B 1003f9a0     libcpmt:xthrow.obj
 0002:000079a4       ?radix@_Num_float_base@std@@2HB 1003f9a4     libcpmt:xthrow.obj
 0002:000079a8       ?is_signed@?$numeric_limits@D@std@@2_NB 1003f9a8     libcpmt:xthrow.obj
 0002:000079ac       ?digits@?$numeric_limits@D@std@@2HB 1003f9ac     libcpmt:xthrow.obj
 0002:000079b0       ?digits10@?$numeric_limits@D@std@@2HB 1003f9b0     libcpmt:xthrow.obj
 0002:000079b4       ?is_signed@?$numeric_limits@_W@std@@2_NB 1003f9b4     libcpmt:xthrow.obj
 0002:000079b8       ?digits@?$numeric_limits@_W@std@@2HB 1003f9b8     libcpmt:xthrow.obj
 0002:000079bc       ?digits10@?$numeric_limits@_W@std@@2HB 1003f9bc     libcpmt:xthrow.obj
 0002:000079c0       ?is_modulo@?$numeric_limits@_N@std@@2_NB 1003f9c0     libcpmt:xthrow.obj
 0002:000079c1       ?is_signed@?$numeric_limits@_N@std@@2_NB 1003f9c1     libcpmt:xthrow.obj
 0002:000079c4       ?digits@?$numeric_limits@_N@std@@2HB 1003f9c4     libcpmt:xthrow.obj
 0002:000079c8       ?digits10@?$numeric_limits@_N@std@@2HB 1003f9c8     libcpmt:xthrow.obj
 0002:000079cc       ?_VBITS@?$vector@_NV?$allocator@_N@std@@@std@@2HB 1003f9cc     libcpmt:xthrow.obj
 0002:000079d0       ?is_signed@?$numeric_limits@C@std@@2_NB 1003f9d0     libcpmt:xthrow.obj
 0002:000079d4       ?digits@?$numeric_limits@C@std@@2HB 1003f9d4     libcpmt:xthrow.obj
 0002:000079d8       ?digits10@?$numeric_limits@C@std@@2HB 1003f9d8     libcpmt:xthrow.obj
 0002:000079dc       ?is_signed@?$numeric_limits@E@std@@2_NB 1003f9dc     libcpmt:xthrow.obj
 0002:000079e0       ?digits@?$numeric_limits@E@std@@2HB 1003f9e0     libcpmt:xthrow.obj
 0002:000079e4       ?digits10@?$numeric_limits@E@std@@2HB 1003f9e4     libcpmt:xthrow.obj
 0002:000079e8       ?skipws@?$_Iosb@H@std@@2W4_Fmtflags@12@B 1003f9e8     libcpmt:xthrow.obj
 0002:000079ec       ?unitbuf@?$_Iosb@H@std@@2W4_Fmtflags@12@B 1003f9ec     libcpmt:xthrow.obj
 0002:000079f0       ?uppercase@?$_Iosb@H@std@@2W4_Fmtflags@12@B 1003f9f0     libcpmt:xthrow.obj
 0002:000079f4       ?showbase@?$_Iosb@H@std@@2W4_Fmtflags@12@B 1003f9f4     libcpmt:xthrow.obj
 0002:000079f8       ?showpoint@?$_Iosb@H@std@@2W4_Fmtflags@12@B 1003f9f8     libcpmt:xthrow.obj
 0002:000079fc       ?showpos@?$_Iosb@H@std@@2W4_Fmtflags@12@B 1003f9fc     libcpmt:xthrow.obj
 0002:00007a00       ?left@?$_Iosb@H@std@@2W4_Fmtflags@12@B 1003fa00     libcpmt:xthrow.obj
 0002:00007a04       ?right@?$_Iosb@H@std@@2W4_Fmtflags@12@B 1003fa04     libcpmt:xthrow.obj
 0002:00007a08       ?internal@?$_Iosb@H@std@@2W4_Fmtflags@12@B 1003fa08     libcpmt:xthrow.obj
 0002:00007a0c       ?is_signed@?$numeric_limits@F@std@@2_NB 1003fa0c     libcpmt:xthrow.obj
 0002:00007a10       ?dec@?$_Iosb@H@std@@2W4_Fmtflags@12@B 1003fa10     libcpmt:xthrow.obj
 0002:00007a14       ?digits@?$numeric_limits@F@std@@2HB 1003fa14     libcpmt:xthrow.obj
 0002:00007a18       ?oct@?$_Iosb@H@std@@2W4_Fmtflags@12@B 1003fa18     libcpmt:xthrow.obj
 0002:00007a1c       ?digits10@?$numeric_limits@F@std@@2HB 1003fa1c     libcpmt:xthrow.obj
 0002:00007a20       ?hex@?$_Iosb@H@std@@2W4_Fmtflags@12@B 1003fa20     libcpmt:xthrow.obj
 0002:00007a24       ?scientific@?$_Iosb@H@std@@2W4_Fmtflags@12@B 1003fa24     libcpmt:xthrow.obj
 0002:00007a28       ?fixed@?$_Iosb@H@std@@2W4_Fmtflags@12@B 1003fa28     libcpmt:xthrow.obj
 0002:00007a2c       ?hexfloat@?$_Iosb@H@std@@2W4_Fmtflags@12@B 1003fa2c     libcpmt:xthrow.obj
 0002:00007a30       ?boolalpha@?$_Iosb@H@std@@2W4_Fmtflags@12@B 1003fa30     libcpmt:xthrow.obj
 0002:00007a34       ?_Stdio@?$_Iosb@H@std@@2W4_Fmtflags@12@B 1003fa34     libcpmt:xthrow.obj
 0002:00007a38       ?adjustfield@?$_Iosb@H@std@@2W4_Fmtflags@12@B 1003fa38     libcpmt:xthrow.obj
 0002:00007a3c       ?basefield@?$_Iosb@H@std@@2W4_Fmtflags@12@B 1003fa3c     libcpmt:xthrow.obj
 0002:00007a40       ?floatfield@?$_Iosb@H@std@@2W4_Fmtflags@12@B 1003fa40     libcpmt:xthrow.obj
 0002:00007a44       ?goodbit@?$_Iosb@H@std@@2W4_Iostate@12@B 1003fa44     libcpmt:xthrow.obj
 0002:00007a48       ?is_signed@?$numeric_limits@G@std@@2_NB 1003fa48     libcpmt:xthrow.obj
 0002:00007a4c       ?eofbit@?$_Iosb@H@std@@2W4_Iostate@12@B 1003fa4c     libcpmt:xthrow.obj
 0002:00007a50       ?digits@?$numeric_limits@G@std@@2HB 1003fa50     libcpmt:xthrow.obj
 0002:00007a54       ?failbit@?$_Iosb@H@std@@2W4_Iostate@12@B 1003fa54     libcpmt:xthrow.obj
 0002:00007a58       ?digits10@?$numeric_limits@G@std@@2HB 1003fa58     libcpmt:xthrow.obj
 0002:00007a5c       ?badbit@?$_Iosb@H@std@@2W4_Iostate@12@B 1003fa5c     libcpmt:xthrow.obj
 0002:00007a60       ?_Hardfail@?$_Iosb@H@std@@2W4_Iostate@12@B 1003fa60     libcpmt:xthrow.obj
 0002:00007a64       ?in@?$_Iosb@H@std@@2W4_Openmode@12@B 1003fa64     libcpmt:xthrow.obj
 0002:00007a68       ?out@?$_Iosb@H@std@@2W4_Openmode@12@B 1003fa68     libcpmt:xthrow.obj
 0002:00007a6c       ?ate@?$_Iosb@H@std@@2W4_Openmode@12@B 1003fa6c     libcpmt:xthrow.obj
 0002:00007a70       ?app@?$_Iosb@H@std@@2W4_Openmode@12@B 1003fa70     libcpmt:xthrow.obj
 0002:00007a74       ?trunc@?$_Iosb@H@std@@2W4_Openmode@12@B 1003fa74     libcpmt:xthrow.obj
 0002:00007a78       ?_Nocreate@?$_Iosb@H@std@@2W4_Openmode@12@B 1003fa78     libcpmt:xthrow.obj
 0002:00007a7c       ?_Noreplace@?$_Iosb@H@std@@2W4_Openmode@12@B 1003fa7c     libcpmt:xthrow.obj
 0002:00007a80       ?binary@?$_Iosb@H@std@@2W4_Openmode@12@B 1003fa80     libcpmt:xthrow.obj
 0002:00007a84       ?is_signed@?$numeric_limits@H@std@@2_NB 1003fa84     libcpmt:xthrow.obj
 0002:00007a88       ?beg@?$_Iosb@H@std@@2W4_Seekdir@12@B 1003fa88     libcpmt:xthrow.obj
 0002:00007a8c       ?digits@?$numeric_limits@H@std@@2HB 1003fa8c     libcpmt:xthrow.obj
 0002:00007a90       ?cur@?$_Iosb@H@std@@2W4_Seekdir@12@B 1003fa90     libcpmt:xthrow.obj
 0002:00007a94       ?digits10@?$numeric_limits@H@std@@2HB 1003fa94     libcpmt:xthrow.obj
 0002:00007a98       ?end@?$_Iosb@H@std@@2W4_Seekdir@12@B 1003fa98     libcpmt:xthrow.obj
 0002:00007a9c       ?is_signed@?$numeric_limits@I@std@@2_NB 1003fa9c     libcpmt:xthrow.obj
 0002:00007aa0       ?digits@?$numeric_limits@I@std@@2HB 1003faa0     libcpmt:xthrow.obj
 0002:00007aa4       ?digits10@?$numeric_limits@I@std@@2HB 1003faa4     libcpmt:xthrow.obj
 0002:00007aa8       ?value@?$integral_constant@H$0A@@std@@2HB 1003faa8     libcpmt:xthrow.obj
 0002:00007aac       ?is_signed@?$numeric_limits@J@std@@2_NB 1003faac     libcpmt:xthrow.obj
 0002:00007ab0       ?digits@?$numeric_limits@J@std@@2HB 1003fab0     libcpmt:xthrow.obj
 0002:00007ab4       ?digits10@?$numeric_limits@J@std@@2HB 1003fab4     libcpmt:xthrow.obj
 0002:00007ab8       ?is_signed@?$numeric_limits@K@std@@2_NB 1003fab8     libcpmt:xthrow.obj
 0002:00007abc       ?digits@?$numeric_limits@K@std@@2HB 1003fabc     libcpmt:xthrow.obj
 0002:00007ac0       ?digits10@?$numeric_limits@K@std@@2HB 1003fac0     libcpmt:xthrow.obj
 0002:00007ac4       ?is_signed@?$numeric_limits@_J@std@@2_NB 1003fac4     libcpmt:xthrow.obj
 0002:00007ac8       ?digits@?$numeric_limits@_J@std@@2HB 1003fac8     libcpmt:xthrow.obj
 0002:00007acc       ?digits10@?$numeric_limits@_J@std@@2HB 1003facc     libcpmt:xthrow.obj
 0002:00007ad0       ?is_signed@?$numeric_limits@_K@std@@2_NB 1003fad0     libcpmt:xthrow.obj
 0002:00007ad4       ?digits@?$numeric_limits@_K@std@@2HB 1003fad4     libcpmt:xthrow.obj
 0002:00007ad8       ?digits10@?$numeric_limits@_K@std@@2HB 1003fad8     libcpmt:xthrow.obj
 0002:00007adc       ?collate@?$_Locbase@H@std@@2HB 1003fadc     libcpmt:xthrow.obj
 0002:00007ae0       ?ctype@?$_Locbase@H@std@@2HB 1003fae0     libcpmt:xthrow.obj
 0002:00007ae4       ?monetary@?$_Locbase@H@std@@2HB 1003fae4     libcpmt:xthrow.obj
 0002:00007ae8       ?numeric@?$_Locbase@H@std@@2HB 1003fae8     libcpmt:xthrow.obj
 0002:00007aec       ?time@?$_Locbase@H@std@@2HB 1003faec     libcpmt:xthrow.obj
 0002:00007af0       ?messages@?$_Locbase@H@std@@2HB 1003faf0     libcpmt:xthrow.obj
 0002:00007af4       ?all@?$_Locbase@H@std@@2HB 1003faf4     libcpmt:xthrow.obj
 0002:00007af8       ?none@?$_Locbase@H@std@@2HB 1003faf8     libcpmt:xthrow.obj
 0002:00007afc       ?digits@?$numeric_limits@M@std@@2HB 1003fafc     libcpmt:xthrow.obj
 0002:00007b00       ?digits10@?$numeric_limits@M@std@@2HB 1003fb00     libcpmt:xthrow.obj
 0002:00007b04       ?max_digits10@?$numeric_limits@M@std@@2HB 1003fb04     libcpmt:xthrow.obj
 0002:00007b08       ?max_exponent@?$numeric_limits@M@std@@2HB 1003fb08     libcpmt:xthrow.obj
 0002:00007b0c       ?max_exponent10@?$numeric_limits@M@std@@2HB 1003fb0c     libcpmt:xthrow.obj
 0002:00007b10       ?min_exponent@?$numeric_limits@M@std@@2HB 1003fb10     libcpmt:xthrow.obj
 0002:00007b14       ?min_exponent10@?$numeric_limits@M@std@@2HB 1003fb14     libcpmt:xthrow.obj
 0002:00007b18       ?digits@?$numeric_limits@N@std@@2HB 1003fb18     libcpmt:xthrow.obj
 0002:00007b1c       ?digits10@?$numeric_limits@N@std@@2HB 1003fb1c     libcpmt:xthrow.obj
 0002:00007b20       ?max_digits10@?$numeric_limits@N@std@@2HB 1003fb20     libcpmt:xthrow.obj
 0002:00007b24       ?max_exponent@?$numeric_limits@N@std@@2HB 1003fb24     libcpmt:xthrow.obj
 0002:00007b28       ?max_exponent10@?$numeric_limits@N@std@@2HB 1003fb28     libcpmt:xthrow.obj
 0002:00007b2c       ?min_exponent@?$numeric_limits@N@std@@2HB 1003fb2c     libcpmt:xthrow.obj
 0002:00007b30       ?min_exponent10@?$numeric_limits@N@std@@2HB 1003fb30     libcpmt:xthrow.obj
 0002:00007b34       ?digits@?$numeric_limits@O@std@@2HB 1003fb34     libcpmt:xthrow.obj
 0002:00007b38       ?digits10@?$numeric_limits@O@std@@2HB 1003fb38     libcpmt:xthrow.obj
 0002:00007b3c       ?max_digits10@?$numeric_limits@O@std@@2HB 1003fb3c     libcpmt:xthrow.obj
 0002:00007b40       ?max_exponent@?$numeric_limits@O@std@@2HB 1003fb40     libcpmt:xthrow.obj
 0002:00007b44       ?max_exponent10@?$numeric_limits@O@std@@2HB 1003fb44     libcpmt:xthrow.obj
 0002:00007b48       ?min_exponent@?$numeric_limits@O@std@@2HB 1003fb48     libcpmt:xthrow.obj
 0002:00007b4c       ?min_exponent10@?$numeric_limits@O@std@@2HB 1003fb4c     libcpmt:xthrow.obj
 0002:00007b50       ?table_size@?$ctype@D@std@@2IB 1003fb50     libcpmt:xthrow.obj
 0002:00007b54       ?value@?$integral_constant@I$07@std@@2IB 1003fb54     libcpmt:xthrow.obj
 0002:00007b58       ?value@?$integral_constant@I$03@std@@2IB 1003fb58     libcpmt:xthrow.obj
 0002:00007b5c       ?value@?$integral_constant@I$01@std@@2IB 1003fb5c     libcpmt:xthrow.obj
 0002:00007b60       ?value@?$integral_constant@I$00@std@@2IB 1003fb60     libcpmt:xthrow.obj
 0002:00007b64       ?value@?$_Maximum@$S@std@@2IB 1003fb64     libcpmt:xthrow.obj
 0002:00007b68       ?_Names@?$_Regex_traits@D@std@@0QBU?$_Cl_names@D@2@B 1003fb68     libcpmt:xthrow.obj
 0002:00007c28       ?has_denorm@_Num_base@std@@2W4float_denorm_style@2@B 1003fc28     libcpmt:xthrow.obj
 0002:00007c2c       ?has_denorm_loss@_Num_base@std@@2_NB 1003fc2c     libcpmt:xthrow.obj
 0002:00007c2d       ?has_infinity@_Num_base@std@@2_NB 1003fc2d     libcpmt:xthrow.obj
 0002:00007c2e       ?has_quiet_NaN@_Num_base@std@@2_NB 1003fc2e     libcpmt:xthrow.obj
 0002:00007c2f       ?has_signaling_NaN@_Num_base@std@@2_NB 1003fc2f     libcpmt:xthrow.obj
 0002:00007c30       ?is_bounded@_Num_base@std@@2_NB 1003fc30     libcpmt:xthrow.obj
 0002:00007c31       ?is_exact@_Num_base@std@@2_NB 1003fc31     libcpmt:xthrow.obj
 0002:00007c32       ?is_iec559@_Num_base@std@@2_NB 1003fc32     libcpmt:xthrow.obj
 0002:00007c33       ?is_integer@_Num_base@std@@2_NB 1003fc33     libcpmt:xthrow.obj
 0002:00007c34       ?is_modulo@_Num_base@std@@2_NB 1003fc34     libcpmt:xthrow.obj
 0002:00007c35       ?is_signed@_Num_base@std@@2_NB 1003fc35     libcpmt:xthrow.obj
 0002:00007c38       ??_C@_05IIMHCHIO@alnum?$AA@ 1003fc38     libcpmt:xthrow.obj
 0002:00007c40       ??_C@_05IAEKHIAN@alpha?$AA@ 1003fc40     libcpmt:xthrow.obj
 0002:00007c48       ??_C@_05BABJKOGB@blank?$AA@ 1003fc48     libcpmt:xthrow.obj
 0002:00007c50       ?value@?$integral_constant@I$0A@@std@@2IB 1003fc50     libcpmt:xthrow.obj
 0002:00007c54       ?is_specialized@_Num_base@std@@2_NB 1003fc54     libcpmt:xthrow.obj
 0002:00007c58       ??_C@_05JMDPEFNK@cntrl?$AA@ 1003fc58     libcpmt:xthrow.obj
 0002:00007c60       ??_C@_01LPLHEDKD@d?$AA@    1003fc60     libcpmt:xthrow.obj
 0002:00007c64       ??_C@_05ODNOIFML@digit?$AA@ 1003fc64     libcpmt:xthrow.obj
 0002:00007c6a       ?tinyness_before@_Num_base@std@@2_NB 1003fc6a     libcpmt:xthrow.obj
 0002:00007c6c       ??_C@_05KCJBMLII@graph?$AA@ 1003fc6c     libcpmt:xthrow.obj
 0002:00007c74       ??_C@_05IPJEPLHL@lower?$AA@ 1003fc74     libcpmt:xthrow.obj
 0002:00007c7c       ??_C@_05IJDJACGD@print?$AA@ 1003fc7c     libcpmt:xthrow.obj
 0002:00007c82       ?traps@_Num_base@std@@2_NB 1003fc82     libcpmt:xthrow.obj
 0002:00007c84       ??_C@_05KOBGHFJJ@punct?$AA@ 1003fc84     libcpmt:xthrow.obj
 0002:00007c8c       ??_C@_05OLNILLAB@space?$AA@ 1003fc8c     libcpmt:xthrow.obj
 0002:00007c94       ??_C@_01LKDEMHDF@s?$AA@    1003fc94     libcpmt:xthrow.obj
 0002:00007c98       ?round_style@_Num_base@std@@2W4float_round_style@2@B 1003fc98     libcpmt:xthrow.obj
 0002:00007c9c       ??_C@_05NECKJAMC@upper?$AA@ 1003fc9c     libcpmt:xthrow.obj
 0002:00007ca4       ??_C@_01NOFIACDB@w?$AA@    1003fca4     libcpmt:xthrow.obj
 0002:00007ca8       ??_C@_06BAPHGFFK@xdigit?$AA@ 1003fca8     libcpmt:xthrow.obj
 0002:00007cb0       ?digits@_Num_base@std@@2HB 1003fcb0     libcpmt:xthrow.obj
 0002:00007cb4       ?digits10@_Num_base@std@@2HB 1003fcb4     libcpmt:xthrow.obj
 0002:00007cb8       ?max_digits10@_Num_base@std@@2HB 1003fcb8     libcpmt:xthrow.obj
 0002:00007cbc       ?max_exponent@_Num_base@std@@2HB 1003fcbc     libcpmt:xthrow.obj
 0002:00007cc0       ?max_exponent10@_Num_base@std@@2HB 1003fcc0     libcpmt:xthrow.obj
 0002:00007cc4       ?min_exponent@_Num_base@std@@2HB 1003fcc4     libcpmt:xthrow.obj
 0002:00007cc8       ?min_exponent10@_Num_base@std@@2HB 1003fcc8     libcpmt:xthrow.obj
 0002:00007ccc       ?radix@_Num_base@std@@2HB  1003fccc     libcpmt:xthrow.obj
 0002:00007cd0       ?is_bounded@_Num_int_base@std@@2_NB 1003fcd0     libcpmt:xthrow.obj
 0002:00007cd1       ?is_exact@_Num_int_base@std@@2_NB 1003fcd1     libcpmt:xthrow.obj
 0002:00007cd2       ?is_integer@_Num_int_base@std@@2_NB 1003fcd2     libcpmt:xthrow.obj
 0002:00007cd3       ?is_modulo@_Num_int_base@std@@2_NB 1003fcd3     libcpmt:xthrow.obj
 0002:00007cd8       ?_Names@?$_Regex_traits@_W@std@@0QBU?$_Cl_names@_W@2@B 1003fcd8     libcpmt:xthrow.obj
 0002:00007d98       ?is_specialized@_Num_int_base@std@@2_NB 1003fd98     libcpmt:xthrow.obj
 0002:00007d9c       ?radix@_Num_int_base@std@@2HB 1003fd9c     libcpmt:xthrow.obj
 0002:00007da0       ?has_denorm@_Num_float_base@std@@2W4float_denorm_style@2@B 1003fda0     libcpmt:xthrow.obj
 0002:00007da4       ?has_denorm_loss@_Num_float_base@std@@2_NB 1003fda4     libcpmt:xthrow.obj
 0002:00007da5       ?has_infinity@_Num_float_base@std@@2_NB 1003fda5     libcpmt:xthrow.obj
 0002:00007dac       ??_7logic_error@std@@6B@   1003fdac     libcpmt:xthrow.obj
 0002:00007db8       ??_7invalid_argument@std@@6B@ 1003fdb8     libcpmt:xthrow.obj
 0002:00007dc4       ??_7length_error@std@@6B@  1003fdc4     libcpmt:xthrow.obj
 0002:00007dd0       ??_7out_of_range@std@@6B@  1003fdd0     libcpmt:xthrow.obj
 0002:00007ddc       ??_7runtime_error@std@@6B@ 1003fddc     libcpmt:xthrow.obj
 0002:00007de8       ??_7overflow_error@std@@6B@ 1003fde8     libcpmt:xthrow.obj
 0002:00007df4       ??_7bad_function_call@std@@6B@ 1003fdf4     libcpmt:xthrow.obj
 0002:00007dfc       ??_C@_0BC@DPJNKNAF@bad?5function?5call?$AA@ 1003fdfc     libcpmt:xthrow.obj
 0002:00007e14       ??_7regex_error@std@@6B@   1003fe14     libcpmt:xthrow.obj
 0002:00007e20       ??_C@_0FI@CMNGHIFF@regex_error?$CIerror_collate?$CJ?3?5The?5@ 1003fe20     libcpmt:xthrow.obj
 0002:00007e78       ??_C@_0FE@LJMHKIOC@regex_error?$CIerror_ctype?$CJ?3?5The?5ex@ 1003fe78     libcpmt:xthrow.obj
 0002:00007ed0       ??_C@_0GI@HEGGMMDL@regex_error?$CIerror_escape?$CJ?3?5The?5e@ 1003fed0     libcpmt:xthrow.obj
 0002:00007f38       ??_C@_0FA@HFMLPGNN@regex_error?$CIerror_backref?$CJ?3?5The?5@ 1003ff38     libcpmt:xthrow.obj
 0002:00007f88       ??_C@_0EH@LGEANNAL@regex_error?$CIerror_brack?$CJ?3?5The?5ex@ 1003ff88     libcpmt:xthrow.obj
 0002:00007fd0       ??_C@_0EH@CAGOJGLE@regex_error?$CIerror_paren?$CJ?3?5The?5ex@ 1003ffd0     libcpmt:xthrow.obj
 0002:00008018       ??_C@_0EH@DICJJKLO@regex_error?$CIerror_brace?$CJ?3?5The?5ex@ 10040018     libcpmt:xthrow.obj
 0002:00008060       ??_C@_0FM@BLDIHIBB@regex_error?$CIerror_badbrace?$CJ?3?5The@ 10040060     libcpmt:xthrow.obj
 0002:000080c0       ??_C@_0HA@ICNJLCMC@regex_error?$CIerror_range?$CJ?3?5The?5ex@ 100400c0     libcpmt:xthrow.obj
 0002:00008130       ??_C@_0GP@PICOBCHA@regex_error?$CIerror_space?$CJ?3?5There?5@ 10040130     libcpmt:xthrow.obj
 0002:000081a0       ??_C@_0FK@LCHHHEOA@regex_error?$CIerror_badrepeat?$CJ?3?5On@ 100401a0     libcpmt:xthrow.obj
 0002:00008200       ??_C@_0HL@NEKOFBJA@regex_error?$CIerror_complexity?$CJ?3?5T@ 10040200     libcpmt:xthrow.obj
 0002:00008280       ??_C@_0JC@HCDLJLGO@regex_error?$CIerror_stack?$CJ?3?5There?5@ 10040280     libcpmt:xthrow.obj
 0002:00008314       ??_C@_0BJ@CHBLKGNM@regex_error?$CIerror_parse?$CJ?$AA@ 10040314     libcpmt:xthrow.obj
 0002:00008330       ??_C@_0BK@DFJCACNI@regex_error?$CIerror_syntax?$CJ?$AA@ 10040330     libcpmt:xthrow.obj
 0002:0000834c       ??_C@_0M@KGKAAGCA@regex_error?$AA@ 1004034c     libcpmt:xthrow.obj
 0002:00008828       ??_C@_0BC@CIJDGCDI@permission?5denied?$AA@ 10040828     libcpmt:syserror.obj
 0002:0000883c       ??_C@_0M@MIDIAGJP@file?5exists?$AA@ 1004083c     libcpmt:syserror.obj
 0002:00008848       ??_C@_0P@FDINDDOK@no?5such?5device?$AA@ 10040848     libcpmt:syserror.obj
 0002:00008858       ??_C@_0BC@EJHOMAAK@filename?5too?5long?$AA@ 10040858     libcpmt:syserror.obj
 0002:0000886c       ??_C@_0BI@NGCEHDD@device?5or?5resource?5busy?$AA@ 1004086c     libcpmt:syserror.obj
 0002:00008884       ??_C@_08GLNPIFBN@io?5error?$AA@ 10040884     libcpmt:syserror.obj
 0002:00008890       ??_C@_0BE@JIDOCPHM@directory?5not?5empty?$AA@ 10040890     libcpmt:syserror.obj
 0002:000088a4       ??_C@_0BB@FCMFBGOM@invalid?5argument?$AA@ 100408a4     libcpmt:syserror.obj
 0002:000088b8       ??_C@_0BD@IJDJKDEA@no?5space?5on?5device?$AA@ 100408b8     libcpmt:syserror.obj
 0002:000088cc       ??_C@_0BK@NDOCBPGE@no?5such?5file?5or?5directory?$AA@ 100408cc     libcpmt:syserror.obj
 0002:000088e8       ??_C@_0BH@KEFGLDAF@function?5not?5supported?$AA@ 100408e8     libcpmt:syserror.obj
 0002:00008900       ??_C@_0BC@NJECKMKE@no?5lock?5available?$AA@ 10040900     libcpmt:syserror.obj
 0002:00008914       ??_C@_0BC@ENOOLCNF@not?5enough?5memory?$AA@ 10040914     libcpmt:syserror.obj
 0002:00008928       ??_C@_0BP@LKNGHENJ@resource?5unavailable?5try?5again?$AA@ 10040928     libcpmt:syserror.obj
 0002:00008948       ??_C@_0BC@PPHBOELF@cross?5device?5link?$AA@ 10040948     libcpmt:syserror.obj
 0002:0000895c       ??_C@_0BD@MOLBPMEA@operation?5canceled?$AA@ 1004095c     libcpmt:syserror.obj
 0002:00008970       ??_C@_0BE@GHAFMPAH@too?5many?5files?5open?$AA@ 10040970     libcpmt:syserror.obj
 0002:00008984       ??_C@_0BC@FNODOBAE@permission_denied?$AA@ 10040984     libcpmt:syserror.obj
 0002:00008998       ??_C@_0P@LNDJPBFK@address_in_use?$AA@ 10040998     libcpmt:syserror.obj
 0002:000089a8       ??_C@_0BG@IPMGOJF@address_not_available?$AA@ 100409a8     libcpmt:syserror.obj
 0002:000089c0       ??_C@_0BN@LCBDHODA@address_family_not_supported?$AA@ 100409c0     libcpmt:syserror.obj
 0002:000089e0       ??_C@_0BP@FOJJHMCC@connection_already_in_progress?$AA@ 100409e0     libcpmt:syserror.obj
 0002:00008a00       ??_C@_0BE@DLHHIBGN@bad_file_descriptor?$AA@ 10040a00     libcpmt:syserror.obj
 0002:00008a14       ??_C@_0BD@OJMJDIGI@connection_aborted?$AA@ 10040a14     libcpmt:syserror.obj
 0002:00008a28       ??_C@_0BD@NGKCIFEP@connection_refused?$AA@ 10040a28     libcpmt:syserror.obj
 0002:00008a3c       ??_C@_0BB@JOANDNCK@connection_reset?$AA@ 10040a3c     libcpmt:syserror.obj
 0002:00008a50       ??_C@_0BN@JLJNLKLK@destination_address_required?$AA@ 10040a50     libcpmt:syserror.obj
 0002:00008a70       ??_C@_0M@IJGMGFGP@bad_address?$AA@ 10040a70     libcpmt:syserror.obj
 0002:00008a7c       ??_C@_0BB@KKNHPPIN@host_unreachable?$AA@ 10040a7c     libcpmt:syserror.obj
 0002:00008a90       ??_C@_0BG@DJGBJIIK@operation_in_progress?$AA@ 10040a90     libcpmt:syserror.obj
 0002:00008aa8       ??_C@_0M@EGEKIIMP@interrupted?$AA@ 10040aa8     libcpmt:syserror.obj
 0002:00008ab4       ??_C@_0BB@FFIHMIPJ@invalid_argument?$AA@ 10040ab4     libcpmt:syserror.obj
 0002:00008ac8       ??_C@_0BC@FIFLCHLO@already_connected?$AA@ 10040ac8     libcpmt:syserror.obj
 0002:00008adc       ??_C@_0BE@GJJJJDDA@too_many_files_open?$AA@ 10040adc     libcpmt:syserror.obj
 0002:00008af0       ??_C@_0N@HPMLKHPL@message_size?$AA@ 10040af0     libcpmt:syserror.obj
 0002:00008b00       ??_C@_0BC@LEEIKBAL@filename_too_long?$AA@ 10040b00     libcpmt:syserror.obj
 0002:00008b14       ??_C@_0N@FCPALPJK@network_down?$AA@ 10040b14     libcpmt:syserror.obj
 0002:00008b24       ??_C@_0O@EHNDLHIG@network_reset?$AA@ 10040b24     libcpmt:syserror.obj
 0002:00008b34       ??_C@_0BE@JFNJIDNF@network_unreachable?$AA@ 10040b34     libcpmt:syserror.obj
 0002:00008b48       ??_C@_0BA@FDIJKJCL@no_buffer_space?$AA@ 10040b48     libcpmt:syserror.obj
 0002:00008b58       ??_C@_0BD@JHIHCGKP@no_protocol_option?$AA@ 10040b58     libcpmt:syserror.obj
 0002:00008b6c       ??_C@_0O@GBCLHHD@not_connected?$AA@ 10040b6c     libcpmt:syserror.obj
 0002:00008b7c       ??_C@_0N@IMHKKLEM@not_a_socket?$AA@ 10040b7c     libcpmt:syserror.obj
 0002:00008b8c       ??_C@_0BI@ICEIDKLJ@operation_not_supported?$AA@ 10040b8c     libcpmt:syserror.obj
 0002:00008ba4       ??_C@_0BH@KAPBAIJF@protocol_not_supported?$AA@ 10040ba4     libcpmt:syserror.obj
 0002:00008bbc       ??_C@_0BE@GAOJJFPC@wrong_protocol_type?$AA@ 10040bbc     libcpmt:syserror.obj
 0002:00008bd0       ??_C@_09NCHNLHPG@timed_out?$AA@ 10040bd0     libcpmt:syserror.obj
 0002:00008bdc       ??_C@_0BG@GDGHKFDH@operation_would_block?$AA@ 10040bdc     libcpmt:syserror.obj
 0002:00008bf4       ??_C@_0BN@LKKBCCDB@address?5family?5not?5supported?$AA@ 10040bf4     libcpmt:syserror.obj
 0002:00008c14       ??_C@_0P@LDMLAFHI@address?5in?5use?$AA@ 10040c14     libcpmt:syserror.obj
 0002:00008c24       ??_C@_0BG@DHPCNBJB@address?5not?5available?$AA@ 10040c24     libcpmt:syserror.obj
 0002:00008c3c       ??_C@_0BC@DFIBIBIL@already?5connected?$AA@ 10040c3c     libcpmt:syserror.obj
 0002:00008c50       ??_C@_0BH@CAKOHOMI@argument?5list?5too?5long?$AA@ 10040c50     libcpmt:syserror.obj
 0002:00008c68       ??_C@_0BH@CGIMPKIM@argument?5out?5of?5domain?$AA@ 10040c68     libcpmt:syserror.obj
 0002:00008c80       ??_C@_0M@KGHGGJGL@bad?5address?$AA@ 10040c80     libcpmt:syserror.obj
 0002:00008c8c       ??_C@_0BE@MPJPGCEO@bad?5file?5descriptor?$AA@ 10040c8c     libcpmt:syserror.obj
 0002:00008ca0       ??_C@_0M@PMMIEFCP@bad?5message?$AA@ 10040ca0     libcpmt:syserror.obj
 0002:00008cac       ??_C@_0M@KPHOFDBE@broken?5pipe?$AA@ 10040cac     libcpmt:syserror.obj
 0002:00008cb8       ??_C@_0BD@MGNDDEGM@connection?5aborted?$AA@ 10040cb8     libcpmt:syserror.obj
 0002:00008ccc       ??_C@_0BP@KAIHPOGN@connection?5already?5in?5progress?$AA@ 10040ccc     libcpmt:syserror.obj
 0002:00008cec       ??_C@_0BD@PJLIIJEL@connection?5refused?$AA@ 10040cec     libcpmt:syserror.obj
 0002:00008d00       ??_C@_0BB@IECNJNOI@connection?5reset?$AA@ 10040d00     libcpmt:syserror.obj
 0002:00008d14       ??_C@_0BN@KDMIFEIP@destination?5address?5required?$AA@ 10040d14     libcpmt:syserror.obj
 0002:00008d34       ??_C@_0BI@BNCLIGPB@executable?5format?5error?$AA@ 10040d34     libcpmt:syserror.obj
 0002:00008d4c       ??_C@_0P@DNAJLBJK@file?5too?5large?$AA@ 10040d4c     libcpmt:syserror.obj
 0002:00008d5c       ??_C@_0BB@DHFDFGDM@host?5unreachable?$AA@ 10040d5c     libcpmt:syserror.obj
 0002:00008d70       ??_C@_0BD@JPHBMONG@identifier?5removed?$AA@ 10040d70     libcpmt:syserror.obj
 0002:00008d84       ??_C@_0BG@CDNPAGJK@illegal?5byte?5sequence?$AA@ 10040d84     libcpmt:syserror.obj
 0002:00008d9c       ??_C@_0CD@BNPLBMNA@inappropriate?5io?5control?5operati@ 10040d9c     libcpmt:syserror.obj
 0002:00008dc0       ??_C@_0N@OHAFKDEK@invalid?5seek?$AA@ 10040dc0     libcpmt:syserror.obj
 0002:00008dd0       ??_C@_0P@FLLDBIDK@is?5a?5directory?$AA@ 10040dd0     libcpmt:syserror.obj
 0002:00008de0       ??_C@_0N@IFLPBIOP@message?5size?$AA@ 10040de0     libcpmt:syserror.obj
 0002:00008df0       ??_C@_0N@KIIEAAIO@network?5down?$AA@ 10040df0     libcpmt:syserror.obj
 0002:00008e00       ??_C@_0O@FNPDBHEE@network?5reset?$AA@ 10040e00     libcpmt:syserror.obj
 0002:00008e10       ??_C@_0BE@IFNCKGE@network?5unreachable?$AA@ 10040e10     libcpmt:syserror.obj
 0002:00008e24       ??_C@_0BA@PFFCAOFK@no?5buffer?5space?$AA@ 10040e24     libcpmt:syserror.obj
 0002:00008e34       ??_C@_0BB@IEPBLJHK@no?5child?5process?$AA@ 10040e34     libcpmt:syserror.obj
 0002:00008e48       ??_C@_07PLECNNKG@no?5link?$AA@ 10040e48     libcpmt:syserror.obj
 0002:00008e50       ??_C@_0BF@PBGGPKKE@no?5message?5available?$AA@ 10040e50     libcpmt:syserror.obj
 0002:00008e68       ??_C@_0L@EDOLMPAK@no?5message?$AA@ 10040e68     libcpmt:syserror.obj
 0002:00008e74       ??_C@_0BD@EAMBFIDF@no?5protocol?5option?$AA@ 10040e74     libcpmt:syserror.obj
 0002:00008e88       ??_C@_0BE@MKFDAFMP@no?5stream?5resources?$AA@ 10040e88     libcpmt:syserror.obj
 0002:00008e9c       ??_C@_0BK@IMCPHCBI@no?5such?5device?5or?5address?$AA@ 10040e9c     libcpmt:syserror.obj
 0002:00008eb8       ??_C@_0BA@ENLPPKBN@no?5such?5process?$AA@ 10040eb8     libcpmt:syserror.obj
 0002:00008ec8       ??_C@_0BA@DOCPFFJG@not?5a?5directory?$AA@ 10040ec8     libcpmt:syserror.obj
 0002:00008ed8       ??_C@_0N@POEIPGGF@not?5a?5socket?$AA@ 10040ed8     libcpmt:syserror.obj
 0002:00008ee8       ??_C@_0N@LGAPMMPI@not?5a?5stream?$AA@ 10040ee8     libcpmt:syserror.obj
 0002:00008ef8       ??_C@_0O@GLMIBBEG@not?5connected?$AA@ 10040ef8     libcpmt:syserror.obj
 0002:00008f08       ??_C@_0O@NHEDABJP@not?5supported?$AA@ 10040f08     libcpmt:syserror.obj
 0002:00008f18       ??_C@_0BG@KDKHOPCO@operation?5in?5progress?$AA@ 10040f18     libcpmt:syserror.obj
 0002:00008f30       ??_C@_0BI@OHIEJAAB@operation?5not?5permitted?$AA@ 10040f30     libcpmt:syserror.obj
 0002:00008f48       ??_C@_0BI@LNEGIFLN@operation?5not?5supported?$AA@ 10040f48     libcpmt:syserror.obj
 0002:00008f60       ??_C@_0BG@OEMDKMEE@operation?5would?5block?$AA@ 10040f60     libcpmt:syserror.obj
 0002:00008f78       ??_C@_0L@BLPOFLNJ@owner?5dead?$AA@ 10040f78     libcpmt:syserror.obj
 0002:00008f84       ??_C@_0P@FNPOCJBE@protocol?5error?$AA@ 10040f84     libcpmt:syserror.obj
 0002:00008f94       ??_C@_0BH@JPPPLHJB@protocol?5not?5supported?$AA@ 10040f94     libcpmt:syserror.obj
 0002:00008fac       ??_C@_0BG@EICBIHDP@read?5only?5file?5system?$AA@ 10040fac     libcpmt:syserror.obj
 0002:00008fc4       ??_C@_0BO@BJBOMOEJ@resource?5deadlock?5would?5occur?$AA@ 10040fc4     libcpmt:syserror.obj
 0002:00008fe4       ??_C@_0BE@GOIPJJHG@result?5out?5of?5range?$AA@ 10040fe4     libcpmt:syserror.obj
 0002:00008ff8       ??_C@_0BG@MPLKFPAE@state?5not?5recoverable?$AA@ 10040ff8     libcpmt:syserror.obj
 0002:00009010       ??_C@_0P@DIIFGFCG@stream?5timeout?$AA@ 10041010     libcpmt:syserror.obj
 0002:00009020       ??_C@_0P@IPFDMIFL@text?5file?5busy?$AA@ 10041020     libcpmt:syserror.obj
 0002:00009030       ??_C@_09KJPPMAOI@timed?5out?$AA@ 10041030     libcpmt:syserror.obj
 0002:0000903c       ??_C@_0BO@HACHBEKI@too?5many?5files?5open?5in?5system?$AA@ 1004103c     libcpmt:syserror.obj
 0002:0000905c       ??_C@_0P@HCOMKFCC@too?5many?5links?$AA@ 1004105c     libcpmt:syserror.obj
 0002:0000906c       ??_C@_0BO@EFGOJEF@too?5many?5symbolic?5link?5levels?$AA@ 1004106c     libcpmt:syserror.obj
 0002:0000908c       ??_C@_0BA@KGKGOOJA@value?5too?5large?$AA@ 1004108c     libcpmt:syserror.obj
 0002:0000909c       ??_C@_0BE@MIEJDDNH@wrong?5protocol?5type?$AA@ 1004109c     libcpmt:syserror.obj
 0002:000090b0       __load_config_used         100410b0     LIBCMT:loadcfg.obj
 0002:0000914c       ??_R4MiniDmpSender@@6B@    1004114c     BugSplatImp.obj
 0002:00009160       ??_R3MiniDmpSender@@8      10041160     BugSplatImp.obj
 0002:00009170       ??_R2MiniDmpSender@@8      10041170     BugSplatImp.obj
 0002:00009178       ??_R1A@?0A@EA@MiniDmpSender@@8 10041178     BugSplatImp.obj
 0002:00009194       ??_R4MiniDumper@@6B@       10041194     mdump.obj
 0002:000091a8       ??_R3MiniDumper@@8         100411a8     mdump.obj
 0002:000091b8       ??_R2MiniDumper@@8         100411b8     mdump.obj
 0002:000091c0       ??_R1A@?0A@EA@MiniDumper@@8 100411c0     mdump.obj
 0002:000091dc       ??_R4error_category@std@@6B@ 100411dc     mdump.obj
 0002:000091f0       ??_R3error_category@std@@8 100411f0     mdump.obj
 0002:00009200       ??_R2error_category@std@@8 10041200     mdump.obj
 0002:00009208       ??_R1A@?0A@EA@error_category@std@@8 10041208     mdump.obj
 0002:00009224       ??_R4_Generic_error_category@std@@6B@ 10041224     mdump.obj
 0002:00009238       ??_R3_Generic_error_category@std@@8 10041238     mdump.obj
 0002:00009248       ??_R2_Generic_error_category@std@@8 10041248     mdump.obj
 0002:00009254       ??_R1A@?0A@EA@_Generic_error_category@std@@8 10041254     mdump.obj
 0002:00009270       ??_R4_Iostream_error_category@std@@6B@ 10041270     mdump.obj
 0002:00009284       ??_R3_Iostream_error_category@std@@8 10041284     mdump.obj
 0002:00009294       ??_R2_Iostream_error_category@std@@8 10041294     mdump.obj
 0002:000092a4       ??_R1A@?0A@EA@_Iostream_error_category@std@@8 100412a4     mdump.obj
 0002:000092c0       ??_R4_System_error_category@std@@6B@ 100412c0     mdump.obj
 0002:000092d4       ??_R3_System_error_category@std@@8 100412d4     mdump.obj
 0002:000092e4       ??_R2_System_error_category@std@@8 100412e4     mdump.obj
 0002:000092f4       ??_R1A@?0A@EA@_System_error_category@std@@8 100412f4     mdump.obj
 0002:00009310       ??_R3IUnknown@@8           10041310     sbSenderApp.obj
 0002:00009320       ??_R2IUnknown@@8           10041320     sbSenderApp.obj
 0002:00009328       ??_R1A@?0A@EA@IUnknown@@8  10041328     sbSenderApp.obj
 0002:00009344       ??_R3IRegistrarBase@@8     10041344     sbSenderApp.obj
 0002:00009354       ??_R2IRegistrarBase@@8     10041354     sbSenderApp.obj
 0002:00009360       ??_R1A@?0A@EA@IRegistrarBase@@8 10041360     sbSenderApp.obj
 0002:0000937c       ??_R3CAtlModule@ATL@@8     1004137c     sbSenderApp.obj
 0002:0000938c       ??_R2CAtlModule@ATL@@8     1004138c     sbSenderApp.obj
 0002:00009398       ??_R1A@?0A@EA@CAtlModule@ATL@@8 10041398     sbSenderApp.obj
 0002:000093b4       ??_R13?0A@EA@_ATL_MODULE70@ATL@@8 100413b4     sbSenderApp.obj
 0002:000093d0       ??_R3_ATL_MODULE70@ATL@@8  100413d0     sbSenderApp.obj
 0002:000093e0       ??_R2_ATL_MODULE70@ATL@@8  100413e0     sbSenderApp.obj
 0002:000093e8       ??_R1A@?0A@EA@_ATL_MODULE70@ATL@@8 100413e8     sbSenderApp.obj
 0002:00009404       ??_R4CComModule@ATL@@6B@   10041404     sbSenderApp.obj
 0002:00009418       ??_R3CComModule@ATL@@8     10041418     sbSenderApp.obj
 0002:00009428       ??_R2CComModule@ATL@@8     10041428     sbSenderApp.obj
 0002:0000943c       ??_R1A@?0A@EA@CComModule@ATL@@8 1004143c     sbSenderApp.obj
 0002:00009458       ??_R1A@?0A@EA@?$CAtlModuleT@VCComModule@ATL@@@ATL@@8 10041458     sbSenderApp.obj
 0002:00009474       ??_R3?$CAtlModuleT@VCComModule@ATL@@@ATL@@8 10041474     sbSenderApp.obj
 0002:00009484       ??_R2?$CAtlModuleT@VCComModule@ATL@@@ATL@@8 10041484     sbSenderApp.obj
 0002:00009494       ??_R4CRegObject@ATL@@6B@   10041494     sbSenderApp.obj
 0002:000094a8       ??_R3CRegObject@ATL@@8     100414a8     sbSenderApp.obj
 0002:000094b8       ??_R2CRegObject@ATL@@8     100414b8     sbSenderApp.obj
 0002:000094c8       ??_R1A@?0A@EA@CRegObject@ATL@@8 100414c8     sbSenderApp.obj
 0002:000094e4       ??_R4CAppModule@WTL@@6B@   100414e4     sbSenderApp.obj
 0002:000094f8       ??_R3CAppModule@WTL@@8     100414f8     sbSenderApp.obj
 0002:00009508       ??_R2CAppModule@WTL@@8     10041508     sbSenderApp.obj
 0002:00009520       ??_R1A@?0A@EA@CAppModule@WTL@@8 10041520     sbSenderApp.obj
 0002:0000953c       ??_R4type_info@@6B@        1004153c     LIBCMT:typinfo.obj
 0002:00009550       ??_R3type_info@@8          10041550     LIBCMT:typinfo.obj
 0002:00009560       ??_R2type_info@@8          10041560     LIBCMT:typinfo.obj
 0002:00009568       ??_R1A@?0A@EA@type_info@@8 10041568     LIBCMT:typinfo.obj
 0002:00009584       ??_R1A@?0A@EA@exception@std@@8 10041584     LIBCMT:new.obj
 0002:000095a0       ??_R3exception@std@@8      100415a0     LIBCMT:new.obj
 0002:000095b0       ??_R2exception@std@@8      100415b0     LIBCMT:new.obj
 0002:000095b8       ??_R4bad_alloc@std@@6B@    100415b8     LIBCMT:new.obj
 0002:000095cc       ??_R3bad_alloc@std@@8      100415cc     LIBCMT:new.obj
 0002:000095dc       ??_R2bad_alloc@std@@8      100415dc     LIBCMT:new.obj
 0002:000095e8       ??_R1A@?0A@EA@bad_alloc@std@@8 100415e8     LIBCMT:new.obj
 0002:00009604       ??_R4bad_exception@std@@6B@ 10041604     LIBCMT:frame.obj
 0002:00009618       ??_R3bad_exception@std@@8  10041618     LIBCMT:frame.obj
 0002:00009628       ??_R2bad_exception@std@@8  10041628     LIBCMT:frame.obj
 0002:00009634       ??_R1A@?0A@EA@bad_exception@std@@8 10041634     LIBCMT:frame.obj
 0002:00009650       ??_R4exception@std@@6B@    10041650     LIBCMT:stdexcpt.obj
 0002:00009664       ??_R4bad_cast@std@@6B@     10041664     LIBCMT:stdexcpt.obj
 0002:00009678       ??_R3bad_cast@std@@8       10041678     LIBCMT:stdexcpt.obj
 0002:00009688       ??_R2bad_cast@std@@8       10041688     LIBCMT:stdexcpt.obj
 0002:00009694       ??_R1A@?0A@EA@bad_cast@std@@8 10041694     LIBCMT:stdexcpt.obj
 0002:000096b0       ??_R4bad_typeid@std@@6B@   100416b0     LIBCMT:stdexcpt.obj
 0002:000096c4       ??_R3bad_typeid@std@@8     100416c4     LIBCMT:stdexcpt.obj
 0002:000096d4       ??_R2bad_typeid@std@@8     100416d4     LIBCMT:stdexcpt.obj
 0002:000096e0       ??_R1A@?0A@EA@bad_typeid@std@@8 100416e0     LIBCMT:stdexcpt.obj
 0002:000096fc       ??_R4__non_rtti_object@std@@6B@ 100416fc     LIBCMT:stdexcpt.obj
 0002:00009710       ??_R3__non_rtti_object@std@@8 10041710     LIBCMT:stdexcpt.obj
 0002:00009720       ??_R2__non_rtti_object@std@@8 10041720     LIBCMT:stdexcpt.obj
 0002:00009730       ??_R1A@?0A@EA@__non_rtti_object@std@@8 10041730     LIBCMT:stdexcpt.obj
 0002:0000974c       ??_R4DNameNode@@6B@        1004174c     LIBCMT:undname.obj
 0002:00009760       ??_R3DNameNode@@8          10041760     LIBCMT:undname.obj
 0002:00009770       ??_R2DNameNode@@8          10041770     LIBCMT:undname.obj
 0002:00009778       ??_R1A@?0A@EA@DNameNode@@8 10041778     LIBCMT:undname.obj
 0002:00009794       ??_R4charNode@@6B@         10041794     LIBCMT:undname.obj
 0002:000097a8       ??_R3charNode@@8           100417a8     LIBCMT:undname.obj
 0002:000097b8       ??_R2charNode@@8           100417b8     LIBCMT:undname.obj
 0002:000097c4       ??_R1A@?0A@EA@charNode@@8  100417c4     LIBCMT:undname.obj
 0002:000097e0       ??_R4pcharNode@@6B@        100417e0     LIBCMT:undname.obj
 0002:000097f4       ??_R3pcharNode@@8          100417f4     LIBCMT:undname.obj
 0002:00009804       ??_R2pcharNode@@8          10041804     LIBCMT:undname.obj
 0002:00009810       ??_R1A@?0A@EA@pcharNode@@8 10041810     LIBCMT:undname.obj
 0002:0000982c       ??_R4pDNameNode@@6B@       1004182c     LIBCMT:undname.obj
 0002:00009840       ??_R3pDNameNode@@8         10041840     LIBCMT:undname.obj
 0002:00009850       ??_R2pDNameNode@@8         10041850     LIBCMT:undname.obj
 0002:0000985c       ??_R1A@?0A@EA@pDNameNode@@8 1004185c     LIBCMT:undname.obj
 0002:00009878       ??_R4DNameStatusNode@@6B@  10041878     LIBCMT:undname.obj
 0002:0000988c       ??_R3DNameStatusNode@@8    1004188c     LIBCMT:undname.obj
 0002:0000989c       ??_R2DNameStatusNode@@8    1004189c     LIBCMT:undname.obj
 0002:000098a8       ??_R1A@?0A@EA@DNameStatusNode@@8 100418a8     LIBCMT:undname.obj
 0002:000098c4       ??_R4pairNode@@6B@         100418c4     LIBCMT:undname.obj
 0002:000098d8       ??_R3pairNode@@8           100418d8     LIBCMT:undname.obj
 0002:000098e8       ??_R2pairNode@@8           100418e8     LIBCMT:undname.obj
 0002:000098f4       ??_R1A@?0A@EA@pairNode@@8  100418f4     LIBCMT:undname.obj
 0002:00009910       ??_R4logic_error@std@@6B@  10041910     libcpmt:xthrow.obj
 0002:00009924       ??_R3logic_error@std@@8    10041924     libcpmt:xthrow.obj
 0002:00009934       ??_R2logic_error@std@@8    10041934     libcpmt:xthrow.obj
 0002:00009940       ??_R1A@?0A@EA@logic_error@std@@8 10041940     libcpmt:xthrow.obj
 0002:0000995c       ??_R4invalid_argument@std@@6B@ 1004195c     libcpmt:xthrow.obj
 0002:00009970       ??_R3invalid_argument@std@@8 10041970     libcpmt:xthrow.obj
 0002:00009980       ??_R2invalid_argument@std@@8 10041980     libcpmt:xthrow.obj
 0002:00009990       ??_R1A@?0A@EA@invalid_argument@std@@8 10041990     libcpmt:xthrow.obj
 0002:000099ac       ??_R4length_error@std@@6B@ 100419ac     libcpmt:xthrow.obj
 0002:000099c0       ??_R3length_error@std@@8   100419c0     libcpmt:xthrow.obj
 0002:000099d0       ??_R2length_error@std@@8   100419d0     libcpmt:xthrow.obj
 0002:000099e0       ??_R1A@?0A@EA@length_error@std@@8 100419e0     libcpmt:xthrow.obj
 0002:000099fc       ??_R4out_of_range@std@@6B@ 100419fc     libcpmt:xthrow.obj
 0002:00009a10       ??_R3out_of_range@std@@8   10041a10     libcpmt:xthrow.obj
 0002:00009a20       ??_R2out_of_range@std@@8   10041a20     libcpmt:xthrow.obj
 0002:00009a30       ??_R1A@?0A@EA@out_of_range@std@@8 10041a30     libcpmt:xthrow.obj
 0002:00009a4c       ??_R4runtime_error@std@@6B@ 10041a4c     libcpmt:xthrow.obj
 0002:00009a60       ??_R3runtime_error@std@@8  10041a60     libcpmt:xthrow.obj
 0002:00009a70       ??_R2runtime_error@std@@8  10041a70     libcpmt:xthrow.obj
 0002:00009a7c       ??_R1A@?0A@EA@runtime_error@std@@8 10041a7c     libcpmt:xthrow.obj
 0002:00009a98       ??_R4overflow_error@std@@6B@ 10041a98     libcpmt:xthrow.obj
 0002:00009aac       ??_R3overflow_error@std@@8 10041aac     libcpmt:xthrow.obj
 0002:00009abc       ??_R2overflow_error@std@@8 10041abc     libcpmt:xthrow.obj
 0002:00009acc       ??_R1A@?0A@EA@overflow_error@std@@8 10041acc     libcpmt:xthrow.obj
 0002:00009ae8       ??_R4bad_function_call@std@@6B@ 10041ae8     libcpmt:xthrow.obj
 0002:00009afc       ??_R3bad_function_call@std@@8 10041afc     libcpmt:xthrow.obj
 0002:00009b0c       ??_R2bad_function_call@std@@8 10041b0c     libcpmt:xthrow.obj
 0002:00009b18       ??_R1A@?0A@EA@bad_function_call@std@@8 10041b18     libcpmt:xthrow.obj
 0002:00009b34       ??_R4regex_error@std@@6B@  10041b34     libcpmt:xthrow.obj
 0002:00009b48       ??_R3regex_error@std@@8    10041b48     libcpmt:xthrow.obj
 0002:00009b58       ??_R2regex_error@std@@8    10041b58     libcpmt:xthrow.obj
 0002:00009b68       ??_R1A@?0A@EA@regex_error@std@@8 10041b68     libcpmt:xthrow.obj
 0002:00009b90       ___safe_se_handler_table   10041b90     <linker-defined>
 0002:00009c5c       ___rtc_iaa                 10041c5c     LIBCMT:initsect.obj
 0002:00009c60       ___rtc_izz                 10041c60     LIBCMT:initsect.obj
 0002:00009c64       ___rtc_taa                 10041c64     LIBCMT:initsect.obj
 0002:00009c68       ___rtc_tzz                 10041c68     LIBCMT:initsect.obj
 0002:00009e0c       __TI1H                     10041e0c     BugSplatImp.obj
 0002:00009e1c       __CTA1H                    10041e1c     BugSplatImp.obj
 0002:00009e24       __CT??_R0H@84              10041e24     BugSplatImp.obj
 0002:0000a824       __TI1?AVCAtlException@ATL@@ 10042824     sbSenderApp.obj
 0002:0000a834       __CTA1?AVCAtlException@ATL@@ 10042834     sbSenderApp.obj
 0002:0000a83c       __CT??_R0?AVCAtlException@ATL@@@84 1004283c     sbSenderApp.obj
 0002:0000a8b4       __TI2?AVbad_alloc@std@@    100428b4     LIBCMT:new.obj
 0002:0000a8c4       __CTA2?AVbad_alloc@std@@   100428c4     LIBCMT:new.obj
 0002:0000a8d0       __CT??_R0?AVbad_alloc@std@@@8??0bad_alloc@std@@QAE@ABV01@@Z12 100428d0     LIBCMT:new.obj
 0002:0000a8ec       __CT??_R0?AVexception@std@@@8??0exception@std@@QAE@ABV01@@Z12 100428ec     LIBCMT:new.obj
 0002:0000ac7c       __TI2?AVbad_exception@std@@ 10042c7c     LIBCMT:frame.obj
 0002:0000ac8c       __CTA2?AVbad_exception@std@@ 10042c8c     LIBCMT:frame.obj
 0002:0000ac98       __CT??_R0?AVbad_exception@std@@@8??0bad_exception@std@@QAE@ABV01@@Z12 10042c98     LIBCMT:frame.obj
 0002:0000b2c4       __TI3?AVinvalid_argument@std@@ 100432c4     libcpmt:xthrow.obj
 0002:0000b2d4       __CTA3?AVinvalid_argument@std@@ 100432d4     libcpmt:xthrow.obj
 0002:0000b2e4       __CT??_R0?AVinvalid_argument@std@@@8??0invalid_argument@std@@QAE@ABV01@@Z12 100432e4     libcpmt:xthrow.obj
 0002:0000b300       __CT??_R0?AVlogic_error@std@@@8??0logic_error@std@@QAE@ABV01@@Z12 10043300     libcpmt:xthrow.obj
 0002:0000b31c       __TI3?AVlength_error@std@@ 1004331c     libcpmt:xthrow.obj
 0002:0000b32c       __CTA3?AVlength_error@std@@ 1004332c     libcpmt:xthrow.obj
 0002:0000b33c       __CT??_R0?AVlength_error@std@@@8??0length_error@std@@QAE@ABV01@@Z12 1004333c     libcpmt:xthrow.obj
 0002:0000b358       __TI3?AVout_of_range@std@@ 10043358     libcpmt:xthrow.obj
 0002:0000b368       __CTA3?AVout_of_range@std@@ 10043368     libcpmt:xthrow.obj
 0002:0000b378       __CT??_R0?AVout_of_range@std@@@8??0out_of_range@std@@QAE@ABV01@@Z12 10043378     libcpmt:xthrow.obj
 0002:0000b394       __TI3?AVoverflow_error@std@@ 10043394     libcpmt:xthrow.obj
 0002:0000b3a4       __CTA3?AVoverflow_error@std@@ 100433a4     libcpmt:xthrow.obj
 0002:0000b3b4       __CT??_R0?AVoverflow_error@std@@@8??0overflow_error@std@@QAE@ABV01@@Z12 100433b4     libcpmt:xthrow.obj
 0002:0000b3d0       __CT??_R0?AVruntime_error@std@@@8??0runtime_error@std@@QAE@ABV01@@Z12 100433d0     libcpmt:xthrow.obj
 0002:0000b3ec       __TI2?AVruntime_error@std@@ 100433ec     libcpmt:xthrow.obj
 0002:0000b3fc       __CTA2?AVruntime_error@std@@ 100433fc     libcpmt:xthrow.obj
 0002:0000b408       __TI2?AVbad_function_call@std@@ 10043408     libcpmt:xthrow.obj
 0002:0000b418       __CTA2?AVbad_function_call@std@@ 10043418     libcpmt:xthrow.obj
 0002:0000b424       __CT??_R0?AVbad_function_call@std@@@8??0bad_function_call@std@@QAE@ABV01@@Z12 10043424     libcpmt:xthrow.obj
 0002:0000b440       __TI3?AVregex_error@std@@  10043440     libcpmt:xthrow.obj
 0002:0000b450       __CTA3?AVregex_error@std@@ 10043450     libcpmt:xthrow.obj
 0002:0000b460       __CT??_R0?AVregex_error@std@@@8??0regex_error@std@@QAE@ABV01@@Z16 10043460     libcpmt:xthrow.obj
 0002:0000b47c       ___pobjMapEntryFirst       1004347c     sbSenderApp.obj
 0002:0000b480       ___pobjMapEntryLast        10043480     sbSenderApp.obj
 0002:0000bdb0       __IMPORT_DESCRIPTOR_SHLWAPI 10043db0     shlwapi:SHLWAPI.dll
 0002:0000bdc4       __IMPORT_DESCRIPTOR_KERNEL32 10043dc4     kernel32:KERNEL32.dll
 0002:0000bdd8       __IMPORT_DESCRIPTOR_USER32 10043dd8     user32:USER32.dll
 0002:0000bdec       __IMPORT_DESCRIPTOR_ADVAPI32 10043dec     advapi32:ADVAPI32.dll
 0002:0000be00       __IMPORT_DESCRIPTOR_ole32  10043e00     ole32:ole32.dll
 0002:0000be14       __IMPORT_DESCRIPTOR_OLEAUT32 10043e14     oleaut32:OLEAUT32.dll
 0002:0000be28       __IMPORT_DESCRIPTOR_VERSION 10043e28     version:VERSION.dll
 0002:0000be3c       __IMPORT_DESCRIPTOR_RPCRT4 10043e3c     Rpcrt4:RPCRT4.dll
 0002:0000be50       __NULL_IMPORT_DESCRIPTOR   10043e50     shlwapi:SHLWAPI.dll
 0003:00000000       ?rgInitData@WTL@@3PAHA     10045000     BugSplatImp.obj
 0003:00000010       ?_atltmpDataNil@WTL@@3PAUCStringData@1@A 10045010     BugSplatImp.obj
 0003:00000014       ?_atltmpPchNil@WTL@@3PB_WB 10045014     BugSplatImp.obj
 0003:00000018       ?m_enableFilter@MiniDumper@@2_NA 10045018     mdump.obj
 0003:0000001c       ?m_waitCreateReportThreaded@MiniDumper@@2HA 1004501c     mdump.obj
 0003:00000020       ?m_waitSendReportThreaded@MiniDumper@@2HA 10045020     mdump.obj
 0003:00000024       ?_Generic_object@?$_Error_objects@H@std@@2V_Generic_error_category@2@A 10045024     mdump.obj
 0003:00000028       ?_Iostream_object@?$_Error_objects@H@std@@2V_Iostream_error_category@2@A 10045028     mdump.obj
 0003:0000002c       ?_System_object@?$_Error_objects@H@std@@2V_System_error_category@2@A 1004502c     mdump.obj
 0003:00000030       ?rcDefault@CWindow@ATL@@2UtagRECT@@A 10045030     StdAfx.obj
 0003:00000040       ___security_cookie         10045040     LIBCMT:gs_cookie.obj
 0003:00000044       ___security_cookie_complement 10045044     LIBCMT:gs_cookie.obj
 0003:00000048       ___abort_behavior          10045048     LIBCMT:abort.obj
 0003:00000050       __fltused                  10045050     LIBCMT:fpinit.obj
 0003:00000054       __ldused                   10045054     LIBCMT:fpinit.obj
 0003:000002f8       __cfltcvt_tab              100452f8     LIBCMT:cmiscdat.obj
 0003:00000320       __mbctype                  10045320     LIBCMT:mbctype.obj
 0003:00000428       __mbcasemap                10045428     LIBCMT:mbctype.obj
 0003:00000528       ___initialmbcinfo          10045528     LIBCMT:mbctype.obj
 0003:0000074c       ___ptmbcinfo               1004574c     LIBCMT:mbctype.obj
 0003:00000840       ___isa_enabled             10045840     LIBCMT:cpu_disp.obj
 0003:00000844       ___flsindex                10045844     LIBCMT:tidtable.obj
 0003:00000850       ___mb_cur_max              10045850     LIBCMT:nlsdata.obj
 0003:00000854       ___wclocalestr             10045854     LIBCMT:nlsdata.obj
 0003:00000858       ___lc_time_c               10045858     LIBCMT:nlsdata.obj
 0003:000009bc       ___ptlocinfo               100459bc     LIBCMT:nlsdata.obj
 0003:000009c0       ___initiallocinfo          100459c0     LIBCMT:nlsdata.obj
 0003:00000a78       ___initiallocalestructinfo 10045a78     LIBCMT:nlsdata.obj
 0003:00000a80       ___globallocalestatus      10045a80     LIBCMT:glstatus.obj
 0003:00000a88       __iob                      10045a88     LIBCMT:_file.obj
 0003:00000d20       __timezone                 10045d20     LIBCMT:timeset.obj
 0003:00000d24       __daylight                 10045d24     LIBCMT:timeset.obj
 0003:00000d28       __dstbias                  10045d28     LIBCMT:timeset.obj
 0003:00000db0       __tzname                   10045db0     LIBCMT:timeset.obj
 0003:00000dc8       __d_inf                    10045dc8     LIBCMT:util.obj
 0003:00000dd0       __d_ind                    10045dd0     LIBCMT:util.obj
 0003:00000dd8       __d_max                    10045dd8     LIBCMT:util.obj
 0003:00000de0       __d_min                    10045de0     LIBCMT:util.obj
 0003:00000de8       __d_mzero                  10045de8     LIBCMT:util.obj
 0003:00000ef8       ___badioinfo               10045ef8     LIBCMT:ioinit.obj
 0003:00000f40       ___nullstring              10045f40     LIBCMT:output.obj
 0003:00000f44       ___wnullstring             10045f44     LIBCMT:output.obj
 0003:00000f50       __NLG_Destination          10045f50     LIBCMT:exsup.obj
 0003:00000f68       ___lconv                   10045f68     LIBCMT:lconv.obj
 0003:00000f6c       ___lconv_static_decimal    10045f6c     LIBCMT:lconv.obj
 0003:00000f70       ___lconv_c                 10045f70     LIBCMT:lconv.obj
 0003:00000fc0       ___lconv_static_W_decimal  10045fc0     LIBCMT:lconv.obj
 0003:00000fc4       __pctype                   10045fc4     LIBCMT:ctype.obj
 0003:00000fc8       __pwctype                  10045fc8     LIBCMT:ctype.obj
 0003:00000fcc       __days                     10045fcc     LIBCMT:days.obj
 0003:00001000       __lpdays                   10046000     LIBCMT:days.obj
 0003:00001040       __matherr_flag             10046040     LIBCMT:matherr.obj
 0003:00001050       __HUGE                     10046050     LIBCMT:huge.obj
 0003:00001088       __lookuptrailbytes         10046088     LIBCMT:read.obj
 0003:00001188       __confh                    10046188     LIBCMT:initcon.obj
 0003:00001190       __pow10pos                 10046190     LIBCMT:constpow.obj
 0003:000012f0       __pow10neg                 100462f0     LIBCMT:constpow.obj
 0003:00001450       ??_R0H@8                   10046450     BugSplatImp.obj
 0003:0000145c       ??_R0?AVMiniDmpSender@@@8  1004645c     BugSplatImp.obj
 0003:00001478       ??_R0?AVMiniDumper@@@8     10046478     mdump.obj
 0003:00001494       ??_R0?AVerror_category@std@@@8 10046494     mdump.obj
 0003:000014b8       ??_R0?AV_Generic_error_category@std@@@8 100464b8     mdump.obj
 0003:000014e4       ??_R0?AV_Iostream_error_category@std@@@8 100464e4     mdump.obj
 0003:00001510       ??_R0?AV_System_error_category@std@@@8 10046510     mdump.obj
 0003:0000153c       ??_R0?AVCAtlException@ATL@@@8 1004653c     sbSenderApp.obj
 0003:0000155c       ??_R0?AUIUnknown@@@8       1004655c     sbSenderApp.obj
 0003:00001574       ??_R0?AUIRegistrarBase@@@8 10046574     sbSenderApp.obj
 0003:00001594       ??_R0?AVCAtlModule@ATL@@@8 10046594     sbSenderApp.obj
 0003:000015b4       ??_R0?AU_ATL_MODULE70@ATL@@@8 100465b4     sbSenderApp.obj
 0003:000015d4       ??_R0?AVCComModule@ATL@@@8 100465d4     sbSenderApp.obj
 0003:000015f4       ??_R0?AV?$CAtlModuleT@VCComModule@ATL@@@ATL@@@8 100465f4     sbSenderApp.obj
 0003:00001628       ??_R0?AVCRegObject@ATL@@@8 10046628     sbSenderApp.obj
 0003:00001648       ??_R0?AVCAppModule@WTL@@@8 10046648     sbSenderApp.obj
 0003:00001668       ??_R0?AVtype_info@@@8      10046668     LIBCMT:typinfo.obj
 0003:00001680       ??_R0?AVbad_alloc@std@@@8  10046680     LIBCMT:new.obj
 0003:0000169c       ??_R0?AVexception@std@@@8  1004669c     LIBCMT:new.obj
 0003:000016b8       ??_R0?AVbad_exception@std@@@8 100466b8     LIBCMT:frame.obj
 0003:000016d8       ??_R0?AVbad_cast@std@@@8   100466d8     LIBCMT:stdexcpt.obj
 0003:000016f4       ??_R0?AVbad_typeid@std@@@8 100466f4     LIBCMT:stdexcpt.obj
 0003:00001714       ??_R0?AV__non_rtti_object@std@@@8 10046714     LIBCMT:stdexcpt.obj
 0003:00001738       ??_R0?AVDNameNode@@@8      10046738     LIBCMT:undname.obj
 0003:00001750       ??_R0?AVcharNode@@@8       10046750     LIBCMT:undname.obj
 0003:00001768       ??_R0?AVpcharNode@@@8      10046768     LIBCMT:undname.obj
 0003:00001780       ??_R0?AVpDNameNode@@@8     10046780     LIBCMT:undname.obj
 0003:0000179c       ??_R0?AVDNameStatusNode@@@8 1004679c     LIBCMT:undname.obj
 0003:000017bc       ??_R0?AVpairNode@@@8       100467bc     LIBCMT:undname.obj
 0003:000017d4       ??_R0?AVinvalid_argument@std@@@8 100467d4     libcpmt:xthrow.obj
 0003:000017f8       ??_R0?AVlogic_error@std@@@8 100467f8     libcpmt:xthrow.obj
 0003:00001818       ??_R0?AVlength_error@std@@@8 10046818     libcpmt:xthrow.obj
 0003:00001838       ??_R0?AVout_of_range@std@@@8 10046838     libcpmt:xthrow.obj
 0003:00001858       ??_R0?AVoverflow_error@std@@@8 10046858     libcpmt:xthrow.obj
 0003:0000187c       ??_R0?AVruntime_error@std@@@8 1004687c     libcpmt:xthrow.obj
 0003:0000189c       ??_R0?AVbad_function_call@std@@@8 1004689c     libcpmt:xthrow.obj
 0003:000018c0       ??_R0?AVregex_error@std@@@8 100468c0     libcpmt:xthrow.obj
 0003:000018e0       ?DoFullMemoryDumpThenExit@BugSplatImp@@2_NA 100468e0     BugSplatImp.obj
 0003:000018e4       ?MiniDumpType@BugSplatImp@@2W4_BS_MINIDUMP_TYPE@MiniDmpSender@@A 100468e4     BugSplatImp.obj
 0003:000018e8       ?s_pThis@MiniDumper@@2PAV1@A 100468e8     mdump.obj
 0003:000018ec       ?m_previousExceptionFilter@MiniDumper@@2P6GJPAU_EXCEPTION_POINTERS@@@ZA 100468ec     mdump.obj
 0003:000018f0       ?m_exceptionCaught@MiniDumper@@2_NA 100468f0     mdump.obj
 0003:000018f4       ?hLibKern32@@3PAUHINSTANCE__@@A 100468f4     mdump.obj
 0003:000018f8       ?pexceptionhandler@@3PAXA  100468f8     mdump.obj
 0003:00001900       ?m_imp@MiniDumper@@1VBugSplatImp@@A 10046900     mdump.obj
 0003:00003904       ?id@?$num_put@DV?$back_insert_iterator@V?$basic_string@DU?$char_traits@D@std@@V?$allocator@D@2@@std@@@std@@@std@@2V0locale@2@A 10048904     mdump.obj
 0003:00003908       ?id@?$num_put@_WV?$back_insert_iterator@V?$basic_string@_WU?$char_traits@_W@std@@V?$allocator@_W@2@@std@@@std@@@std@@2V0locale@2@A 10048908     mdump.obj
 0003:00003fdc       ?id@?$numpunct@D@std@@2V0locale@2@A 10048fdc     mdump.obj
 0003:00003fe0       ?id@?$numpunct@_W@std@@2V0locale@2@A 10048fe0     mdump.obj
 0003:00003fe6       ?m_bInitFailed@CAtlBaseModule@ATL@@2_NA 10048fe6     sbSenderApp.obj
 0003:00003fe8       ?_pAtlModule@ATL@@3PAVCAtlModule@1@A 10048fe8     sbSenderApp.obj
 0003:00003fec       ?m_libid@CAtlModule@ATL@@2U_GUID@@A 10048fec     sbSenderApp.obj
 0003:00003ffc       ?_pModule@ATL@@3PAVCComModule@1@A 10048ffc     sbSenderApp.obj
 0003:00004000       ?_AtlRegisterPerUser@ATL@@3_NA 10049000     sbSenderApp.obj
 0003:00004004       ?_AtlComModule@ATL@@3VCAtlComModule@1@A 10049004     sbSenderApp.obj
 0003:0000402c       ?pfnRegDeleteKeyEx@?6??DeleteSubKey@CRegKey@ATL@@QAEJPB_W@Z@4P6GJPAUHKEY__@@0KK@ZA 1004902c     sbSenderApp.obj
 0003:00004030       ?bInitialized@?6??DeleteSubKey@CRegKey@ATL@@QAEJPB_W@Z@4_NA 10049030     sbSenderApp.obj
 0003:00004034       ?map@?1??VTFromRegType@CRegParser@ATL@@KAHPB_WAAG@Z@4QBUtypemap@?1??123@KAH01@Z@B 10049034     sbSenderApp.obj
 0003:00004054       ??_B?1??VTFromRegType@CRegParser@ATL@@KAHPB_WAAG@Z@51 10049054     sbSenderApp.obj
 0003:00004058       ?_Module@@3VCAppModule@WTL@@A 10049058     sbSenderApp.obj
 0003:00004094       ___@@_PchSym_@00@UdddUhixUyfthkozgUyfthkozgmzgrevUdrmDCUivovzhvUhgwzucOlyq@CD39BD58F5B0BF66 10049094     StdAfx.obj
 0003:00004098       ?ATL_CREATE_OBJECT@CComApartment@ATL@@2IA 10049098     StdAfx.obj
 0003:0000409c       ?_pAtlAutoThreadModule@ATL@@3PAUIAtlAutoThreadModule@1@A 1004909c     StdAfx.obj
 0003:000040a0       ?WM_ATLGETHOST@ATL@@3IA    100490a0     StdAfx.obj
 0003:000040a4       ?WM_ATLGETCONTROL@ATL@@3IA 100490a4     StdAfx.obj
 0003:000040a8       ?_pPerfRegFunc@ATL@@3P6AJPAUHINSTANCE__@@@ZA 100490a8     StdAfx.obj
 0003:000040ac       ?_pPerfUnRegFunc@ATL@@3P6AJXZA 100490ac     StdAfx.obj
 0003:000040b0       ?atlTraceGeneral@ATL@@3V?$CTraceCategoryEx@$00$0A@@1@A 100490b0     StdAfx.obj
 0003:000040b4       ?atlTraceCOM@ATL@@3V?$CTraceCategoryEx@$01$0A@@1@A 100490b4     StdAfx.obj
 0003:000040b8       ?atlTraceQI@ATL@@3V?$CTraceCategoryEx@$03$0A@@1@A 100490b8     StdAfx.obj
 0003:000040bc       ?atlTraceRegistrar@ATL@@3V?$CTraceCategoryEx@$07$0A@@1@A 100490bc     StdAfx.obj
 0003:000040c0       ?atlTraceRefcount@ATL@@3V?$CTraceCategoryEx@$0BA@$0A@@1@A 100490c0     StdAfx.obj
 0003:000040c4       ?atlTraceWindowing@ATL@@3V?$CTraceCategoryEx@$0CA@$0A@@1@A 100490c4     StdAfx.obj
 0003:000040c8       ?atlTraceControls@ATL@@3V?$CTraceCategoryEx@$0EA@$0A@@1@A 100490c8     StdAfx.obj
 0003:000040cc       ?atlTraceHosting@ATL@@3V?$CTraceCategoryEx@$0IA@$0A@@1@A 100490cc     StdAfx.obj
 0003:000040d0       ?atlTraceDBClient@ATL@@3V?$CTraceCategoryEx@$0BAA@$0A@@1@A 100490d0     StdAfx.obj
 0003:000040d4       ?atlTraceDBProvider@ATL@@3V?$CTraceCategoryEx@$0CAA@$0A@@1@A 100490d4     StdAfx.obj
 0003:000040d8       ?atlTraceSnapin@ATL@@3V?$CTraceCategoryEx@$0EAA@$0A@@1@A 100490d8     StdAfx.obj
 0003:000040dc       ?atlTraceNotImpl@ATL@@3V?$CTraceCategoryEx@$0IAA@$0A@@1@A 100490dc     StdAfx.obj
 0003:000040e0       ?atlTraceAllocation@ATL@@3V?$CTraceCategoryEx@$0BAAA@$0A@@1@A 100490e0     StdAfx.obj
 0003:000040e4       ?atlTraceException@ATL@@3V?$CTraceCategoryEx@$0CAAA@$0A@@1@A 100490e4     StdAfx.obj
 0003:000040e8       ?atlTraceTime@ATL@@3V?$CTraceCategoryEx@$0EAAA@$0A@@1@A 100490e8     StdAfx.obj
 0003:000040ec       ?atlTraceCache@ATL@@3V?$CTraceCategoryEx@$0IAAA@$0A@@1@A 100490ec     StdAfx.obj
 0003:000040f0       ?atlTraceStencil@ATL@@3V?$CTraceCategoryEx@$0BAAAA@$0A@@1@A 100490f0     StdAfx.obj
 0003:000040f4       ?atlTraceString@ATL@@3V?$CTraceCategoryEx@$0CAAAA@$0A@@1@A 100490f4     StdAfx.obj
 0003:000040f8       ?atlTraceMap@ATL@@3V?$CTraceCategoryEx@$0EAAAA@$0A@@1@A 100490f8     StdAfx.obj
 0003:000040fc       ?atlTraceUtil@ATL@@3V?$CTraceCategoryEx@$0IAAAA@$0A@@1@A 100490fc     StdAfx.obj
 0003:00004100       ?atlTraceSecurity@ATL@@3V?$CTraceCategoryEx@$0BAAAAA@$0A@@1@A 10049100     StdAfx.obj
 0003:00004104       ?atlTraceSync@ATL@@3V?$CTraceCategoryEx@$0CAAAAA@$0A@@1@A 10049104     StdAfx.obj
 0003:00004108       ?atlTraceISAPI@ATL@@3V?$CTraceCategoryEx@$0EAAAAA@$0A@@1@A 10049108     StdAfx.obj
 0003:0000410c       ?_AtlWinModule@ATL@@3VCAtlWinModule@1@A 1004910c     StdAfx.obj
 0003:0000413c       ?_AtlBaseModule@ATL@@3VCAtlBaseModule@1@A 1004913c     atls:atlbase.obj
 0003:00004174       ___@@_PchSym_@00@UwwUexgllohUexHoryhUhsrkUzgonuxUhixUzgoUzgohUlyqBiUrDIGUhgwzucOlyq@78CA5F0B165856AC 10049174     atls:stdafx.obj
 0003:00004178       __C_Exit_Done              10049178     LIBCMT:crt0dat.obj
 0003:0000417c       ___argc                    1004917c     LIBCMT:crt0dat.obj
 0003:00004180       ___argv                    10049180     LIBCMT:crt0dat.obj
 0003:00004184       ___wargv                   10049184     LIBCMT:crt0dat.obj
 0003:00004188       __environ                  10049188     LIBCMT:crt0dat.obj
 0003:0000418c       __wenviron                 1004918c     LIBCMT:crt0dat.obj
 0003:00004190       __pgmptr                   10049190     LIBCMT:crt0dat.obj
 0003:00004194       __wpgmptr                  10049194     LIBCMT:crt0dat.obj
 0003:00004198       __umaskval                 10049198     LIBCMT:crt0dat.obj
 0003:0000419c       __exitflag                 1004919c     LIBCMT:crt0dat.obj
 0003:000041a0       __C_Termination_Done       100491a0     LIBCMT:crt0dat.obj
 0003:000041a4       ___winitenv                100491a4     LIBCMT:crt0dat.obj
 0003:000041a8       ___initenv                 100491a8     LIBCMT:crt0dat.obj
 0003:000041ac       ___pInvalidArgHandler      100491ac     LIBCMT:invarg.obj
 0003:000041d4       ___fastflag                100491d4     LIBCMT:fpinit.obj
 0003:000044f8       ?nothrow@std@@3Unothrow_t@1@B 100494f8     LIBCMT:nothrow0.obj
 0003:00004500       __aenvptr                  10049500     LIBCMT:dllcrt0.obj
 0003:00004504       __wenvptr                  10049504     LIBCMT:dllcrt0.obj
 0003:00004508       ?__pInconsistency@@3P6AXXZA 10049508     LIBCMT:hooks.obj
 0003:00004660       ___app_type                10049660     LIBCMT:crt0msg.obj
 0003:00004c90       __maxwait                  10049c90     LIBCMT:crtheap.obj
 0003:00004c94       ?_pnhHeap@@3P6AHI@ZA       10049c94     LIBCMT:handler.obj
 0003:00004c98       ___pPurecall               10049c98     LIBCMT:inithelp.obj
 0003:00004ca0       ___mbcodepage              10049ca0     LIBCMT:mbctype.obj
 0003:00004ca4       ___ismbcodepage            10049ca4     LIBCMT:mbctype.obj
 0003:00004ca8       ___mbulinfo                10049ca8     LIBCMT:mbctype.obj
 0003:00004cb4       ___mblocalename            10049cb4     LIBCMT:mbctype.obj
 0003:00004cbc       __stdbuf                   10049cbc     LIBCMT:_sftbuf.obj
 0003:00004cc4       ___isa_available           10049cc4     LIBCMT:cpu_disp.obj
 0003:00004cc8       ___favor                   10049cc8     LIBCMT:cpu_disp.obj
 0003:00004ccc       ?g_OutOfMemoryExceptionCallback@@3P6GPAXXZA 10049ccc     LIBCMT:frame.obj
 0003:00004cd8       __cflush                   10049cd8     LIBCMT:_file.obj
 0003:00004da0       __crtheap                  10049da0     LIBCMT:heapinit.obj
 0003:00004da4       __newmode                  10049da4     LIBCMT:_newmode.obj
 0003:00004da8       ___pioinfo                 10049da8     LIBCMT:ioinit.obj
 0003:00004fb0       ___error_mode              10049fb0     LIBCMT:errmode.obj
 0003:00004fcc       ?pArgList@UnDecorator@@0PAVReplicator@@A 10049fcc     LIBCMT:undname.obj
 0003:00004fd0       ?pZNameList@UnDecorator@@0PAVReplicator@@A 10049fd0     LIBCMT:undname.obj
 0003:00004fd4       ?pTemplateArgList@UnDecorator@@0PAVReplicator@@A 10049fd4     LIBCMT:undname.obj
 0003:00004fd8       ?gName@UnDecorator@@0PBDB  10049fd8     LIBCMT:undname.obj
 0003:00004fdc       ?name@UnDecorator@@0PBDB   10049fdc     LIBCMT:undname.obj
 0003:00004fe0       ?outputString@UnDecorator@@0PADA 10049fe0     LIBCMT:undname.obj
 0003:00004fe4       ?maxStringLength@UnDecorator@@0HA 10049fe4     LIBCMT:undname.obj
 0003:00004fe8       ?disableFlags@UnDecorator@@0KA 10049fe8     LIBCMT:undname.obj
 0003:00004fec       ?fExplicitTemplateParams@UnDecorator@@0_NA 10049fec     LIBCMT:undname.obj
 0003:00004fed       ?fGetTemplateArgumentList@UnDecorator@@0_NA 10049fed     LIBCMT:undname.obj
 0003:00004ff0       ?m_pGetParameter@UnDecorator@@0P6APADJ@ZA 10049ff0     LIBCMT:undname.obj
 0003:00005008       ?nodes@?1??make@DNameStatusNode@@SAPAV2@W4DNameStatus@@@Z@4PAV2@A 1004a008     LIBCMT:undname.obj
 0003:00005038       ??_B?1??make@DNameStatusNode@@SAPAV1@W4DNameStatus@@@Z@51 1004a038     LIBCMT:undname.obj
 0003:0000503c       ___locale_changed          1004a03c     LIBCMT:wsetloca.obj
 0003:00005040       ___lconv_static_null       1004a040     LIBCMT:lconv.obj
 0003:00005044       ___lconv_static_W_null     1004a044     LIBCMT:lconv.obj
 0003:00005048       __commode                  1004a048     LIBCMT:ncommode.obj
 0003:0000504c       __outputformat             1004a04c     LIBCMT:outputformat.obj
 0003:00005050       __fmode                    1004a050     LIBCMT:txtmode.obj
 0003:0000505c       ___unguarded_readlc_active 1004a05c     <common>
 0003:00005060       ___setlc_active            1004a060     <common>
 0003:00005064       __nhandle                  1004a064     <common>
 0003:00005080       __bufin                    1004a080     <common>
 0003:00006080       ___piob                    1004b080     <common>
 0003:00006084       __nstream                  1004b084     <common>
 0003:00006088       __debugger_hook_dummy      1004b088     <common>
 0003:000060a0       _encodedKERNEL32Functions  1004b0a0     <common>
 0003:00006124       __acmdln                   1004b124     <common>
 0003:00006128       ___dyn_tls_init_callback   1004b128     <common>
 0003:0000612c       ___onexitend               1004b12c     <common>
 0003:00006130       ___onexitbegin             1004b130     <common>
 0003:00006134       ___mbctype_initialized     1004b134     <common>
 0003:00006138       ___env_initialized         1004b138     <common>

 entry point at        0001:0000d35d

 Static symbols

 0000:fffb0000       .debug$S                   10000000     kernel32:KERNEL32.dll
 0000:fffb0000       .debug$S                   10000000     Rpcrt4:RPCRT4.dll
 0000:fffb0000       .debug$S                   10000000     Rpcrt4:RPCRT4.dll
 0000:fffb0000       .debug$S                   10000000     Rpcrt4:RPCRT4.dll
 0001:fffff000       __ehhandler$?_Copy@?$basic_string@DU?$char_traits@D@std@@V?$allocator@D@2@@std@@QAEXII@Z 10000000 f   libcpmt:syserror.obj
 0002:fffc8000       __catchsym$?_Copy@?$basic_string@DU?$char_traits@D@std@@V?$allocator@D@2@@std@@QAEXII@Z$5 10000000     libcpmt:syserror.obj
 0002:fffc8000       ?_Generic_object$initializer$@?$_Error_objects@H@std@@2P6AXXZA 10000000     libcpmt:syserror.obj
 0002:fffc8000       ?_Iostream_object$initializer$@?$_Error_objects@H@std@@2P6AXXZA 10000000     libcpmt:syserror.obj
 0002:fffc8000       ?_System_object$initializer$@?$_Error_objects@H@std@@2P6AXXZA 10000000     libcpmt:syserror.obj
 0001:fffff000       __ehhandler$?_Copy@?$basic_string@DU?$char_traits@D@std@@V?$allocator@D@2@@std@@QAEXII@Z 10000000 f   libcpmt:xthrow.obj
 0000:fffb0000       .debug$S                   10000000     oleaut32:OLEAUT32.dll
 0000:fffb0000       .debug$S                   10000000     oleaut32:OLEAUT32.dll
 0000:fffb0000       .debug$S                   10000000     ole32:ole32.dll
 0000:fffb0000       .debug$S                   10000000     ole32:ole32.dll
 0000:fffb0000       .debug$S                   10000000     ole32:ole32.dll
 0000:fffb0000       .debug$S                   10000000     ole32:ole32.dll
 0000:fffb0000       .debug$S                   10000000     advapi32:ADVAPI32.dll
 0000:fffb0000       .debug$S                   10000000     advapi32:ADVAPI32.dll
 0000:fffb0000       .debug$S                   10000000     advapi32:ADVAPI32.dll
 0000:fffb0000       .debug$S                   10000000     advapi32:ADVAPI32.dll
 0000:fffb0000       .debug$S                   10000000     advapi32:ADVAPI32.dll
 0000:fffb0000       .debug$S                   10000000     advapi32:ADVAPI32.dll
 0000:fffb0000       .debug$S                   10000000     advapi32:ADVAPI32.dll
 0000:fffb0000       .debug$S                   10000000     advapi32:ADVAPI32.dll
 0000:fffb0000       .debug$S                   10000000     advapi32:ADVAPI32.dll
 0000:fffb0000       .debug$S                   10000000     advapi32:ADVAPI32.dll
 0000:fffb0000       .debug$S                   10000000     advapi32:ADVAPI32.dll
 0000:fffb0000       .debug$S                   10000000     user32:USER32.dll
 0000:fffb0000       .debug$S                   10000000     user32:USER32.dll
 0000:fffb0000       .debug$S                   10000000     user32:USER32.dll
 0000:fffb0000       .debug$S                   10000000     user32:USER32.dll
 0000:fffb0000       .debug$S                   10000000     user32:USER32.dll
 0000:fffb0000       .debug$S                   10000000     user32:USER32.dll
 0000:fffb0000       .debug$S                   10000000     user32:USER32.dll
 0000:fffb0000       .debug$S                   10000000     user32:USER32.dll
 0000:fffb0000       .debug$S                   10000000     kernel32:KERNEL32.dll
 0000:fffb0000       .debug$S                   10000000     kernel32:KERNEL32.dll
 0000:fffb0000       .debug$S                   10000000     kernel32:KERNEL32.dll
 0000:fffb0000       .debug$S                   10000000     kernel32:KERNEL32.dll
 0000:fffb0000       .debug$S                   10000000     kernel32:KERNEL32.dll
 0000:fffb0000       .debug$S                   10000000     kernel32:KERNEL32.dll
 0000:fffb0000       .debug$S                   10000000     kernel32:KERNEL32.dll
 0000:fffb0000       .debug$S                   10000000     kernel32:KERNEL32.dll
 0000:fffb0000       .debug$S                   10000000     kernel32:KERNEL32.dll
 0000:fffb0000       .debug$S                   10000000     kernel32:KERNEL32.dll
 0000:fffb0000       .debug$S                   10000000     kernel32:KERNEL32.dll
 0000:fffb0000       .debug$S                   10000000     kernel32:KERNEL32.dll
 0000:fffb0000       .debug$S                   10000000     kernel32:KERNEL32.dll
 0000:fffb0000       .debug$S                   10000000     kernel32:KERNEL32.dll
 0000:fffb0000       .debug$S                   10000000     kernel32:KERNEL32.dll
 0000:fffb0000       .debug$S                   10000000     kernel32:KERNEL32.dll
 0000:fffb0000       .debug$S                   10000000     kernel32:KERNEL32.dll
 0000:fffb0000       .debug$S                   10000000     kernel32:KERNEL32.dll
 0000:fffb0000       .debug$S                   10000000     kernel32:KERNEL32.dll
 0000:fffb0000       .debug$S                   10000000     kernel32:KERNEL32.dll
 0002:fffc8000       __AtlComModule$initializer$ 10000000     StdAfx.obj
 0000:fffb0000       .debug$S                   10000000     kernel32:KERNEL32.dll
 0000:fffb0000       .debug$S                   10000000     kernel32:KERNEL32.dll
 0000:fffb0000       .debug$S                   10000000     kernel32:KERNEL32.dll
 0000:fffb0000       .debug$S                   10000000     kernel32:KERNEL32.dll
 0000:fffb0000       .debug$S                   10000000     kernel32:KERNEL32.dll
 0000:fffb0000       .debug$S                   10000000     kernel32:KERNEL32.dll
 0000:fffb0000       .debug$S                   10000000     kernel32:KERNEL32.dll
 0000:fffb0000       .debug$S                   10000000     kernel32:KERNEL32.dll
 0000:fffb0000       .debug$S                   10000000     kernel32:KERNEL32.dll
 0000:fffb0000       .debug$S                   10000000     kernel32:KERNEL32.dll
 0000:fffb0000       .debug$S                   10000000     kernel32:KERNEL32.dll
 0000:fffb0000       .debug$S                   10000000     kernel32:KERNEL32.dll
 0000:fffb0000       .debug$S                   10000000     kernel32:KERNEL32.dll
 0000:fffb0000       .debug$S                   10000000     kernel32:KERNEL32.dll
 0000:fffb0000       .debug$S                   10000000     kernel32:KERNEL32.dll
 0000:fffb0000       .debug$S                   10000000     kernel32:KERNEL32.dll
 0000:fffb0000       .debug$S                   10000000     kernel32:KERNEL32.dll
 0000:fffb0000       .debug$S                   10000000     kernel32:KERNEL32.dll
 0000:fffb0000       .debug$S                   10000000     kernel32:KERNEL32.dll
 0000:fffb0000       .debug$S                   10000000     kernel32:KERNEL32.dll
 0000:fffb0000       .debug$S                   10000000     kernel32:KERNEL32.dll
 0000:fffb0000       .debug$S                   10000000     kernel32:KERNEL32.dll
 0000:fffb0000       .debug$S                   10000000     kernel32:KERNEL32.dll
 0000:fffb0000       .debug$S                   10000000     kernel32:KERNEL32.dll
 0000:fffb0000       .debug$S                   10000000     kernel32:KERNEL32.dll
 0000:fffb0000       .debug$S                   10000000     kernel32:KERNEL32.dll
 0000:fffb0000       .debug$S                   10000000     kernel32:KERNEL32.dll
 0000:fffb0000       .debug$S                   10000000     kernel32:KERNEL32.dll
 0000:fffb0000       .debug$S                   10000000     kernel32:KERNEL32.dll
 0000:fffb0000       .debug$S                   10000000     kernel32:KERNEL32.dll
 0000:fffb0000       .debug$S                   10000000     kernel32:KERNEL32.dll
 0000:fffb0000       .debug$S                   10000000     kernel32:KERNEL32.dll
 0000:fffb0000       .debug$S                   10000000     kernel32:KERNEL32.dll
 0000:fffb0000       .debug$S                   10000000     kernel32:KERNEL32.dll
 0000:fffb0000       .debug$S                   10000000     kernel32:KERNEL32.dll
 0000:fffb0000       .debug$S                   10000000     kernel32:KERNEL32.dll
 0000:fffb0000       .debug$S                   10000000     kernel32:KERNEL32.dll
 0000:fffb0000       .debug$S                   10000000     kernel32:KERNEL32.dll
 0000:fffb0000       .debug$S                   10000000     kernel32:KERNEL32.dll
 0000:fffb0000       .debug$S                   10000000     kernel32:KERNEL32.dll
 0000:fffb0000       .debug$S                   10000000     kernel32:KERNEL32.dll
 0000:fffb0000       .debug$S                   10000000     kernel32:KERNEL32.dll
 0000:fffb0000       .debug$S                   10000000     kernel32:KERNEL32.dll
 0000:fffb0000       .debug$S                   10000000     kernel32:KERNEL32.dll
 0000:fffb0000       .debug$S                   10000000     kernel32:KERNEL32.dll
 0000:fffb0000       .debug$S                   10000000     kernel32:KERNEL32.dll
 0000:fffb0000       .debug$S                   10000000     kernel32:KERNEL32.dll
 0000:fffb0000       .debug$S                   10000000     kernel32:KERNEL32.dll
 0000:fffb0000       .debug$S                   10000000     kernel32:KERNEL32.dll
 0000:fffb0000       .debug$S                   10000000     kernel32:KERNEL32.dll
 0000:fffb0000       .debug$S                   10000000     kernel32:KERNEL32.dll
 0000:fffb0000       .debug$S                   10000000     kernel32:KERNEL32.dll
 0000:fffb0000       .debug$S                   10000000     kernel32:KERNEL32.dll
 0000:fffb0000       .debug$S                   10000000     kernel32:KERNEL32.dll
 0000:fffb0000       .debug$S                   10000000     kernel32:KERNEL32.dll
 0000:fffb0000       .debug$S                   10000000     kernel32:KERNEL32.dll
 0000:fffb0000       .debug$S                   10000000     kernel32:KERNEL32.dll
 0000:fffb0000       .debug$S                   10000000     kernel32:KERNEL32.dll
 0000:fffb0000       .debug$S                   10000000     kernel32:KERNEL32.dll
 0000:fffb0000       .debug$S                   10000000     kernel32:KERNEL32.dll
 0000:fffb0000       .debug$S                   10000000     kernel32:KERNEL32.dll
 0000:fffb0000       .debug$S                   10000000     kernel32:KERNEL32.dll
 0000:fffb0000       .debug$S                   10000000     kernel32:KERNEL32.dll
 0000:fffb0000       .debug$S                   10000000     kernel32:KERNEL32.dll
 0000:fffb0000       .debug$S                   10000000     kernel32:KERNEL32.dll
 0000:fffb0000       .debug$S                   10000000     kernel32:KERNEL32.dll
 0000:fffb0000       .debug$S                   10000000     kernel32:KERNEL32.dll
 0000:fffb0000       .debug$S                   10000000     kernel32:KERNEL32.dll
 0000:fffb0000       .debug$S                   10000000     kernel32:KERNEL32.dll
 0000:fffb0000       .debug$S                   10000000     kernel32:KERNEL32.dll
 0000:fffb0000       .debug$S                   10000000     kernel32:KERNEL32.dll
 0000:fffb0000       .debug$S                   10000000     kernel32:KERNEL32.dll
 0000:fffb0000       .debug$S                   10000000     kernel32:KERNEL32.dll
 0000:fffb0000       .debug$S                   10000000     kernel32:KERNEL32.dll
 0000:fffb0000       .debug$S                   10000000     kernel32:KERNEL32.dll
 0000:fffb0000       .debug$S                   10000000     kernel32:KERNEL32.dll
 0000:fffb0000       .debug$S                   10000000     kernel32:KERNEL32.dll
 0000:fffb0000       .debug$S                   10000000     kernel32:KERNEL32.dll
 0000:fffb0000       .debug$S                   10000000     kernel32:KERNEL32.dll
 0000:fffb0000       .debug$S                   10000000     kernel32:KERNEL32.dll
 0000:fffb0000       .debug$S                   10000000     kernel32:KERNEL32.dll
 0000:fffb0000       .debug$S                   10000000     kernel32:KERNEL32.dll
 0000:fffb0000       .debug$S                   10000000     kernel32:KERNEL32.dll
 0000:fffb0000       .debug$S                   10000000     kernel32:KERNEL32.dll
 0000:fffb0000       .debug$S                   10000000     kernel32:KERNEL32.dll
 0000:fffb0000       .debug$S                   10000000     kernel32:KERNEL32.dll
 0000:fffb0000       .debug$S                   10000000     kernel32:KERNEL32.dll
 0001:fffff000       __ehhandler$?_Copy@?$basic_string@DU?$char_traits@D@std@@V?$allocator@D@2@@std@@QAEXII@Z 10000000 f   sbSender.obj
 0000:fffb0000       .debug$S                   10000000     kernel32:KERNEL32.dll
 0000:fffb0000       .debug$S                   10000000     kernel32:KERNEL32.dll
 0000:fffb0000       .debug$S                   10000000     kernel32:KERNEL32.dll
 0000:fffb0000       .debug$S                   10000000     kernel32:KERNEL32.dll
 0000:fffb0000       .debug$S                   10000000     kernel32:KERNEL32.dll
 0000:fffb0000       .debug$S                   10000000     kernel32:KERNEL32.dll
 0000:fffb0000       .debug$S                   10000000     kernel32:KERNEL32.dll
 0000:fffb0000       .debug$S                   10000000     kernel32:KERNEL32.dll
 0002:fffc8000       __catchsym$?_Copy@?$basic_string@DU?$char_traits@D@std@@V?$allocator@D@2@@std@@QAEXII@Z$5 10000000     sbSender.obj
 0000:fffb0000       .debug$S                   10000000     version:VERSION.dll
 0000:fffb0000       .debug$S                   10000000     version:VERSION.dll
 0002:fffc8000       ?_Generic_object$initializer$@?$_Error_objects@H@std@@2P6AXXZA 10000000     sbSender.obj
 0002:fffc8000       ?_Iostream_object$initializer$@?$_Error_objects@H@std@@2P6AXXZA 10000000     sbSender.obj
 0002:fffc8000       ?_System_object$initializer$@?$_Error_objects@H@std@@2P6AXXZA 10000000     sbSender.obj
 0000:fffb0000       .debug$S                   10000000     shlwapi:SHLWAPI.dll
 0000:fffb0000       .debug$S                   10000000     shlwapi:SHLWAPI.dll
 0000:fffb0000       .debug$S                   10000000     shlwapi:SHLWAPI.dll
 0000:fffb0000       .debug$S                   10000000     shlwapi:SHLWAPI.dll
 0002:fffc8000       __catchsym$?_Copy@?$basic_string@DU?$char_traits@D@std@@V?$allocator@D@2@@std@@QAEXII@Z$5 10000000     libcpmt:xthrow.obj
 0002:fffc8000       ?_Generic_object$initializer$@?$_Error_objects@H@std@@2P6AXXZA 10000000     libcpmt:xthrow.obj
 0002:fffc8000       ?_Iostream_object$initializer$@?$_Error_objects@H@std@@2P6AXXZA 10000000     libcpmt:xthrow.obj
 0002:fffc8000       ?_System_object$initializer$@?$_Error_objects@H@std@@2P6AXXZA 10000000     libcpmt:xthrow.obj
 0002:fffc8000       __catchsym$?AllocBuffer@CString@WTL@@IAEHH@Z$2 10000000     mdump.obj
 0001:fffff000       __ehhandler$?AllocBuffer@CString@WTL@@IAEHH@Z 10000000 f   mdump.obj
 0002:fffc8010       __catchsym$?_Copy@?$basic_string@DU?$char_traits@D@std@@V?$allocator@D@2@@std@@QAEXII@Z$4 10000010     libcpmt:xthrow.obj
 0002:fffc8010       __catchsym$?_Copy@?$basic_string@DU?$char_traits@D@std@@V?$allocator@D@2@@std@@QAEXII@Z$4 10000010     sbSender.obj
 0002:fffc8010       __unwindtable$?AllocBuffer@CString@WTL@@IAEHH@Z 10000010     mdump.obj
 0002:fffc8010       __catchsym$?_Copy@?$basic_string@DU?$char_traits@D@std@@V?$allocator@D@2@@std@@QAEXII@Z$4 10000010     libcpmt:syserror.obj
 0002:fffc8020       __unwindtable$?_Copy@?$basic_string@DU?$char_traits@D@std@@V?$allocator@D@2@@std@@QAEXII@Z 10000020     libcpmt:xthrow.obj
 0002:fffc8020       __unwindtable$?_Copy@?$basic_string@DU?$char_traits@D@std@@V?$allocator@D@2@@std@@QAEXII@Z 10000020     libcpmt:syserror.obj
 0002:fffc8020       __tryblocktable$?AllocBuffer@CString@WTL@@IAEHH@Z 10000020     mdump.obj
 0002:fffc8020       __unwindtable$?_Copy@?$basic_string@DU?$char_traits@D@std@@V?$allocator@D@2@@std@@QAEXII@Z 10000020     sbSender.obj
 0002:fffc8034       __ehfuncinfo$?AllocBuffer@CString@WTL@@IAEHH@Z 10000034     mdump.obj
 0001:fffff039       __catch$?AllocBuffer@CString@WTL@@IAEHH@Z$0 10000039 f   mdump.obj
 0002:fffc8040       __ehfuncinfo$?_Copy@?$basic_string@DU?$char_traits@D@std@@V?$allocator@D@2@@std@@QAEXII@Z 10000040     libcpmt:syserror.obj
 0002:fffc8040       __ehfuncinfo$?_Copy@?$basic_string@DU?$char_traits@D@std@@V?$allocator@D@2@@std@@QAEXII@Z 10000040     sbSender.obj
 0002:fffc8040       __ehfuncinfo$?_Copy@?$basic_string@DU?$char_traits@D@std@@V?$allocator@D@2@@std@@QAEXII@Z 10000040     libcpmt:xthrow.obj
 0001:fffff063       __catch$?_Copy@?$basic_string@DU?$char_traits@D@std@@V?$allocator@D@2@@std@@QAEXII@Z$0 10000063 f   sbSender.obj
 0001:fffff063       __catch$?_Copy@?$basic_string@DU?$char_traits@D@std@@V?$allocator@D@2@@std@@QAEXII@Z$0 10000063 f   libcpmt:syserror.obj
 0001:fffff063       __catch$?_Copy@?$basic_string@DU?$char_traits@D@std@@V?$allocator@D@2@@std@@QAEXII@Z$0 10000063 f   libcpmt:xthrow.obj
 0002:fffc8064       __tryblocktable$?_Copy@?$basic_string@DU?$char_traits@D@std@@V?$allocator@D@2@@std@@QAEXII@Z 10000064     libcpmt:syserror.obj
 0002:fffc8064       __tryblocktable$?_Copy@?$basic_string@DU?$char_traits@D@std@@V?$allocator@D@2@@std@@QAEXII@Z 10000064     libcpmt:xthrow.obj
 0002:fffc8064       __tryblocktable$?_Copy@?$basic_string@DU?$char_traits@D@std@@V?$allocator@D@2@@std@@QAEXII@Z 10000064     sbSender.obj
 0001:fffff0e2       __catch$?_Copy@?$basic_string@DU?$char_traits@D@std@@V?$allocator@D@2@@std@@QAEXII@Z$1 100000e2 f   libcpmt:syserror.obj
 0001:fffff0e2       __catch$?_Copy@?$basic_string@DU?$char_traits@D@std@@V?$allocator@D@2@@std@@QAEXII@Z$1 100000e2 f   sbSender.obj
 0001:fffff0e2       __catch$?_Copy@?$basic_string@DU?$char_traits@D@std@@V?$allocator@D@2@@std@@QAEXII@Z$1 100000e2 f   libcpmt:xthrow.obj
 0001:00000000       ??__E?_Generic_object@?$_Error_objects@H@std@@2V_Generic_error_category@2@A@@YAXXZ 10001000 f   mdump.obj
 0001:0000000c       ??__E?_Iostream_object@?$_Error_objects@H@std@@2V_Iostream_error_category@2@A@@YAXXZ 1000100c f   mdump.obj
 0001:00000018       ??__E?_System_object@?$_Error_objects@H@std@@2V_System_error_category@2@A@@YAXXZ 10001018 f   mdump.obj
 0001:00000024       ??__E?m_imp@MiniDumper@@1VBugSplatImp@@A@@YAXXZ 10001024 f   mdump.obj
 0001:0000002e       ??__E?_Generic_object@?$_Error_objects@H@std@@2V_Generic_error_category@2@A@@YAXXZ 1000102e f   sbSender.obj
 0001:0000003a       ??__E?_Iostream_object@?$_Error_objects@H@std@@2V_Iostream_error_category@2@A@@YAXXZ 1000103a f   sbSender.obj
 0001:00000046       ??__E?_System_object@?$_Error_objects@H@std@@2V_System_error_category@2@A@@YAXXZ 10001046 f   sbSender.obj
 0001:00000052       ??__E_AtlComModule@ATL@@YAXXZ 10001052 f   sbSenderApp.obj
 0001:00000068       ??__E_Module@@YAXXZ        10001068 f   sbSenderApp.obj
 0001:00000092       ??__E_AtlComModule@ATL@@YAXXZ 10001092 f   StdAfx.obj
 0001:000000a8       ??__E_AtlWinModule@ATL@@YAXXZ 100010a8 f   StdAfx.obj
 0001:000000be       ??__E_AtlBaseModule@ATL@@YAXXZ 100010be f   atls:atlbase.obj
 0001:000000d4       ??__E?_Generic_object@?$_Error_objects@H@std@@2V_Generic_error_category@2@A@@YAXXZ 100010d4 f   libcpmt:xthrow.obj
 0001:000000e0       ??__E?_Iostream_object@?$_Error_objects@H@std@@2V_Iostream_error_category@2@A@@YAXXZ 100010e0 f   libcpmt:xthrow.obj
 0001:000000ec       ??__E?_System_object@?$_Error_objects@H@std@@2V_System_error_category@2@A@@YAXXZ 100010ec f   libcpmt:xthrow.obj
 0001:000000f8       ??__E?_Generic_object@?$_Error_objects@H@std@@2V_Generic_error_category@2@A@@YAXXZ 100010f8 f   libcpmt:syserror.obj
 0001:00000104       ??__E?_Iostream_object@?$_Error_objects@H@std@@2V_Iostream_error_category@2@A@@YAXXZ 10001104 f   libcpmt:syserror.obj
 0001:00000110       ??__E?_System_object@?$_Error_objects@H@std@@2V_System_error_category@2@A@@YAXXZ 10001110 f   libcpmt:syserror.obj
 0001:0000043a       __catch$?AllocBuffer@CString@WTL@@IAEHH@Z$0 1000143a f i BugSplatImp.obj
 0001:0000158e       __catch$??$_Uninit_move@PAVCString@WTL@@PAV12@V?$allocator@VCString@WTL@@@std@@V12@@std@@YAPAVCString@WTL@@PAV12@00AAU?$_Wrap_alloc@V?$allocator@VCString@WTL@@@std@@@0@0U_Nonscalar_ptr_iterator_tag@0@@Z$0 1000258e f i mdump.obj
 0001:00001cf5       __catch$?AtlMessageBox@WTL@@YAHPAUHWND__@@V_U_STRINGorID@ATL@@1I@Z$0 10002cf5 f i mdump.obj
 0001:00001d84       __catch$?AtlMessageBox@WTL@@YAHPAUHWND__@@V_U_STRINGorID@ATL@@1I@Z$2 10002d84 f i mdump.obj
 0001:00002fae       __catch$?_Copy@?$basic_string@DU?$char_traits@D@std@@V?$allocator@D@2@@std@@QAEXII@Z$0 10003fae f i mdump.obj
 0001:0000302d       __catch$?_Copy@?$basic_string@DU?$char_traits@D@std@@V?$allocator@D@2@@std@@QAEXII@Z$1 1000402d f i mdump.obj
 0001:00003208       __catch$?_Reallocate@?$vector@VCString@WTL@@V?$allocator@VCString@WTL@@@std@@@std@@IAEXI@Z$0 10004208 f i mdump.obj
 0001:000041bb       _localtime_s               100051bb f   mdump.obj
 0001:000041c4       _time                      100051c4 f   mdump.obj
 0001:00004ba9       __catch$?AddValue@CRegParser@ATL@@IAEJAAVCRegKey@2@PB_WPA_W@Z$0 10005ba9 f i sbSenderApp.obj
 0001:00004ce4       __catch$?AddValue@CRegParser@ATL@@IAEJAAVCRegKey@2@PB_WPA_W@Z$2 10005ce4 f i sbSenderApp.obj
 0001:00005606       __catch$?Init@CAppModule@WTL@@QAEJPAU_ATL_OBJMAP_ENTRY30@ATL@@PAUHINSTANCE__@@PBU_GUID@@@Z$0 10006606 f i sbSenderApp.obj
 0001:00005f7f       __catch$?RegisterFromResource@CRegObject@ATL@@IAEJPB_W00H@Z$4 10006f7f f i sbSenderApp.obj
 0001:0000778b       ?ArrayUnwindFilter@@YAHPAU_EXCEPTION_POINTERS@@@Z 1000878b f   LIBCMT:ehvecdtr.obj
 0001:00007c36       __initterm                 10008c36 f   LIBCMT:crt0dat.obj
 0001:00007ca0       _doexit                    10008ca0 f   LIBCMT:crt0dat.obj
 0001:00007e00       $$000000                   10008e00     LIBCMT:memcpy.obj
 0001:00008050       LeadUpVec                  10009050     LIBCMT:memcpy.obj
 0001:000080cc       UnwindUpVec                100090cc     LIBCMT:memcpy.obj
 0001:00008138       TrailUpVec                 10009138     LIBCMT:memcpy.obj
 0001:000081dc       LeadDownVec                100091dc     LIBCMT:memcpy.obj
 0001:00008268       UnwindDownVec              10009268     LIBCMT:memcpy.obj
 0001:000082d4       TrailDownVec               100092d4     LIBCMT:memcpy.obj
 0001:00008450       $$000000                   10009450     LIBCMT:memset.obj
 0001:00008b10       $$000000                   10009b10     LIBCMT:sehprolg4.obj
 0001:00008b69       ?CatchGuardHandler@@YA?AW4_EXCEPTION_DISPOSITION@@PAUEHExceptionRecord@@PAUCatchGuardRN@@PAX2@Z 10009b69 f   LIBCMT:_trnsctrl_.obj
 0001:00008b9a       ?TranslatorGuardHandler@@YA?AW4_EXCEPTION_DISPOSITION@@PAUEHExceptionRecord@@PAUTranslatorGuardRN@@PAX2@Z 10009b9a f   LIBCMT:_trnsctrl_.obj
 0001:00008ff0       _ValidateLocalCookies      10009ff0 f   LIBCMT:chandler4.obj
 0001:00009417       __onexit_nolock            1000a417 f   LIBCMT:onexit.obj
 0001:00009b30       $$000000                   1000ab30     LIBCMT:strlen.obj
 0001:00009bc0       $$000000                   1000abc0     LIBCMT:memmove.obj
 0001:00009e10       LeadUpVec                  1000ae10     LIBCMT:memmove.obj
 0001:00009e8c       UnwindUpVec                1000ae8c     LIBCMT:memmove.obj
 0001:00009ef8       TrailUpVec                 1000aef8     LIBCMT:memmove.obj
 0001:00009f9c       LeadDownVec                1000af9c     LIBCMT:memmove.obj
 0001:0000a028       UnwindDownVec              1000b028     LIBCMT:memmove.obj
 0001:0000a094       TrailDownVec               1000b094     LIBCMT:memmove.obj
 0001:0000a690       ?_W_expandtime@@YAHPAUlocaleinfo_struct@@_WPBUtm@@PAPA_WPAIPAU__lc_time_data@@I@Z 1000b690 f   LIBCMT:wcsftime.obj
 0001:0000abb6       ?_W_store_num@@YAXHHPAPA_WPAII@Z 1000bbb6 f   LIBCMT:wcsftime.obj
 0001:0000ac25       ?_W_store_number@@YAXHPAPA_WPAI@Z 1000bc25 f   LIBCMT:wcsftime.obj
 0001:0000ac7b       ?_W_store_str@@YAXPA_WPAPA_WPAI@Z 1000bc7b f   LIBCMT:wcsftime.obj
 0001:0000aca9       ?_W_store_winword@@YAHPAUlocaleinfo_struct@@HPBUtm@@PAPA_WPAIPAU__lc_time_data@@@Z 1000bca9 f   LIBCMT:wcsftime.obj
 0001:0000bd4b       __callthreadstartex        1000cd4b f   LIBCMT:threadex.obj
 0001:0000bd8c       __createThread             1000cd8c f   LIBCMT:threadex.obj
 0001:0000bdd9       __initMTAoncurrentthread   1000cdd9 f   LIBCMT:threadex.obj
 0001:0000be31       __threadstartex@4          1000ce31 f   LIBCMT:threadex.obj
 0001:0000beae       __uninitMTAoncurrentthread 1000ceae f   LIBCMT:threadex.obj
 0001:0000bf39       _ctrlevent_capture@4       1000cf39 f   LIBCMT:winsig.obj
 0001:0000c199       _siglookup                 1000d199 f   LIBCMT:winsig.obj
 0001:0000c758       __hypothlp                 1000d758 f   LIBCMT:hypot.obj
 0001:0000caa0       $$000000                   1000daa0     LIBCMT:lldiv.obj
 0001:0000d1c0       $$000000                   1000e1c0     LIBCMT:chkstk.obj
 0001:0000d380       ___DllMainCRTStartup       1000e380 f   LIBCMT:dllcrt0.obj
 0001:0000d76e       ___IsPackagedAppHelper     1000e76e f   LIBCMT:winapisupp.obj
 0001:0000e753       ?CPtoLocaleName@@YAPB_WH@Z 1000f753 f   LIBCMT:mbctype.obj
 0001:0000e78d       ?getSystemCP@@YAHH@Z       1000f78d f   LIBCMT:mbctype.obj
 0001:0000e7fb       ?setSBCS@@YAXPAUthreadmbcinfostruct@@@Z 1000f7fb f   LIBCMT:mbctype.obj
 0001:0000e85a       ?setSBUpLow@@YAXPAUthreadmbcinfostruct@@@Z 1000f85a f   LIBCMT:mbctype.obj
 0001:00010379       $LN267                     10011379     LIBCMT:woutput.obj
 0001:000103bc       _write_char                100113bc f   LIBCMT:woutput.obj
 0001:000103f2       _write_multi_char          100113f2 f   LIBCMT:woutput.obj
 0001:0001041e       _write_string              1001141e f   LIBCMT:woutput.obj
 0001:000107f0       $$000000                   100117f0     LIBCMT:lowhelpr.obj
 0001:0001092e       ?CallCatchBlock@@YAPAXPAUEHExceptionRecord@@PAUEHRegistrationNode@@PAU_CONTEXT@@PBU_s_FuncInfo@@PAXHK@Z 1001192e f   LIBCMT:frame.obj
 0001:00010af4       ?CallUnexpected@@YAXPBU_s_ESTypeList@@@Z 10011af4 f   LIBCMT:frame.obj
 0001:00010b1c       __catch$?CallUnexpected@@YAXPBU_s_ESTypeList@@@Z$0 10011b1c f   LIBCMT:frame.obj
 0001:00010b34       ?CatchIt@@YAXPAUEHExceptionRecord@@PAUEHRegistrationNode@@PAU_CONTEXT@@PAXPBU_s_FuncInfo@@PBU_s_HandlerType@@PBU_s_CatchableType@@PBU_s_TryBlockMapEntry@@H1E@Z 10011b34 f   LIBCMT:frame.obj
 0001:00010baf       ?ExFilterRethrow@@YAHPAU_EXCEPTION_POINTERS@@@Z 10011baf f   LIBCMT:frame.obj
 0001:00010bfc       ?FindHandler@@YAXPAUEHExceptionRecord@@PAUEHRegistrationNode@@PAU_CONTEXT@@PAXPBU_s_FuncInfo@@EH1@Z 10011bfc f   LIBCMT:frame.obj
 0001:00010f99       ?FindHandlerForForeignException@@YAXPAUEHExceptionRecord@@PAUEHRegistrationNode@@PAU_CONTEXT@@PAXPBU_s_FuncInfo@@HH1@Z 10011f99 f   LIBCMT:frame.obj
 0001:000110b5       ?IsInExceptionSpec@@YAEPAUEHExceptionRecord@@PBU_s_ESTypeList@@@Z 100120b5 f   LIBCMT:frame.obj
 0001:0001113d       ?Is_bad_exception_allowed@@YAEPBU_s_ESTypeList@@@Z 1001213d f   LIBCMT:frame.obj
 0001:00011b00       $$000000                   10012b00     LIBCMT:exsup4.obj
 0001:00011b90       __unwind_handler4          10012b90 f   LIBCMT:exsup4.obj
 0001:00011c60       $$000000                   10012c60     LIBCMT:strcmp.obj
 0001:000122f5       ?wcstoxl@@YAKPB_WPAPB_WHH@Z 100132f5 f   LIBCMT:wcstol.obj
 0001:00012536       ?wcstoxq@@YA_KPAUlocaleinfo_struct@@PB_WPAPB_WHH@Z 10013536 f   LIBCMT:wcstoq.obj
 0001:0001377d       __isindst_nolock           1001477d f   LIBCMT:tzset.obj
 0001:000139c6       __tzset_nolock             100149c6 f   LIBCMT:tzset.obj
 0001:00013cf8       _cvtdate                   10014cf8 f   LIBCMT:tzset.obj
 0001:00014408       ___crtEnumLocalesProc@4    10015408 f   LIBCMT:winapinls.obj
 0001:00014620       $$000000                   10015620     LIBCMT:alloca16.obj
 0001:00014921       _flsall                    10015921 f   LIBCMT:fflush.obj
 0001:00014b7e       _xcptlookup                10015b7e f   LIBCMT:winxfltr.obj
 0001:00014f90       $$000000                   10015f90     LIBCMT:llrem.obj
 0001:00015050       $$000000                   10016050     LIBCMT:ulldiv.obj
 0001:000150c0       $$000000                   100160c0     LIBCMT:sqrt.obj
 0001:0001551d       __get_fname                1001651d f   LIBCMT:fpexcept.obj
 0001:000161e6       __cftoe2_l                 100171e6 f   LIBCMT:cvt.obj
 0001:00016420       __cftof2_l                 10017420 f   LIBCMT:cvt.obj
 0001:00016874       __shift                    10017874 f   LIBCMT:cvt.obj
 0001:000169ac       __catch$??2@YAPAXIABUnothrow_t@std@@@Z$0 100179ac f   LIBCMT:newopnt.obj
 0001:00016d85       _parse_cmdline             10017d85 f   LIBCMT:stdargv.obj
 0001:000174ef       ?__crtGetLocaleInfoA_stat@@YAHPAUlocaleinfo_struct@@PB_WKPADH@Z 100184ef f   LIBCMT:a_loc.obj
 0001:0001760d       ?__crtLCMapStringA_stat@@YAHPAUlocaleinfo_struct@@PB_WKPBDHPADHHH@Z 1001860d f   LIBCMT:a_map.obj
 0001:00017811       ?strncnt@@YAHPBDH@Z        10018811 f   LIBCMT:a_map.obj
 0001:00017877       ?__crtGetStringTypeA_stat@@YAHPAUlocaleinfo_struct@@KPBDHPAGHH@Z 10018877 f   LIBCMT:a_str.obj
 0001:00019958       $LN661                     1001a958     LIBCMT:woutputp.obj
 0001:00019978       _write_char                1001a978 f   LIBCMT:woutputp.obj
 0001:000199ae       _write_multi_char          1001a9ae f   LIBCMT:woutputp.obj
 0001:000199da       _write_string              1001a9da f   LIBCMT:woutputp.obj
 0001:0001a66f       $LN284                     1001b66f     LIBCMT:woutputs.obj
 0001:0001a68f       _write_char                1001b68f f   LIBCMT:woutputs.obj
 0001:0001a6c5       _write_multi_char          1001b6c5 f   LIBCMT:woutputs.obj
 0001:0001a6f1       _write_string              1001b6f1 f   LIBCMT:woutputs.obj
 0001:0001abe0       $$000000                   1001bbe0     LIBCMT:ulldvrm.obj
 0001:0001b7d5       $LN277                     1001c7d5     LIBCMT:output.obj
 0001:0001b806       _write_char                1001c806 f   LIBCMT:output.obj
 0001:0001b84e       _write_multi_char          1001c84e f   LIBCMT:output.obj
 0001:0001b87a       _write_string              1001c87a f   LIBCMT:output.obj
 0001:0001b900       $$000000                   1001c900     LIBCMT:exsup.obj
 0001:0001b920       __unwind_handler           1001c920 f   LIBCMT:exsup.obj
 0001:0001dbd7       $LN113                     1001ebd7     LIBCMT:undname.obj
 0001:0001dbef       $LN105                     1001ebef     LIBCMT:undname.obj
 0001:0001e94f       $LN27                      1001f94f     LIBCMT:undname.obj
 0001:00020fd1       $LN129                     10021fd1     LIBCMT:undname.obj
 0001:000215ce       ?und_memcpy@@YAXPADPBDI@Z  100225ce f   LIBCMT:undname.obj
 0001:000215ed       ?und_strlen@@YAIPBD@Z      100225ed f   LIBCMT:undname.obj
 0001:00021602       ?und_strncmp@@YAIPBD0I@Z   10022602 f   LIBCMT:undname.obj
 0001:00021c40       $$000000                   10022c40     LIBCMT:llmul.obj
 0001:00021f40       __copytlocinfo_nolock      10022f40 f   LIBCMT:wsetloca.obj
 0001:000226be       __wsetlocale_get_all       100236be f   LIBCMT:wsetloca.obj
 0001:0002282b       __wsetlocale_nolock        1002382b f   LIBCMT:wsetloca.obj
 0001:00022ab4       __wsetlocale_set_cat       10023ab4 f   LIBCMT:wsetloca.obj
 0001:00022e5e       _sync_legacy_variables_lk  10023e5e f   LIBCMT:wsetloca.obj
 0001:00023320       _fix_grouping              10024320 f   LIBCMT:initmon.obj
 0001:000235c5       _fix_grouping              100245c5 f   LIBCMT:initnum.obj
 0001:000239f9       __get_lc_time              100249f9 f   LIBCMT:inittime.obj
 0001:000242de       ___createFile              100252de f   LIBCMT:wopen.obj
 0001:00025094       __dupenv_s_helper          10026094 f   LIBCMT:getenv.obj
 0001:000251b4       __getenv_s_helper          100261b4 f   LIBCMT:getenv.obj
 0001:00025de0       $$000000                   10026de0     LIBCMT:87disp.obj
 0001:00025fb0       $$000000                   10026fb0     LIBCMT:genexcep.obj
 0001:00026010       $$000000                   10027010     LIBCMT:common.obj
 0001:000269d0       $$000000                   100279d0     LIBCMT:strrchr.obj
 0001:00026d10       $$000000                   10027d10     LIBCMT:lldvrm.obj
 0001:00026df0       $$000000                   10027df0     LIBCMT:ullshr.obj
 0001:00026ea4       ?x_ismbbtype_l@@YAHPAUlocaleinfo_struct@@IHH@Z 10027ea4 f   LIBCMT:ismbbyte.obj
 0001:000284ad       $LN720                     100294ad     LIBCMT:cprintfp.obj
 0001:000284e0       _write_char                100294e0 f   LIBCMT:cprintfp.obj
 0001:00028501       _write_multi_char          10029501 f   LIBCMT:cprintfp.obj
 0001:00028529       _write_string              10029529 f   LIBCMT:cprintfp.obj
 0001:00029101       $LN296                     1002a101     LIBCMT:outputs.obj
 0001:00029121       _write_char                1002a121 f   LIBCMT:outputs.obj
 0001:00029169       _write_multi_char          1002a169 f   LIBCMT:outputs.obj
 0001:00029195       _write_string              1002a195 f   LIBCMT:outputs.obj
 0001:0002b927       $LN333                     1002c927     LIBCMT:strgtold.obj
 0001:0002b95a       _cmpBYTE                   1002c95a f   LIBCMT:memcmp.obj
 0001:0002b97f       _cmpDWORD                  1002c97f f   LIBCMT:memcmp.obj
 0001:0002ba0a       _cmpResult                 1002ca0a f   LIBCMT:memcmp.obj
 0001:0002ba26       _cmpWORD                   1002ca26 f   LIBCMT:memcmp.obj
 0001:0002d16f       $LN1281                    1002e16f     LIBCMT:memcmp.obj
 0001:0002d1ef       _unaligned_memcmp          1002e1ef f   LIBCMT:memcmp.obj
 0001:0002e90b       $LN1269                    1002f90b     LIBCMT:memcmp.obj
 0001:0002ea18       _GetLocaleNameFromDefault  1002fa18 f   LIBCMT:getqloc.obj
 0001:0002ea91       _GetLocaleNameFromLangCountry 1002fa91 f   LIBCMT:getqloc.obj
 0001:0002eb05       _GetLocaleNameFromLanguage 1002fb05 f   LIBCMT:getqloc.obj
 0001:0002eb4f       _GetPrimaryLen             1002fb4f f   LIBCMT:getqloc.obj
 0001:0002eb81       _LangCountryEnumProcEx@12  1002fb81 f   LIBCMT:getqloc.obj
 0001:0002eda1       _LanguageEnumProcEx@12     1002fda1 f   LIBCMT:getqloc.obj
 0001:0002ee54       _ProcessCodePage           1002fe54 f   LIBCMT:getqloc.obj
 0001:0002eee9       _TestDefaultCountry        1002fee9 f   LIBCMT:getqloc.obj
 0001:0002ef35       _TestDefaultLanguage       1002ff35 f   LIBCMT:getqloc.obj
 0001:0002ef70       _TranslateName             1002ff70 f   LIBCMT:getqloc.obj
 0001:0002f19e       _CountryEnumProc@4         1003019e f   LIBCMT:getqloc_downlevel.obj
 0001:0002f24e       _GetLcidFromCountry        1003024e f   LIBCMT:getqloc_downlevel.obj
 0001:0002f28e       _GetLcidFromDefault        1003028e f   LIBCMT:getqloc_downlevel.obj
 0001:0002f2aa       _GetLcidFromLangCountry    100302aa f   LIBCMT:getqloc_downlevel.obj
 0001:0002f327       _GetLcidFromLanguage       10030327 f   LIBCMT:getqloc_downlevel.obj
 0001:0002f380       _GetPrimaryLen             10030380 f   LIBCMT:getqloc_downlevel.obj
 0001:0002f3aa       _LangCountryEnumProc@4     100303aa f   LIBCMT:getqloc_downlevel.obj
 0001:0002f59f       _LanguageEnumProc@4        1003059f f   LIBCMT:getqloc_downlevel.obj
 0001:0002f67a       _LcidFromHexString         1003067a f   LIBCMT:getqloc_downlevel.obj
 0001:0002f6c9       _ProcessCodePage           100306c9 f   LIBCMT:getqloc_downlevel.obj
 0001:0002f754       _TestDefaultCountry        10030754 f   LIBCMT:getqloc_downlevel.obj
 0001:0002f776       _TestDefaultLanguage       10030776 f   LIBCMT:getqloc_downlevel.obj
 0001:0002f7e0       _TranslateName             100307e0 f   LIBCMT:getqloc_downlevel.obj
 0001:0003082f       ?strtoxq@@YA_KPAUlocaleinfo_struct@@PBDPAPBDHH@Z 1003182f f   LIBCMT:strtoq.obj
 0001:00030bc2       ?strtoxl@@YAKPAUlocaleinfo_struct@@PBDPAPBDHH@Z 10031bc2 f   LIBCMT:strtol.obj
 0001:00031c59       ___abstract_cw_sse2        10032c59 f   LIBCMT:ieee87.obj
 0001:00031d02       ___abstract_sw_sse2        10032d02 f   LIBCMT:ieee87.obj
 0001:00031d43       ___clearfp_sse2            10032d43 f   LIBCMT:ieee87.obj
 0001:000320ad       ___control87_sse2          100330ad f   LIBCMT:ieee87.obj
 0001:00032230       ___fpreset_sse2            10033230 f   LIBCMT:ieee87.obj
 0001:0003223c       ___hw_cw_sse2              1003323c f   LIBCMT:ieee87.obj
 0001:000322e5       ___statusfp_sse2           100332e5 f   LIBCMT:ieee87.obj
 0001:00032326       __abstract_cw              10033326 f   LIBCMT:ieee87.obj
 0001:000323c5       __abstract_sw              100333c5 f   LIBCMT:ieee87.obj
 0001:00032b2a       __hw_cw                    10033b2a f   LIBCMT:ieee87.obj
 0001:00034141       $LN736                     10035141     LIBCMT:outputp.obj
 0001:00034297       _write_char                10035297 f   LIBCMT:outputp.obj
 0001:000342df       _write_multi_char          100352df f   LIBCMT:outputp.obj
 0001:0003430b       _write_string              1003530b f   LIBCMT:outputp.obj
 0001:00034bfe       $LN323                     10035bfe     LIBCMT:wstrgtold.obj
 0001:00034e0e       @x64tow_s@24               10035e0e f   LIBCMT:xtows.obj
 0001:00034fe1       _xtow_s@20                 10035fe1 f   LIBCMT:xtows.obj
 0001:000354f6       _copy_environ              100364f6 f   LIBCMT:setenv.obj
 0001:00035556       _findenv                   10036556 f   LIBCMT:setenv.obj
 0001:0003569d       ?__crtCompareStringA_stat@@YAHPAUlocaleinfo_struct@@PB_WKPBDH2HH@Z 1003669d f   LIBCMT:a_cmp.obj
 0001:00035921       ?strncnt@@YAHPBDH@Z        10036921 f   LIBCMT:a_cmp.obj
 0001:00035c50       $$000000                   10036c50     LIBCMT:strchr.obj
 0001:00035d80       $$000000                   10036d80     LIBCMT:_strnicm.obj
 0001:0003616d       $LN22                      1003716d     libcpmt:xthrow.obj
 0001:000364f0       __unwindfunclet$??HWTL@@YG?AVCString@0@ABV10@0@Z$0 100374f0 f   BugSplatImp.obj
 0001:00036509       __ehhandler$??HWTL@@YG?AVCString@0@ABV10@0@Z 10037509 f   BugSplatImp.obj
 0001:00036524       __ehhandler$?AllocBuffer@CString@WTL@@IAEHH@Z 10037524 f   BugSplatImp.obj
 0001:0003653f       __unwindfunclet$?CreateMiniDump@BugSplatImp@@QAEHPAUHINSTANCE__@@KPAXKPAU_EXCEPTION_POINTERS@@PB_WPA_WK@Z$0 1003753f f   BugSplatImp.obj
 0001:0003654a       __ehhandler$?CreateMiniDump@BugSplatImp@@QAEHPAUHINSTANCE__@@KPAXKPAU_EXCEPTION_POINTERS@@PB_WPA_WK@Z 1003754a f   BugSplatImp.obj
 0001:00036572       __unwindfunclet$?GetReducedGuid@BugSplatImp@@QAEXPA_WK@Z$0 10037572 f   BugSplatImp.obj
 0001:0003657a       __ehhandler$?GetReducedGuid@BugSplatImp@@QAEXPA_WK@Z 1003757a f   BugSplatImp.obj
 0001:0003659f       __unwindfunclet$?Left@CString@WTL@@QBE?AV12@H@Z$0 1003759f f   BugSplatImp.obj
 0001:000365b8       __ehhandler$?Left@CString@WTL@@QBE?AV12@H@Z 100375b8 f   BugSplatImp.obj
 0001:000365d3       __unwindfunclet$?Mid@CString@WTL@@QBE?AV12@HH@Z$0 100375d3 f   BugSplatImp.obj
 0001:000365ec       __ehhandler$?Mid@CString@WTL@@QBE?AV12@HH@Z 100375ec f   BugSplatImp.obj
 0001:00036607       __unwindfunclet$?ReduceGuidString@BugSplatImp@@QAEXPA_WK@Z$0 10037607 f   BugSplatImp.obj
 0001:00036612       __unwindfunclet$?ReduceGuidString@BugSplatImp@@QAEXPA_WK@Z$1 10037612 f   BugSplatImp.obj
 0001:0003661d       __unwindfunclet$?ReduceGuidString@BugSplatImp@@QAEXPA_WK@Z$2 1003761d f   BugSplatImp.obj
 0001:00036628       __unwindfunclet$?ReduceGuidString@BugSplatImp@@QAEXPA_WK@Z$3 10037628 f   BugSplatImp.obj
 0001:00036633       __unwindfunclet$?ReduceGuidString@BugSplatImp@@QAEXPA_WK@Z$4 10037633 f   BugSplatImp.obj
 0001:0003663e       __ehhandler$?ReduceGuidString@BugSplatImp@@QAEXPA_WK@Z 1003763e f   BugSplatImp.obj
 0001:00036666       __unwindfunclet$??$_Uninit_move@PAVCString@WTL@@PAV12@V?$allocator@VCString@WTL@@@std@@V12@@std@@YAPAVCString@WTL@@PAV12@00AAU?$_Wrap_alloc@V?$allocator@VCString@WTL@@@std@@@0@0U_Nonscalar_ptr_iterator_tag@0@@Z$2 10037666 f   mdump.obj
 0001:00036674       __ehhandler$??$_Uninit_move@PAVCString@WTL@@PAV12@V?$allocator@VCString@WTL@@@std@@V12@@std@@YAPAVCString@WTL@@PAV12@00AAU?$_Wrap_alloc@V?$allocator@VCString@WTL@@@std@@@0@0U_Nonscalar_ptr_iterator_tag@0@@Z 10037674 f   mdump.obj
 0001:0003668f       __unwindfunclet$??$construct@VCString@WTL@@V12@@?$_Wrap_alloc@V?$allocator@VCString@WTL@@@std@@@std@@QAEXPAVCString@WTL@@$$QAV23@@Z$0 1003768f f   mdump.obj
 0001:0003669d       __ehhandler$??$construct@VCString@WTL@@V12@@?$_Wrap_alloc@V?$allocator@VCString@WTL@@@std@@@std@@QAEXPAVCString@WTL@@$$QAV23@@Z 1003769d f   mdump.obj
 0001:000366b8       __unwindfunclet$??$construct@VCString@WTL@@V12@@?$allocator@VCString@WTL@@@std@@QAEXPAVCString@WTL@@$$QAV23@@Z$0 100376b8 f   mdump.obj
 0001:000366c6       __ehhandler$??$construct@VCString@WTL@@V12@@?$allocator@VCString@WTL@@@std@@QAEXPAVCString@WTL@@$$QAV23@@Z 100376c6 f   mdump.obj
 0001:000366e1       __unwindfunclet$??$construct@VCString@WTL@@V12@@?$allocator_traits@V?$allocator@VCString@WTL@@@std@@@std@@SAXAAV?$allocator@VCString@WTL@@@1@PAVCString@WTL@@$$QAV34@@Z$0 100376e1 f   mdump.obj
 0001:000366ef       __ehhandler$??$construct@VCString@WTL@@V12@@?$allocator_traits@V?$allocator@VCString@WTL@@@std@@@std@@SAXAAV?$allocator@VCString@WTL@@@1@PAVCString@WTL@@$$QAV34@@Z 100376ef f   mdump.obj
 0001:0003670a       __unwindfunclet$??0MiniDumper@@QAE@XZ$0 1003770a f   mdump.obj
 0001:00036718       __unwindfunclet$??0MiniDumper@@QAE@XZ$1 10037718 f   mdump.obj
 0001:00036726       __unwindfunclet$??0MiniDumper@@QAE@XZ$2 10037726 f   mdump.obj
 0001:00036734       __unwindfunclet$??0MiniDumper@@QAE@XZ$3 10037734 f   mdump.obj
 0001:00036742       __unwindfunclet$??0MiniDumper@@QAE@XZ$4 10037742 f   mdump.obj
 0001:00036750       __unwindfunclet$??0MiniDumper@@QAE@XZ$5 10037750 f   mdump.obj
 0001:0003675e       __unwindfunclet$??0MiniDumper@@QAE@XZ$6 1003775e f   mdump.obj
 0001:0003676c       __unwindfunclet$??0MiniDumper@@QAE@XZ$7 1003776c f   mdump.obj
 0001:0003677a       __unwindfunclet$??0MiniDumper@@QAE@XZ$8 1003777a f   mdump.obj
 0001:00036788       __unwindfunclet$??0MiniDumper@@QAE@XZ$9 10037788 f   mdump.obj
 0001:00036796       __unwindfunclet$??0MiniDumper@@QAE@XZ$10 10037796 f   mdump.obj
 0001:000367a4       __unwindfunclet$??0MiniDumper@@QAE@XZ$11 100377a4 f   mdump.obj
 0001:000367b2       __unwindfunclet$??0MiniDumper@@QAE@XZ$12 100377b2 f   mdump.obj
 0001:000367c0       __ehhandler$??0MiniDumper@@QAE@XZ 100377c0 f   mdump.obj
 0001:000367e8       __unwindfunclet$??0TotalUptimeAndCrashCalculator@@QAE@PB_W00@Z$0 100377e8 f   mdump.obj
 0001:000367f0       __unwindfunclet$??0TotalUptimeAndCrashCalculator@@QAE@PB_W00@Z$1 100377f0 f   mdump.obj
 0001:000367fb       __unwindfunclet$??0TotalUptimeAndCrashCalculator@@QAE@PB_W00@Z$2 100377fb f   mdump.obj
 0001:00036806       __unwindfunclet$??0TotalUptimeAndCrashCalculator@@QAE@PB_W00@Z$3 10037806 f   mdump.obj
 0001:00036811       __unwindfunclet$??0TotalUptimeAndCrashCalculator@@QAE@PB_W00@Z$4 10037811 f   mdump.obj
 0001:0003681c       __unwindfunclet$??0TotalUptimeAndCrashCalculator@@QAE@PB_W00@Z$5 1003781c f   mdump.obj
 0001:00036827       __unwindfunclet$??0TotalUptimeAndCrashCalculator@@QAE@PB_W00@Z$6 10037827 f   mdump.obj
 0001:0003682f       __ehhandler$??0TotalUptimeAndCrashCalculator@@QAE@PB_W00@Z 1003782f f   mdump.obj
 0001:0003684a       __unwindfunclet$??1MiniDumper@@UAE@XZ$0 1003784a f   mdump.obj
 0001:00036855       __unwindfunclet$??1MiniDumper@@UAE@XZ$1 10037855 f   mdump.obj
 0001:00036860       __unwindfunclet$??1MiniDumper@@UAE@XZ$2 10037860 f   mdump.obj
 0001:0003686b       __unwindfunclet$??1MiniDumper@@UAE@XZ$3 1003786b f   mdump.obj
 0001:00036876       __unwindfunclet$??1MiniDumper@@UAE@XZ$4 10037876 f   mdump.obj
 0001:00036881       __unwindfunclet$??1MiniDumper@@UAE@XZ$5 10037881 f   mdump.obj
 0001:0003688c       __unwindfunclet$??1MiniDumper@@UAE@XZ$6 1003788c f   mdump.obj
 0001:00036897       __unwindfunclet$??1MiniDumper@@UAE@XZ$7 10037897 f   mdump.obj
 0001:000368a2       __unwindfunclet$??1MiniDumper@@UAE@XZ$8 100378a2 f   mdump.obj
 0001:000368ad       __unwindfunclet$??1MiniDumper@@UAE@XZ$9 100378ad f   mdump.obj
 0001:000368b8       __unwindfunclet$??1MiniDumper@@UAE@XZ$10 100378b8 f   mdump.obj
 0001:000368c3       __unwindfunclet$??1MiniDumper@@UAE@XZ$11 100378c3 f   mdump.obj
 0001:000368ce       __unwindfunclet$??1MiniDumper@@UAE@XZ$12 100378ce f   mdump.obj
 0001:000368d9       __ehhandler$??1MiniDumper@@UAE@XZ 100378d9 f   mdump.obj
 0001:000368f4       __unwindfunclet$??1TotalUptimeAndCrashCalculator@@QAE@XZ$0 100378f4 f   mdump.obj
 0001:000368fc       __unwindfunclet$??1TotalUptimeAndCrashCalculator@@QAE@XZ$1 100378fc f   mdump.obj
 0001:00036907       __unwindfunclet$??1TotalUptimeAndCrashCalculator@@QAE@XZ$2 10037907 f   mdump.obj
 0001:00036912       __unwindfunclet$??1TotalUptimeAndCrashCalculator@@QAE@XZ$3 10037912 f   mdump.obj
 0001:0003691d       __unwindfunclet$??1TotalUptimeAndCrashCalculator@@QAE@XZ$4 1003791d f   mdump.obj
 0001:00036928       __unwindfunclet$??1TotalUptimeAndCrashCalculator@@QAE@XZ$5 10037928 f   mdump.obj
 0001:00036933       __ehhandler$??1TotalUptimeAndCrashCalculator@@QAE@XZ 10037933 f   mdump.obj
 0001:0003694e       __ehhandler$?AtlMessageBox@WTL@@YAHPAUHWND__@@V_U_STRINGorID@ATL@@1I@Z 1003794e f   mdump.obj
 0001:00036969       __unwindfunclet$?CreateReportThreaded@MiniDumper@@SGIPAX@Z$0 10037969 f   mdump.obj
 0001:00036974       __unwindfunclet$?CreateReportThreaded@MiniDumper@@SGIPAX@Z$1 10037974 f   mdump.obj
 0001:0003697f       __ehhandler$?CreateReportThreaded@MiniDumper@@SGIPAX@Z 1003797f f   mdump.obj
 0001:000369a7       __unwindfunclet$?ExceptionHandler@MiniDumper@@SGJPAU_EXCEPTION_POINTERS@@K@Z$0 100379a7 f   mdump.obj
 0001:000369af       __unwindfunclet$?ExceptionHandler@MiniDumper@@SGJPAU_EXCEPTION_POINTERS@@K@Z$1 100379af f   mdump.obj
 0001:000369b7       __unwindfunclet$?ExceptionHandler@MiniDumper@@SGJPAU_EXCEPTION_POINTERS@@K@Z$3 100379b7 f   mdump.obj
 0001:000369bf       __unwindfunclet$?ExceptionHandler@MiniDumper@@SGJPAU_EXCEPTION_POINTERS@@K@Z$2 100379bf f   mdump.obj
 0001:000369c7       __ehhandler$?ExceptionHandler@MiniDumper@@SGJPAU_EXCEPTION_POINTERS@@K@Z 100379c7 f   mdump.obj
 0001:000369e2       __unwindfunclet$?FormatMessageW@CString@WTL@@QAAHIZZ$0 100379e2 f   mdump.obj
 0001:000369ea       __ehhandler$?FormatMessageW@CString@WTL@@QAAHIZZ 100379ea f   mdump.obj
 0001:00036a05       __unwindfunclet$?LaunchHangDetection@MiniDumper@@QAEXXZ$0 10037a05 f   mdump.obj
 0001:00036a0d       __unwindfunclet$?LaunchHangDetection@MiniDumper@@QAEXXZ$1 10037a0d f   mdump.obj
 0001:00036a15       __ehhandler$?LaunchHangDetection@MiniDumper@@QAEXXZ 10037a15 f   mdump.obj
 0001:00036a30       __unwindfunclet$?SendReportThreaded@MiniDumper@@SGIPAX@Z$0 10037a30 f   mdump.obj
 0001:00036a38       __unwindfunclet$?SendReportThreaded@MiniDumper@@SGIPAX@Z$1 10037a38 f   mdump.obj
 0001:00036a40       __unwindfunclet$?SendReportThreaded@MiniDumper@@SGIPAX@Z$2 10037a40 f   mdump.obj
 0001:00036a48       __unwindfunclet$?SendReportThreaded@MiniDumper@@SGIPAX@Z$3 10037a48 f   mdump.obj
 0001:00036a50       __ehhandler$?SendReportThreaded@MiniDumper@@SGIPAX@Z 10037a50 f   mdump.obj
 0001:00036a6b       __ehhandler$?_Copy@?$basic_string@DU?$char_traits@D@std@@V?$allocator@D@2@@std@@QAEXII@Z 10037a6b f   mdump.obj
 0001:00036a86       __ehhandler$?_Reallocate@?$vector@VCString@WTL@@V?$allocator@VCString@WTL@@@std@@@std@@IAEXI@Z 10037a86 f   mdump.obj
 0001:00036aa1       __unwindfunclet$?capture@TotalUptimeAndCrashCalculator@@QAEX_N@Z$0 10037aa1 f   mdump.obj
 0001:00036aa9       __ehhandler$?capture@TotalUptimeAndCrashCalculator@@QAEX_N@Z 10037aa9 f   mdump.obj
 0001:00036ace       __unwindfunclet$?debugMode@@YA_NXZ$0 10037ace f   mdump.obj
 0001:00036ad6       __ehhandler$?debugMode@@YA_NXZ 10037ad6 f   mdump.obj
 0001:00036af1       __unwindfunclet$?initExceptionHandler@MiniDumper@@QAEXPB_W000K@Z$0 10037af1 f   mdump.obj
 0001:00036afb       __unwindfunclet$?initExceptionHandler@MiniDumper@@QAEXPB_W000K@Z$1 10037afb f   mdump.obj
 0001:00036b03       __ehhandler$?initExceptionHandler@MiniDumper@@QAEXPB_W000K@Z 10037b03 f   mdump.obj
 0001:00036b1e       __unwindfunclet$?logOutput@@YAXIPB_W_N@Z$0 10037b1e f   mdump.obj
 0001:00036b29       __unwindfunclet$?logOutput@@YAXIPB_W_N@Z$1 10037b29 f   mdump.obj
 0001:00036b34       __ehhandler$?logOutput@@YAXIPB_W_N@Z 10037b34 f   mdump.obj
 0001:00036b5c       __unwindfunclet$?push_back@?$vector@VCString@WTL@@V?$allocator@VCString@WTL@@@std@@@std@@QAEX$$QAVCString@WTL@@@Z$0 10037b5c f   mdump.obj
 0001:00036b6a       __unwindfunclet$?push_back@?$vector@VCString@WTL@@V?$allocator@VCString@WTL@@@std@@@std@@QAEX$$QAVCString@WTL@@@Z$1 10037b6a f   mdump.obj
 0001:00036b78       __ehhandler$?push_back@?$vector@VCString@WTL@@V?$allocator@VCString@WTL@@@std@@@std@@QAEX$$QAVCString@WTL@@@Z 10037b78 f   mdump.obj
 0001:00036b93       __unwindfunclet$?sendAdditionalFile@MiniDumper@@QAEXPB_W@Z$0 10037b93 f   mdump.obj
 0001:00036b9b       __ehhandler$?sendAdditionalFile@MiniDumper@@QAEXPB_W@Z 10037b9b f   mdump.obj
 0001:00036bb6       __unwindfunclet$??0MiniDmpSender@@QAE@PB_W000K@Z$0 10037bb6 f   sbSender.obj
 0001:00036bc0       __ehhandler$??0MiniDmpSender@@QAE@PB_W000K@Z 10037bc0 f   sbSender.obj
 0001:00036bdb       __unwindfunclet$??1CExpansionVector@ATL@@QAE@XZ$0 10037bdb f   sbSenderApp.obj
 0001:00036be3       __ehhandler$??1CExpansionVector@ATL@@QAE@XZ 10037be3 f   sbSenderApp.obj
 0001:00036bfe       __unwindfunclet$??1CRegObject@ATL@@UAE@XZ$0 10037bfe f   sbSenderApp.obj
 0001:00036c09       __unwindfunclet$??1CRegObject@ATL@@UAE@XZ$1 10037c09 f   sbSenderApp.obj
 0001:00036c14       __unwindfunclet$??1CRegObject@ATL@@UAE@XZ$2 10037c14 f   sbSenderApp.obj
 0001:00036c1c       __ehhandler$??1CRegObject@ATL@@UAE@XZ 10037c1c f   sbSenderApp.obj
 0001:00036c37       __unwindfunclet$?Add@CExpansionVector@ATL@@QAEHPB_W0@Z$0 10037c37 f   sbSenderApp.obj
 0001:00036c3f       __unwindfunclet$?Add@CExpansionVector@ATL@@QAEHPB_W0@Z$1 10037c3f f   sbSenderApp.obj
 0001:00036c47       __ehhandler$?Add@CExpansionVector@ATL@@QAEHPB_W0@Z 10037c47 f   sbSenderApp.obj
 0001:00036c62       __unwindfunclet$?AddReplacement@CRegObject@ATL@@UAGJPB_W0@Z$0 10037c62 f   sbSenderApp.obj
 0001:00036c6a       __ehhandler$?AddReplacement@CRegObject@ATL@@UAGJPB_W0@Z 10037c6a f   sbSenderApp.obj
 0001:00036c85       __unwindfunclet$?AddString@CParseBuffer@CRegParser@ATL@@QAEHPB_W@Z$0 10037c85 f   sbSenderApp.obj
 0001:00036c8d       __ehhandler$?AddString@CParseBuffer@CRegParser@ATL@@QAEHPB_W@Z 10037c8d f   sbSenderApp.obj
 0001:00036ca8       __unwindfunclet$?AddValue@CRegParser@ATL@@IAEJAAVCRegKey@2@PB_WPA_W@Z$4 10037ca8 f   sbSenderApp.obj
 0001:00036cb3       __unwindfunclet$?AddValue@CRegParser@ATL@@IAEJAAVCRegKey@2@PB_WPA_W@Z$6 10037cb3 f   sbSenderApp.obj
 0001:00036cbe       __ehhandler$?AddValue@CRegParser@ATL@@IAEJAAVCRegKey@2@PB_WPA_W@Z 10037cbe f   sbSenderApp.obj
 0001:00036ce6       __ehhandler$?Init@CAppModule@WTL@@QAEJPAU_ATL_OBJMAP_ENTRY30@ATL@@PAUHINSTANCE__@@PBU_GUID@@@Z 10037ce6 f   sbSenderApp.obj
 0001:00036d01       __unwindfunclet$?PreProcessBuffer@CRegParser@ATL@@QAEJPA_WPAPA_W@Z$0 10037d01 f   sbSenderApp.obj
 0001:00036d09       __ehhandler$?PreProcessBuffer@CRegParser@ATL@@QAEJPA_WPAPA_W@Z 10037d09 f   sbSenderApp.obj
 0001:00036d2e       __unwindfunclet$?RegisterFromResource@CRegObject@ATL@@IAEJPB_W00H@Z$8 10037d2e f   sbSenderApp.obj
 0001:00036d39       __unwindfunclet$?RegisterFromResource@CRegObject@ATL@@IAEJPB_W00H@Z$9 10037d39 f   sbSenderApp.obj
 0001:00036d44       __ehhandler$?RegisterFromResource@CRegObject@ATL@@IAEJPB_W00H@Z 10037d44 f   sbSenderApp.obj
 0001:00036d6c       __unwindfunclet$?RegisterSubkeys@CRegParser@ATL@@IAEJPA_WPAUHKEY__@@HH@Z$2 10037d6c f   sbSenderApp.obj
 0001:00036d77       __unwindfunclet$?RegisterSubkeys@CRegParser@ATL@@IAEJPA_WPAUHKEY__@@HH@Z$4 10037d77 f   sbSenderApp.obj
 0001:00036d82       __ehhandler$?RegisterSubkeys@CRegParser@ATL@@IAEJPA_WPAUHKEY__@@HH@Z 10037d82 f   sbSenderApp.obj
 0001:00036daa       __unwindfunclet$?ResourceRegister@CRegObject@ATL@@QAGJPB_WI0@Z$0 10037daa f   sbSenderApp.obj
 0001:00036db2       __ehhandler$?ResourceRegister@CRegObject@ATL@@QAGJPB_WI0@Z 10037db2 f   sbSenderApp.obj
 0001:00036dcd       __unwindfunclet$?ResourceRegisterSz@CRegObject@ATL@@QAGJPB_W00@Z$0 10037dcd f   sbSenderApp.obj
 0001:00036dd5       __ehhandler$?ResourceRegisterSz@CRegObject@ATL@@QAGJPB_W00@Z 10037dd5 f   sbSenderApp.obj
 0001:00036df0       __unwindfunclet$?ResourceUnregister@CRegObject@ATL@@QAGJPB_WI0@Z$0 10037df0 f   sbSenderApp.obj
 0001:00036df8       __ehhandler$?ResourceUnregister@CRegObject@ATL@@QAGJPB_WI0@Z 10037df8 f   sbSenderApp.obj
 0001:00036e13       __unwindfunclet$?ResourceUnregisterSz@CRegObject@ATL@@QAGJPB_W00@Z$0 10037e13 f   sbSenderApp.obj
 0001:00036e1b       __ehhandler$?ResourceUnregisterSz@CRegObject@ATL@@QAGJPB_W00@Z 10037e1b f   sbSenderApp.obj
 0001:00036e36       __ehhandler$?CallUnexpected@@YAXPBU_s_ESTypeList@@@Z 10037e36 f   LIBCMT:frame.obj
 0001:00036e51       __ehhandler$??2@YAPAXIABUnothrow_t@std@@@Z 10037e51 f   LIBCMT:newopnt.obj
 0001:00036e6c       ??__F?_Generic_object@?$_Error_objects@H@std@@2V_Generic_error_category@2@A@@YAXXZ 10037e6c f   mdump.obj
 0001:00036e77       ??__F?_Iostream_object@?$_Error_objects@H@std@@2V_Iostream_error_category@2@A@@YAXXZ 10037e77 f   mdump.obj
 0001:00036e82       ??__F?_System_object@?$_Error_objects@H@std@@2V_System_error_category@2@A@@YAXXZ 10037e82 f   mdump.obj
 0001:00036e8d       ??__FstrApp@?DA@??SendReportThreaded@MiniDumper@@SGIPAX@Z@YAXXZ 10037e8d f   mdump.obj
 0001:00036e97       ??__F?_Generic_object@?$_Error_objects@H@std@@2V_Generic_error_category@2@A@@YAXXZ 10037e97 f   sbSender.obj
 0001:00036ea2       ??__F?_Iostream_object@?$_Error_objects@H@std@@2V_Iostream_error_category@2@A@@YAXXZ 10037ea2 f   sbSender.obj
 0001:00036ead       ??__F?_System_object@?$_Error_objects@H@std@@2V_System_error_category@2@A@@YAXXZ 10037ead f   sbSender.obj
 0001:00036eb8       ??__F_AtlComModule@ATL@@YAXXZ 10037eb8 f   sbSenderApp.obj
 0001:00036ec2       ??__F_Module@@YAXXZ        10037ec2 f   sbSenderApp.obj
 0001:00036ed6       ??__F_AtlComModule@ATL@@YAXXZ 10037ed6 f   StdAfx.obj
 0001:00036ee0       ??__F_AtlWinModule@ATL@@YAXXZ 10037ee0 f   StdAfx.obj
 0001:00036efa       ??__F_AtlBaseModule@ATL@@YAXXZ 10037efa f   atls:atlbase.obj
 0001:00036f04       ??__F?_Generic_object@?$_Error_objects@H@std@@2V_Generic_error_category@2@A@@YAXXZ 10037f04 f   libcpmt:xthrow.obj
 0001:00036f0f       ??__F?_Iostream_object@?$_Error_objects@H@std@@2V_Iostream_error_category@2@A@@YAXXZ 10037f0f f   libcpmt:xthrow.obj
 0001:00036f1a       ??__F?_System_object@?$_Error_objects@H@std@@2V_System_error_category@2@A@@YAXXZ 10037f1a f   libcpmt:xthrow.obj
 0001:00036f25       ??__F?_Generic_object@?$_Error_objects@H@std@@2V_Generic_error_category@2@A@@YAXXZ 10037f25 f   libcpmt:syserror.obj
 0001:00036f30       ??__F?_Iostream_object@?$_Error_objects@H@std@@2V_Iostream_error_category@2@A@@YAXXZ 10037f30 f   libcpmt:syserror.obj
 0001:00036f3b       ??__F?_System_object@?$_Error_objects@H@std@@2V_System_error_category@2@A@@YAXXZ 10037f3b f   libcpmt:syserror.obj
 0002:0000027c       __AtlBaseModule$initializer$ 1003827c     atls:atlbase.obj
 0002:00000280       ?m_imp$initializer$@MiniDumper@@1P6AXXZA 10038280     mdump.obj
 0002:00000284       ?_Generic_object$initializer$@?$_Error_objects@H@std@@2P6AXXZA 10038284     mdump.obj
 0002:00000288       ?_Iostream_object$initializer$@?$_Error_objects@H@std@@2P6AXXZA 10038288     mdump.obj
 0002:0000028c       ?_System_object$initializer$@?$_Error_objects@H@std@@2P6AXXZA 1003828c     mdump.obj
 0002:00000290       __AtlComModule$initializer$ 10038290     sbSenderApp.obj
 0002:00000294       __Module$initializer$      10038294     sbSenderApp.obj
 0002:00000298       __AtlWinModule$initializer$ 10038298     StdAfx.obj
 0002:000002a4       _pinit                     100382a4     LIBCMT:onexit.obj
 0002:000002a8       _pinit                     100382a8     LIBCMT:mbctype.obj
 0002:000002ac       _pinit                     100382ac     LIBCMT:cpu_disp.obj
 0002:000002b0       _pinit                     100382b0     LIBCMT:_file.obj
 0002:000002bc       _pterm                     100382bc     LIBCMT:wsetloca.obj
 0002:000002c0       _pterm                     100382c0     LIBCMT:initcon.obj
 0002:000002c4       _pterm                     100382c4     LIBCMT:_file.obj
 0002:00000858       ?PatchBytes@?BE@??initExceptionHandler@MiniDumper@@QAEXPB_W000K@Z@4QBEB 10038858     mdump.obj
 0002:00002008       ?ExceptionTemplate@?1??_CxxThrowException@@9@8@4UEHExceptionRecord@@B 1003a008     LIBCMT:throw.obj
 0002:000020bc       _GS_ExceptionPointers      1003a0bc     LIBCMT:gs_report.obj
 0002:00002390       _rterrs                    1003a390     LIBCMT:crt0msg.obj
 0002:00002e24       __mb_locale_names          1003ae24     LIBCMT:mbctype.obj
 0002:00003228       ?ccsField@?P@??_wopenfile@@9@9 1003b228     LIBCMT:_wopen.obj
 0002:00003230       ?utf8encoding@?P@??_wopenfile@@9@9 1003b230     LIBCMT:_wopen.obj
 0002:0000323c       ?utf16encoding@?P@??_wopenfile@@9@9 1003b23c     LIBCMT:_wopen.obj
 0002:00003250       ?unicodeencoding@?P@??_wopenfile@@9@9 1003b250     LIBCMT:_wopen.obj
 0002:00005588       _tokenTable                1003d588     LIBCMT:undname.obj
 0002:000055c0       _nameTable                 1003d5c0     LIBCMT:undname.obj
 0002:00005700       _rttiTable                 1003d700     LIBCMT:undname.obj
 0002:00006168       __first_127char            1003e168     LIBCMT:wsetloca.obj
 0002:00006a44       One                        1003ea44     LIBCMT:87disp.obj
 0002:00006a4c       XAMtoTagTab                1003ea4c     LIBCMT:87disp.obj
 0002:00006a60       One                        1003ea60     LIBCMT:common.obj
 0002:00006a74       DblMax                     1003ea74     LIBCMT:common.obj
 0002:00006a7c       DblMin                     1003ea7c     LIBCMT:common.obj
 0002:00006a84       IeeeAdjO                   1003ea84     LIBCMT:common.obj
 0002:00006a8c       IeeeAdjU                   1003ea8c     LIBCMT:common.obj
 0002:00006a94       _infinity                  1003ea94     LIBCMT:common.obj
 0002:00006a9c       _zero                      1003ea9c     LIBCMT:common.obj
 0002:00008358       __Win_errtab               10040358     libcpmt:syserror.obj
 0002:000085b0       __Sys_errtab               100405b0     libcpmt:syserror.obj
 0002:00009c70       __unwindtable$??HWTL@@YG?AVCString@0@ABV10@0@Z 10041c70     BugSplatImp.obj
 0002:00009c78       __ehfuncinfo$??HWTL@@YG?AVCString@0@ABV10@0@Z 10041c78     BugSplatImp.obj
 0002:00009c9c       __unwindtable$?Mid@CString@WTL@@QBE?AV12@HH@Z 10041c9c     BugSplatImp.obj
 0002:00009ca4       __ehfuncinfo$?Mid@CString@WTL@@QBE?AV12@HH@Z 10041ca4     BugSplatImp.obj
 0002:00009cc8       __unwindtable$?Left@CString@WTL@@QBE?AV12@H@Z 10041cc8     BugSplatImp.obj
 0002:00009cd0       __ehfuncinfo$?Left@CString@WTL@@QBE?AV12@H@Z 10041cd0     BugSplatImp.obj
 0002:00009cf4       __catchsym$?AllocBuffer@CString@WTL@@IAEHH@Z$2 10041cf4     BugSplatImp.obj
 0002:00009d04       __unwindtable$?AllocBuffer@CString@WTL@@IAEHH@Z 10041d04     BugSplatImp.obj
 0002:00009d14       __tryblocktable$?AllocBuffer@CString@WTL@@IAEHH@Z 10041d14     BugSplatImp.obj
 0002:00009d28       __ehfuncinfo$?AllocBuffer@CString@WTL@@IAEHH@Z 10041d28     BugSplatImp.obj
 0002:00009d4c       __unwindtable$?CreateMiniDump@BugSplatImp@@QAEHPAUHINSTANCE__@@KPAXKPAU_EXCEPTION_POINTERS@@PB_WPA_WK@Z 10041d4c     BugSplatImp.obj
 0002:00009d54       __ehfuncinfo$?CreateMiniDump@BugSplatImp@@QAEHPAUHINSTANCE__@@KPAXKPAU_EXCEPTION_POINTERS@@PB_WPA_WK@Z 10041d54     BugSplatImp.obj
 0002:00009d78       __unwindtable$?GetReducedGuid@BugSplatImp@@QAEXPA_WK@Z 10041d78     BugSplatImp.obj
 0002:00009d80       __ehfuncinfo$?GetReducedGuid@BugSplatImp@@QAEXPA_WK@Z 10041d80     BugSplatImp.obj
 0002:00009da4       __ehfuncinfo$?ReduceGuidString@BugSplatImp@@QAEXPA_WK@Z 10041da4     BugSplatImp.obj
 0002:00009dc8       __unwindtable$?ReduceGuidString@BugSplatImp@@QAEXPA_WK@Z 10041dc8     BugSplatImp.obj
 0002:00009df0       __sehtable$?CalculateBeginningOfCallInstruction@@YAHAAI@Z 10041df0     BugSplatImp.obj
 0002:00009e40       __catchsym$?AtlMessageBox@WTL@@YAHPAUHWND__@@V_U_STRINGorID@ATL@@1I@Z$5 10041e40     mdump.obj
 0002:00009e50       __catchsym$?AtlMessageBox@WTL@@YAHPAUHWND__@@V_U_STRINGorID@ATL@@1I@Z$4 10041e50     mdump.obj
 0002:00009e60       __unwindtable$?AtlMessageBox@WTL@@YAHPAUHWND__@@V_U_STRINGorID@ATL@@1I@Z 10041e60     mdump.obj
 0002:00009e80       __ehfuncinfo$?AtlMessageBox@WTL@@YAHPAUHWND__@@V_U_STRINGorID@ATL@@1I@Z 10041e80     mdump.obj
 0002:00009ea4       __tryblocktable$?AtlMessageBox@WTL@@YAHPAUHWND__@@V_U_STRINGorID@ATL@@1I@Z 10041ea4     mdump.obj
 0002:00009ecc       __unwindtable$?FormatMessageW@CString@WTL@@QAAHIZZ 10041ecc     mdump.obj
 0002:00009ed4       __ehfuncinfo$?FormatMessageW@CString@WTL@@QAAHIZZ 10041ed4     mdump.obj
 0002:00009ef8       __catchsym$?_Copy@?$basic_string@DU?$char_traits@D@std@@V?$allocator@D@2@@std@@QAEXII@Z$5 10041ef8     mdump.obj
 0002:00009f08       __catchsym$?_Copy@?$basic_string@DU?$char_traits@D@std@@V?$allocator@D@2@@std@@QAEXII@Z$4 10041f08     mdump.obj
 0002:00009f18       __unwindtable$?_Copy@?$basic_string@DU?$char_traits@D@std@@V?$allocator@D@2@@std@@QAEXII@Z 10041f18     mdump.obj
 0002:00009f38       __ehfuncinfo$?_Copy@?$basic_string@DU?$char_traits@D@std@@V?$allocator@D@2@@std@@QAEXII@Z 10041f38     mdump.obj
 0002:00009f5c       __tryblocktable$?_Copy@?$basic_string@DU?$char_traits@D@std@@V?$allocator@D@2@@std@@QAEXII@Z 10041f5c     mdump.obj
 0002:00009f84       __ehfuncinfo$??0TotalUptimeAndCrashCalculator@@QAE@PB_W00@Z 10041f84     mdump.obj
 0002:00009fa8       __unwindtable$??0TotalUptimeAndCrashCalculator@@QAE@PB_W00@Z 10041fa8     mdump.obj
 0002:00009fe0       __ehfuncinfo$??1TotalUptimeAndCrashCalculator@@QAE@XZ 10041fe0     mdump.obj
 0002:0000a004       __unwindtable$??1TotalUptimeAndCrashCalculator@@QAE@XZ 10042004     mdump.obj
 0002:0000a034       __unwindtable$?capture@TotalUptimeAndCrashCalculator@@QAEX_N@Z 10042034     mdump.obj
 0002:0000a03c       __ehfuncinfo$?capture@TotalUptimeAndCrashCalculator@@QAEX_N@Z 1004203c     mdump.obj
 0002:0000a060       __ehfuncinfo$??0MiniDumper@@QAE@XZ 10042060     mdump.obj
 0002:0000a084       __unwindtable$??0MiniDumper@@QAE@XZ 10042084     mdump.obj
 0002:0000a0ec       __ehfuncinfo$??1MiniDumper@@UAE@XZ 100420ec     mdump.obj
 0002:0000a110       __unwindtable$??1MiniDumper@@UAE@XZ 10042110     mdump.obj
 0002:0000a178       __unwindtable$?initExceptionHandler@MiniDumper@@QAEXPB_W000K@Z 10042178     mdump.obj
 0002:0000a188       __ehfuncinfo$?initExceptionHandler@MiniDumper@@QAEXPB_W000K@Z 10042188     mdump.obj
 0002:0000a1ac       __unwindtable$?sendAdditionalFile@MiniDumper@@QAEXPB_W@Z 100421ac     mdump.obj
 0002:0000a1b4       __ehfuncinfo$?sendAdditionalFile@MiniDumper@@QAEXPB_W@Z 100421b4     mdump.obj
 0002:0000a1d8       __unwindtable$?ExceptionHandler@MiniDumper@@SGJPAU_EXCEPTION_POINTERS@@K@Z 100421d8     mdump.obj
 0002:0000a1f8       __ehfuncinfo$?ExceptionHandler@MiniDumper@@SGJPAU_EXCEPTION_POINTERS@@K@Z 100421f8     mdump.obj
 0002:0000a21c       __unwindtable$?CreateReportThreaded@MiniDumper@@SGIPAX@Z 1004221c     mdump.obj
 0002:0000a22c       __ehfuncinfo$?CreateReportThreaded@MiniDumper@@SGIPAX@Z 1004222c     mdump.obj
 0002:0000a250       __unwindtable$?SendReportThreaded@MiniDumper@@SGIPAX@Z 10042250     mdump.obj
 0002:0000a270       __ehfuncinfo$?SendReportThreaded@MiniDumper@@SGIPAX@Z 10042270     mdump.obj
 0002:0000a294       __unwindtable$?LaunchHangDetection@MiniDumper@@QAEXXZ 10042294     mdump.obj
 0002:0000a2a4       __ehfuncinfo$?LaunchHangDetection@MiniDumper@@QAEXXZ 100422a4     mdump.obj
 0002:0000a2c8       __unwindtable$?push_back@?$vector@VCString@WTL@@V?$allocator@VCString@WTL@@@std@@@std@@QAEX$$QAVCString@WTL@@@Z 100422c8     mdump.obj
 0002:0000a2d8       __ehfuncinfo$?push_back@?$vector@VCString@WTL@@V?$allocator@VCString@WTL@@@std@@@std@@QAEX$$QAVCString@WTL@@@Z 100422d8     mdump.obj
 0002:0000a2fc       __catchsym$?_Reallocate@?$vector@VCString@WTL@@V?$allocator@VCString@WTL@@@std@@@std@@IAEXI@Z$2 100422fc     mdump.obj
 0002:0000a30c       __unwindtable$?_Reallocate@?$vector@VCString@WTL@@V?$allocator@VCString@WTL@@@std@@@std@@IAEXI@Z 1004230c     mdump.obj
 0002:0000a31c       __tryblocktable$?_Reallocate@?$vector@VCString@WTL@@V?$allocator@VCString@WTL@@@std@@@std@@IAEXI@Z 1004231c     mdump.obj
 0002:0000a330       __ehfuncinfo$?_Reallocate@?$vector@VCString@WTL@@V?$allocator@VCString@WTL@@@std@@@std@@IAEXI@Z 10042330     mdump.obj
 0002:0000a354       __unwindtable$?logOutput@@YAXIPB_W_N@Z 10042354     mdump.obj
 0002:0000a364       __ehfuncinfo$?logOutput@@YAXIPB_W_N@Z 10042364     mdump.obj
 0002:0000a388       __unwindtable$?debugMode@@YA_NXZ 10042388     mdump.obj
 0002:0000a390       __ehfuncinfo$?debugMode@@YA_NXZ 10042390     mdump.obj
 0002:0000a3b4       __unwindtable$??$construct@VCString@WTL@@V12@@?$_Wrap_alloc@V?$allocator@VCString@WTL@@@std@@@std@@QAEXPAVCString@WTL@@$$QAV23@@Z 100423b4     mdump.obj
 0002:0000a3bc       __ehfuncinfo$??$construct@VCString@WTL@@V12@@?$_Wrap_alloc@V?$allocator@VCString@WTL@@@std@@@std@@QAEXPAVCString@WTL@@$$QAV23@@Z 100423bc     mdump.obj
 0002:0000a3e0       __unwindtable$??$construct@VCString@WTL@@V12@@?$allocator_traits@V?$allocator@VCString@WTL@@@std@@@std@@SAXAAV?$allocator@VCString@WTL@@@1@PAVCString@WTL@@$$QAV34@@Z 100423e0     mdump.obj
 0002:0000a3e8       __ehfuncinfo$??$construct@VCString@WTL@@V12@@?$allocator_traits@V?$allocator@VCString@WTL@@@std@@@std@@SAXAAV?$allocator@VCString@WTL@@@1@PAVCString@WTL@@$$QAV34@@Z 100423e8     mdump.obj
 0002:0000a40c       __unwindtable$??$construct@VCString@WTL@@V12@@?$allocator@VCString@WTL@@@std@@QAEXPAVCString@WTL@@$$QAV23@@Z 1004240c     mdump.obj
 0002:0000a414       __ehfuncinfo$??$construct@VCString@WTL@@V12@@?$allocator@VCString@WTL@@@std@@QAEXPAVCString@WTL@@$$QAV23@@Z 10042414     mdump.obj
 0002:0000a438       __catchsym$??$_Uninit_move@PAVCString@WTL@@PAV12@V?$allocator@VCString@WTL@@@std@@V12@@std@@YAPAVCString@WTL@@PAV12@00AAU?$_Wrap_alloc@V?$allocator@VCString@WTL@@@std@@@0@0U_Nonscalar_ptr_iterator_tag@0@@Z$3 10042438     mdump.obj
 0002:0000a448       __tryblocktable$??$_Uninit_move@PAVCString@WTL@@PAV12@V?$allocator@VCString@WTL@@@std@@V12@@std@@YAPAVCString@WTL@@PAV12@00AAU?$_Wrap_alloc@V?$allocator@VCString@WTL@@@std@@@0@0U_Nonscalar_ptr_iterator_tag@0@@Z 10042448     mdump.obj
 0002:0000a45c       __unwindtable$??$_Uninit_move@PAVCString@WTL@@PAV12@V?$allocator@VCString@WTL@@@std@@V12@@std@@YAPAVCString@WTL@@PAV12@00AAU?$_Wrap_alloc@V?$allocator@VCString@WTL@@@std@@@0@0U_Nonscalar_ptr_iterator_tag@0@@Z 1004245c     mdump.obj
 0002:0000a474       __ehfuncinfo$??$_Uninit_move@PAVCString@WTL@@PAV12@V?$allocator@VCString@WTL@@@std@@V12@@std@@YAPAVCString@WTL@@PAV12@00AAU?$_Wrap_alloc@V?$allocator@VCString@WTL@@@std@@@0@0U_Nonscalar_ptr_iterator_tag@0@@Z 10042474     mdump.obj
 0002:0000a498       __unwindtable$??0MiniDmpSender@@QAE@PB_W000K@Z 10042498     sbSender.obj
 0002:0000a4a0       __ehfuncinfo$??0MiniDmpSender@@QAE@PB_W000K@Z 100424a0     sbSender.obj
 0002:0000a4c4       __unwindtable$??1CExpansionVector@ATL@@QAE@XZ 100424c4     sbSenderApp.obj
 0002:0000a4cc       __ehfuncinfo$??1CExpansionVector@ATL@@QAE@XZ 100424cc     sbSenderApp.obj
 0002:0000a4f0       __unwindtable$?Add@CExpansionVector@ATL@@QAEHPB_W0@Z 100424f0     sbSenderApp.obj
 0002:0000a500       __ehfuncinfo$?Add@CExpansionVector@ATL@@QAEHPB_W0@Z 10042500     sbSenderApp.obj
 0002:0000a524       __unwindtable$?PreProcessBuffer@CRegParser@ATL@@QAEJPA_WPAPA_W@Z 10042524     sbSenderApp.obj
 0002:0000a52c       __ehfuncinfo$?PreProcessBuffer@CRegParser@ATL@@QAEJPA_WPAPA_W@Z 1004252c     sbSenderApp.obj
 0002:0000a550       __catchsym$?AddValue@CRegParser@ATL@@IAEJAAVCRegKey@2@PB_WPA_W@Z$8 10042550     sbSenderApp.obj
 0002:0000a560       __catchsym$?AddValue@CRegParser@ATL@@IAEJAAVCRegKey@2@PB_WPA_W@Z$7 10042560     sbSenderApp.obj
 0002:0000a570       __ehfuncinfo$?AddValue@CRegParser@ATL@@IAEJAAVCRegKey@2@PB_WPA_W@Z 10042570     sbSenderApp.obj
 0002:0000a594       __tryblocktable$?AddValue@CRegParser@ATL@@IAEJAAVCRegKey@2@PB_WPA_W@Z 10042594     sbSenderApp.obj
 0002:0000a5bc       __unwindtable$?AddValue@CRegParser@ATL@@IAEJAAVCRegKey@2@PB_WPA_W@Z 100425bc     sbSenderApp.obj
 0002:0000a5ec       __unwindtable$?RegisterSubkeys@CRegParser@ATL@@IAEJPA_WPAUHKEY__@@HH@Z 100425ec     sbSenderApp.obj
 0002:0000a5fc       __ehfuncinfo$?RegisterSubkeys@CRegParser@ATL@@IAEJPA_WPAUHKEY__@@HH@Z 100425fc     sbSenderApp.obj
 0002:0000a620       __unwindtable$?AddString@CParseBuffer@CRegParser@ATL@@QAEHPB_W@Z 10042620     sbSenderApp.obj
 0002:0000a628       __ehfuncinfo$?AddString@CParseBuffer@CRegParser@ATL@@QAEHPB_W@Z 10042628     sbSenderApp.obj
 0002:0000a64c       __unwindtable$??1CRegObject@ATL@@UAE@XZ 1004264c     sbSenderApp.obj
 0002:0000a664       __ehfuncinfo$??1CRegObject@ATL@@UAE@XZ 10042664     sbSenderApp.obj
 0002:0000a688       __unwindtable$?AddReplacement@CRegObject@ATL@@UAGJPB_W0@Z 10042688     sbSenderApp.obj
 0002:0000a690       __ehfuncinfo$?AddReplacement@CRegObject@ATL@@UAGJPB_W0@Z 10042690     sbSenderApp.obj
 0002:0000a6b4       __unwindtable$?ResourceRegister@CRegObject@ATL@@QAGJPB_WI0@Z 100426b4     sbSenderApp.obj
 0002:0000a6bc       __ehfuncinfo$?ResourceRegister@CRegObject@ATL@@QAGJPB_WI0@Z 100426bc     sbSenderApp.obj
 0002:0000a6e0       __unwindtable$?ResourceRegisterSz@CRegObject@ATL@@QAGJPB_W00@Z 100426e0     sbSenderApp.obj
 0002:0000a6e8       __ehfuncinfo$?ResourceRegisterSz@CRegObject@ATL@@QAGJPB_W00@Z 100426e8     sbSenderApp.obj
 0002:0000a70c       __unwindtable$?ResourceUnregister@CRegObject@ATL@@QAGJPB_WI0@Z 1004270c     sbSenderApp.obj
 0002:0000a714       __ehfuncinfo$?ResourceUnregister@CRegObject@ATL@@QAGJPB_WI0@Z 10042714     sbSenderApp.obj
 0002:0000a738       __unwindtable$?ResourceUnregisterSz@CRegObject@ATL@@QAGJPB_W00@Z 10042738     sbSenderApp.obj
 0002:0000a740       __ehfuncinfo$?ResourceUnregisterSz@CRegObject@ATL@@QAGJPB_W00@Z 10042740     sbSenderApp.obj
 0002:0000a764       __catchsym$?RegisterFromResource@CRegObject@ATL@@IAEJPB_W00H@Z$10 10042764     sbSenderApp.obj
 0002:0000a774       __tryblocktable$?RegisterFromResource@CRegObject@ATL@@IAEJPB_W00H@Z 10042774     sbSenderApp.obj
 0002:0000a788       __unwindtable$?RegisterFromResource@CRegObject@ATL@@IAEJPB_W00H@Z 10042788     sbSenderApp.obj
 0002:0000a7a8       __ehfuncinfo$?RegisterFromResource@CRegObject@ATL@@IAEJPB_W00H@Z 100427a8     sbSenderApp.obj
 0002:0000a7cc       __catchsym$?Init@CAppModule@WTL@@QAEJPAU_ATL_OBJMAP_ENTRY30@ATL@@PAUHINSTANCE__@@PBU_GUID@@@Z$3 100427cc     sbSenderApp.obj
 0002:0000a7dc       __unwindtable$?Init@CAppModule@WTL@@QAEJPAU_ATL_OBJMAP_ENTRY30@ATL@@PAUHINSTANCE__@@PBU_GUID@@@Z 100427dc     sbSenderApp.obj
 0002:0000a7ec       __tryblocktable$?Init@CAppModule@WTL@@QAEJPAU_ATL_OBJMAP_ENTRY30@ATL@@PAUHINSTANCE__@@PBU_GUID@@@Z 100427ec     sbSenderApp.obj
 0002:0000a800       __ehfuncinfo$?Init@CAppModule@WTL@@QAEJPAU_ATL_OBJMAP_ENTRY30@ATL@@PAUHINSTANCE__@@PBU_GUID@@@Z 10042800     sbSenderApp.obj
 0002:0000a858       __sehtable$??_M@YGXPAXIHP6EX0@Z@Z 10042858     LIBCMT:ehvecdtr.obj
 0002:0000a878       __sehtable$?__ArrayUnwind@@YGXPAXIHP6EX0@Z@Z 10042878     LIBCMT:ehvecdtr.obj
 0002:0000a898       __sehtable$_doexit         10042898     LIBCMT:crt0dat.obj
 0002:0000a908       __sehtable$__onexit        10042908     LIBCMT:onexit.obj
 0002:0000a928       __sehtable$_fwprintf       10042928     LIBCMT:fwprintf.obj
 0002:0000a948       __sehtable$_wprintf        10042948     LIBCMT:wprintf.obj
 0002:0000a968       __sehtable$__wfsopen       10042968     LIBCMT:wfopen.obj
 0002:0000a988       __sehtable$_fclose         10042988     LIBCMT:fclose.obj
 0002:0000a9a8       __sehtable$__callthreadstartex 100429a8     LIBCMT:threadex.obj
 0002:0000a9c8       __sehtable$_signal         100429c8     LIBCMT:winsig.obj
 0002:0000a9e8       __sehtable$_raise          100429e8     LIBCMT:winsig.obj
 0002:0000aa08       __sehtable$_ctrlevent_capture@4 10042a08     LIBCMT:winsig.obj
 0002:0000aa28       __sehtable$__CRT_INIT@12   10042a28     LIBCMT:dllcrt0.obj
 0002:0000aa48       __sehtable$___DllMainCRTStartup 10042a48     LIBCMT:dllcrt0.obj
 0002:0000aa68       __sehtable$?terminate@@YAXXZ 10042a68     LIBCMT:hooks.obj
 0002:0000aa88       __sehtable$?_inconsistency@@YAXXZ 10042a88     LIBCMT:hooks.obj
 0002:0000aaa8       __sehtable$__mtinitlocknum 10042aa8     LIBCMT:mlock.obj
 0002:0000aac8       __sehtable$__IsNonwritableInCurrentImage 10042ac8     LIBCMT:pesect.obj
 0002:0000aae8       __sehtable$___updatetmbcinfo 10042ae8     LIBCMT:mbctype.obj
 0002:0000ab08       __sehtable$__setmbcp       10042b08     LIBCMT:mbctype.obj
 0002:0000ab28       __sehtable$__freefls@4     10042b28     LIBCMT:tidtable.obj
 0002:0000ab50       __sehtable$__initptd       10042b50     LIBCMT:tidtable.obj
 0002:0000ab78       __sehtable$___FrameUnwindToState 10042b78     LIBCMT:frame.obj
 0002:0000aba0       __sehtable$?CallCatchBlock@@YAPAXPAUEHExceptionRecord@@PAUEHRegistrationNode@@PAU_CONTEXT@@PBU_s_FuncInfo@@PAXHK@Z 10042ba0     LIBCMT:frame.obj
 0002:0000abc8       __sehtable$___BuildCatchObject 10042bc8     LIBCMT:frame.obj
 0002:0000abe8       __sehtable$___DestructExceptionObject 10042be8     LIBCMT:frame.obj
 0002:0000ac04       __catchsym$?CallUnexpected@@YAXPBU_s_ESTypeList@@@Z$2 10042c04     LIBCMT:frame.obj
 0002:0000ac14       __unwindtable$?CallUnexpected@@YAXPBU_s_ESTypeList@@@Z 10042c14     LIBCMT:frame.obj
 0002:0000ac24       __tryblocktable$?CallUnexpected@@YAXPBU_s_ESTypeList@@@Z 10042c24     LIBCMT:frame.obj
 0002:0000ac38       __ehfuncinfo$?CallUnexpected@@YAXPBU_s_ESTypeList@@@Z 10042c38     LIBCMT:frame.obj
 0002:0000ac60       __sehtable$___BuildCatchObjectHelper 10042c60     LIBCMT:frame.obj
 0002:0000acb8       __sehtable$?_Name_base@type_info@@CAPBDPBV1@PAU__type_info_node@@@Z 10042cb8     LIBCMT:typname.obj
 0002:0000acd8       __sehtable$?_Type_info_dtor@type_info@@CAXPAV1@@Z 10042cd8     LIBCMT:typname.obj
 0002:0000acf8       __sehtable$?_Name_base_internal@type_info@@CAPBDPBV1@PAU__type_info_node@@@Z 10042cf8     LIBCMT:typname.obj
 0002:0000ad18       __sehtable$?_Type_info_dtor_internal@type_info@@CAXPAV1@@Z 10042d18     LIBCMT:typname.obj
 0002:0000ad38       __sehtable$___clean_type_info_names_internal 10042d38     LIBCMT:typname.obj
 0002:0000ad58       __sehtable$___updatetlocinfo 10042d58     LIBCMT:localref.obj
 0002:0000ad78       __sehtable$_vfwprintf_helper 10042d78     LIBCMT:vfwprint.obj
 0002:0000ad98       __sehtable$_vwprintf_helper 10042d98     LIBCMT:vwprintf.obj
 0002:0000adb8       __sehtable$__getstream     10042db8     LIBCMT:stream.obj
 0002:0000add8       __sehtable$__tzset         10042dd8     LIBCMT:tzset.obj
 0002:0000adf8       __sehtable$__isindst       10042df8     LIBCMT:tzset.obj
 0002:0000ae18       __sehtable$___tzset        10042e18     LIBCMT:tzset.obj
 0002:0000ae38       __sehtable$__tzset_nolock  10042e38     LIBCMT:tzset.obj
 0002:0000ae58       __sehtable$__close         10042e58     LIBCMT:close.obj
 0002:0000ae78       __sehtable$_fflush         10042e78     LIBCMT:fflush.obj
 0002:0000ae98       __sehtable$_flsall         10042e98     LIBCMT:fflush.obj
 0002:0000aec0       __sehtable$___set_fpsr_sse2 10042ec0     LIBCMT:fpctrl.obj
 0002:0000aedc       __catchsym$??2@YAPAXIABUnothrow_t@std@@@Z$2 10042edc     LIBCMT:newopnt.obj
 0002:0000aeec       __unwindtable$??2@YAPAXIABUnothrow_t@std@@@Z 10042eec     LIBCMT:newopnt.obj
 0002:0000aefc       __tryblocktable$??2@YAPAXIABUnothrow_t@std@@@Z 10042efc     LIBCMT:newopnt.obj
 0002:0000af10       __ehfuncinfo$??2@YAPAXIABUnothrow_t@std@@@Z 10042f10     LIBCMT:newopnt.obj
 0002:0000af38       __sehtable$__ioinit        10042f38     LIBCMT:ioinit.obj
 0002:0000af58       __sehtable$__write         10042f58     LIBCMT:write.obj
 0002:0000af78       __sehtable$__lseeki64      10042f78     LIBCMT:lseeki64.obj
 0002:0000af98       __sehtable$_printf         10042f98     LIBCMT:printf.obj
 0002:0000afb8       __sehtable$_fputwc         10042fb8     LIBCMT:fputwc.obj
 0002:0000afd8       __sehtable$___unDName      10042fd8     LIBCMT:undname.obj
 0002:0000aff8       __sehtable$___unDNameEx    10042ff8     LIBCMT:undname.obj
 0002:0000b018       __sehtable$__get_current_locale 10043018     LIBCMT:wsetloca.obj
 0002:0000b040       __sehtable$__free_locale   10043040     LIBCMT:wsetloca.obj
 0002:0000b068       __sehtable$__wsetlocale    10043068     LIBCMT:wsetloca.obj
 0002:0000b0a0       __sehtable$__locterm       100430a0     LIBCMT:wsetloca.obj
 0002:0000b0c0       __sehtable$__fcloseall     100430c0     LIBCMT:closeall.obj
 0002:0000b0e0       __sehtable$__wsopen_helper 100430e0     LIBCMT:wopen.obj
 0002:0000b100       __sehtable$__wopen         10043100     LIBCMT:wopen.obj
 0002:0000b120       __sehtable$_getenv         10043120     LIBCMT:getenv.obj
 0002:0000b140       __sehtable$_getenv_s       10043140     LIBCMT:getenv.obj
 0002:0000b160       __sehtable$__dupenv_s      10043160     LIBCMT:getenv.obj
 0002:0000b180       __sehtable$__alloc_osfhnd  10043180     LIBCMT:osfinfo.obj
 0002:0000b1a8       __sehtable$___lock_fhandle 100431a8     LIBCMT:osfinfo.obj
 0002:0000b1c8       __sehtable$__open_osfhandle 100431c8     LIBCMT:osfinfo.obj
 0002:0000b1e8       __sehtable$__commit        100431e8     LIBCMT:commit.obj
 0002:0000b208       __sehtable$__putwch        10043208     LIBCMT:putwch.obj
 0002:0000b228       __sehtable$_vprintf_helper 10043228     LIBCMT:vprintf.obj
 0002:0000b248       __sehtable$__chsize_s      10043248     LIBCMT:chsize.obj
 0002:0000b268       __sehtable$__read          10043268     LIBCMT:read.obj
 0002:0000b288       __sehtable$__setmode       10043288     LIBCMT:setmode.obj
 0002:0000b2a8       __sehtable$__putch         100432a8     LIBCMT:putch.obj
 0002:0000b490       .edata                     10043490     BugSplat.exp
 0002:0000b4b8       rgpv                       100434b8     BugSplat.exp
 0002:0000b55c       rgszName                   1004355c     BugSplat.exp
 0002:0000b600       rgwOrd                     10043600     BugSplat.exp
 0002:0000b652       szName                     10043652     BugSplat.exp
 0002:0000b65f       $N00001                    1004365f     BugSplat.exp
 0002:0000b676       $N00002                    10043676     BugSplat.exp
 0002:0000b694       $N00003                    10043694     BugSplat.exp
 0002:0000b6b5       $N00004                    100436b5     BugSplat.exp
 0002:0000b6ce       $N00005                    100436ce     BugSplat.exp
 0002:0000b6ee       $N00006                    100436ee     BugSplat.exp
 0002:0000b710       $N00007                    10043710     BugSplat.exp
 0002:0000b727       $N00008                    10043727     BugSplat.exp
 0002:0000b781       $N00009                    10043781     BugSplat.exp
 0002:0000b7ad       $N00010                    100437ad     BugSplat.exp
 0002:0000b7d6       $N00011                    100437d6     BugSplat.exp
 0002:0000b817       $N00012                    10043817     BugSplat.exp
 0002:0000b842       $N00013                    10043842     BugSplat.exp
 0002:0000b86e       $N00014                    1004386e     BugSplat.exp
 0002:0000b8a1       $N00015                    100438a1     BugSplat.exp
 0002:0000b8d5       $N00016                    100438d5     BugSplat.exp
 0002:0000b911       $N00017                    10043911     BugSplat.exp
 0002:0000b939       $N00018                    10043939     BugSplat.exp
 0002:0000b964       $N00019                    10043964     BugSplat.exp
 0002:0000b994       $N00020                    10043994     BugSplat.exp
 0002:0000b9ca       $N00021                    100439ca     BugSplat.exp
 0002:0000b9ea       $N00022                    100439ea     BugSplat.exp
 0002:0000ba28       $N00023                    10043a28     BugSplat.exp
 0002:0000ba54       $N00024                    10043a54     BugSplat.exp
 0002:0000ba71       $N00025                    10043a71     BugSplat.exp
 0002:0000baa2       $N00026                    10043aa2     BugSplat.exp
 0002:0000bad9       $N00027                    10043ad9     BugSplat.exp
 0002:0000bb0a       $N00028                    10043b0a     BugSplat.exp
 0002:0000bb38       $N00029                    10043b38     BugSplat.exp
 0002:0000bb66       $N00030                    10043b66     BugSplat.exp
 0002:0000bb94       $N00031                    10043b94     BugSplat.exp
 0002:0000bbc3       $N00032                    10043bc3     BugSplat.exp
 0002:0000bbf8       $N00033                    10043bf8     BugSplat.exp
 0002:0000bc27       $N00034                    10043c27     BugSplat.exp
 0002:0000bc55       $N00035                    10043c55     BugSplat.exp
 0002:0000bc77       $N00036                    10043c77     BugSplat.exp
 0002:0000bca6       $N00037                    10043ca6     BugSplat.exp
 0002:0000bcd0       $N00038                    10043cd0     BugSplat.exp
 0002:0000bd0d       $N00039                    10043d0d     BugSplat.exp
 0002:0000bd3b       $N00040                    10043d3b     BugSplat.exp
 0002:0000bd65       $N00041                    10043d65     BugSplat.exp
 0002:0000c126       .idata$6                   10044126     shlwapi:SHLWAPI.dll
 0002:0000c534       .idata$6                   10044534     kernel32:KERNEL32.dll
 0002:0000c5b8       .idata$6                   100445b8     user32:USER32.dll
 0002:0000c67e       .idata$6                   1004467e     advapi32:ADVAPI32.dll
 0002:0000c6d6       .idata$6                   100446d6     ole32:ole32.dll
 0002:0000c6e0       .idata$6                   100446e0     oleaut32:OLEAUT32.dll
 0002:0000c71e       .idata$6                   1004471e     version:VERSION.dll
 0002:0000c75a       .idata$6                   1004475a     Rpcrt4:RPCRT4.dll
 0003:00000060       __locktable                10045060     LIBCMT:mlock.obj
 0003:00000180       ?isPackaged@?1??__crtIsPackagedApp@@9@9 10045180     LIBCMT:winapisupp.obj
 0003:00000188       _errtable                  10045188     LIBCMT:dosmap.obj
 0003:000002f0       _ErrnoNoMem                100452f0     LIBCMT:dosmap.obj
 0003:000002f4       _DoserrorNoMem             100452f4     LIBCMT:dosmap.obj
 0003:00000748       ___rgctypeflag             10045748     LIBCMT:mbctype.obj
 0003:00000750       ___rgcode_page_info        10045750     LIBCMT:mbctype.obj
 0003:00000d08       _dststart                  10045d08     LIBCMT:tzset.obj
 0003:00000d14       _dstend                    10045d14     LIBCMT:tzset.obj
 0003:00000d30       _tzstd                     10045d30     LIBCMT:timeset.obj
 0003:00000d70       _tzdst                     10045d70     LIBCMT:timeset.obj
 0003:00000dc0       _NAME_                     10045dc0     LIBCMT:sqrt.obj
 0003:00000df0       ?_names@?1??_get_fname@@9@9 10045df0     LIBCMT:fpexcept.obj
 0003:00000ed8       _over                      10045ed8     LIBCMT:fpctrl.obj
 0003:00000ee4       _under                     10045ee4     LIBCMT:fpctrl.obj
 0003:00000ef0       ?__DAZ_ENABLED@?1??__set_fpsr_sse2@@9@9 10045ef0     LIBCMT:fpctrl.obj
 0003:00000f60       __ctype_loc_style          10045f60     LIBCMT:wsetloca.obj
 0003:00001058       _DoubleFormat              10046058     LIBCMT:intrncvt.obj
 0003:00001070       _FloatFormat               10046070     LIBCMT:intrncvt.obj
 0003:000018fc       _piecewise_construct       100468fc     mdump.obj
 0003:000018fd       _allocator_arg             100468fd     mdump.obj
 0003:00003910       ?szMFA@?3??SendReportThreaded@MiniDumper@@SGIPAX@Z@4PA_WA 10048910     mdump.obj
 0003:00003b18       ?szSendReport@?9??SendReportThreaded@MiniDumper@@SGIPAX@Z@4PA_WA 10048b18     mdump.obj
 0003:00003d20       ?szIniFile@?9??SendReportThreaded@MiniDumper@@SGIPAX@Z@4PA_WA 10048d20     mdump.obj
 0003:00003f28       ?startupInfo@?DA@??SendReportThreaded@MiniDumper@@SGIPAX@Z@4U_STARTUPINFOW@@A 10048f28     mdump.obj
 0003:00003f6c       ?processInfo@?DA@??SendReportThreaded@MiniDumper@@SGIPAX@Z@4U_PROCESS_INFORMATION@@A 10048f6c     mdump.obj
 0003:00003f7c       ?strApp@?DA@??SendReportThreaded@MiniDumper@@SGIPAX@Z@4VCString@WTL@@A 10048f7c     mdump.obj
 0003:00003f80       ?$S1@?DA@??SendReportThreaded@MiniDumper@@SGIPAX@Z@4IA 10048f80     mdump.obj
 0003:00003f88       ?startupInfo@?4??LaunchHangDetection@MiniDumper@@QAEXXZ@4U_STARTUPINFOW@@A 10048f88     mdump.obj
 0003:00003fcc       ?processInfo@?4??LaunchHangDetection@MiniDumper@@QAEXXZ@4U_PROCESS_INFORMATION@@A 10048fcc     mdump.obj
 0003:00003fe4       _piecewise_construct       10048fe4     sbSender.obj
 0003:00003fe5       _allocator_arg             10048fe5     sbSender.obj
 0003:00004138       _atlTraceUI                10049138     StdAfx.obj
 0003:000041b0       ?s_roinit@?1??_initMTAoncurrentthread@@9@9 100491b0     LIBCMT:threadex.obj
 0003:000041b4       ?s_initialized@?1??_initMTAoncurrentthread@@9@9 100491b4     LIBCMT:threadex.obj
 0003:000041b8       ?s_rouninit@?1??_uninitMTAoncurrentthread@@9@9 100491b8     LIBCMT:threadex.obj
 0003:000041bc       ?s_initialized@?1??_uninitMTAoncurrentthread@@9@9 100491bc     LIBCMT:threadex.obj
 0003:000041c0       _ctrlc_action              100491c0     LIBCMT:winsig.obj
 0003:000041c4       _ctrlbreak_action          100491c4     LIBCMT:winsig.obj
 0003:000041c8       _abort_action              100491c8     LIBCMT:winsig.obj
 0003:000041cc       _term_action               100491cc     LIBCMT:winsig.obj
 0003:000041d0       _ConsoleCtrlHandler_Installed 100491d0     LIBCMT:winsig.obj
 0003:000041d8       _GS_ExceptionRecord        100491d8     LIBCMT:gs_report.obj
 0003:00004228       _GS_ContextRecord          10049228     LIBCMT:gs_report.obj
 0003:000044f4       _DebuggerWasPresent        100494f4     LIBCMT:gs_report.obj
 0003:000044fc       ___proc_attached           100494fc     LIBCMT:dllcrt0.obj
 0003:00004510       _lclcritsects              10049510     LIBCMT:mlock.obj
 0003:00004668       ?outmsg@?9??_NMSG_WRITE@@9@9 10049668     LIBCMT:crt0msg.obj
 0003:00004c9c       _g_pfnRtlGenRandom         10049c9c     LIBCMT:rand_s.obj
 0003:00004cb8       _fSystemSet                10049cb8     LIBCMT:mbctype.obj
 0003:00004cd0       ___type_info_root_node     10049cd0     LIBCMT:typname.obj
 0003:00004ce0       _lastTZ                    10049ce0     LIBCMT:tzset.obj
 0003:00004ce4       ?first_time@?1??__tzset@@9@9 10049ce4     LIBCMT:tzset.obj
 0003:00004ce8       _tzapiused                 10049ce8     LIBCMT:tzset.obj
 0003:00004cf0       _tzinfo                    10049cf0     LIBCMT:tzset.obj
 0003:00004d9c       ___crtCallProc             10049d9c     LIBCMT:winapinls.obj
 0003:00004ea8       ?_pgmname@?1??_setargv@@9@9 10049ea8     LIBCMT:stdargv.obj
 0003:00004fb4       ?pfnMessageBox@?1??__crtMessageBoxW@@9@9 10049fb4     LIBCMT:crtmboxw.obj
 0003:00004fb8       ?pfnGetActiveWindow@?1??__crtMessageBoxW@@9@9 10049fb8     LIBCMT:crtmboxw.obj
 0003:00004fbc       ?pfnGetLastActivePopup@?1??__crtMessageBoxW@@9@9 10049fbc     LIBCMT:crtmboxw.obj
 0003:00004fc0       ?pfnGetProcessWindowStation@?1??__crtMessageBoxW@@9@9 10049fc0     LIBCMT:crtmboxw.obj
 0003:00004fc4       ?pfnGetUserObjectInformation@?1??__crtMessageBoxW@@9@9 10049fc4     LIBCMT:crtmboxw.obj
 0003:00004fc8       ___enable_percent_n        10049fc8     LIBCMT:printf.obj
 0003:00004ff4       _heap                      10049ff4     LIBCMT:undname.obj
 0003:00005054       __Tuple_alloc              1004a054     libcpmt:xthrow.obj
 0003:00005055       _ignore                    1004a055     libcpmt:xthrow.obj
 0003:00005056       _allocator_arg             1004a056     libcpmt:xthrow.obj
 0003:00005057       _piecewise_construct       1004a057     libcpmt:xthrow.obj
 0003:00005058       _allocator_arg             1004a058     libcpmt:syserror.obj
 0003:00005059       _piecewise_construct       1004a059     libcpmt:syserror.obj
 0004:00000120       $R000000                   1004c120     sbSenderDll.res
 0004:00000448       $R000328                   1004c448     sbSenderDll.res
 0004:00000680       $R000560                   1004c680     sbSenderDll.res
 0004:00000a98       $R000978                   1004ca98     sbSenderDll.res

 Exports

  ordinal    name

        1    ??0BugSplatImp@@QAE@XZ (public: __thiscall BugSplatImp::BugSplatImp(void))
        2    ??0MiniDmpSender@@QAE@ABV0@@Z (public: __thiscall MiniDmpSender::MiniDmpSender(class MiniDmpSender const &))
        3    ??0MiniDmpSender@@QAE@PB_W000K@Z (public: __thiscall MiniDmpSender::MiniDmpSender(wchar_t const *,wchar_t const *,wchar_t const *,wchar_t const *,unsigned long))
        4    ??1MiniDmpSender@@UAE@XZ (public: virtual __thiscall MiniDmpSender::~MiniDmpSender(void))
        5    ??4BugSplatImp@@QAEAAV0@ABV0@@Z (public: class BugSplatImp & __thiscall BugSplatImp::operator=(class BugSplatImp const &))
        6    ??4MiniDmpSender@@QAEAAV0@ABV0@@Z (public: class MiniDmpSender & __thiscall MiniDmpSender::operator=(class MiniDmpSender const &))
        7    ??_7MiniDmpSender@@6B@ (const MiniDmpSender::`vftable')
        8    ?CreateMiniDump@BugSplatImp@@QAEHPAUHINSTANCE__@@KPAXKPAU_EXCEPTION_POINTERS@@PB_WPA_WK@Z (public: int __thiscall BugSplatImp::CreateMiniDump(struct HINSTANCE__ *,unsigned long,void *,unsigned long,struct _EXCEPTION_POINTERS *,wchar_t const *,wchar_t *,unsigned long))
        9    ?DoFullMemoryDumpThenExit@BugSplatImp@@2_NA (public: static bool BugSplatImp::DoFullMemoryDumpThenExit)
       10    ?GetReducedGuid@BugSplatImp@@QAEXPA_WK@Z (public: void __thiscall BugSplatImp::GetReducedGuid(wchar_t *,unsigned long))
       11    ?MiniDumpType@BugSplatImp@@2W4_BS_MINIDUMP_TYPE@MiniDmpSender@@A (public: static enum MiniDmpSender::_BS_MINIDUMP_TYPE BugSplatImp::MiniDumpType)
       12    ?ReduceGuidString@BugSplatImp@@QAEXPA_WK@Z (public: void __thiscall BugSplatImp::ReduceGuidString(wchar_t *,unsigned long))
       13    ?ResumeSuspendedThreads@BugSplatImp@@QAEXXZ (public: void __thiscall BugSplatImp::ResumeSuspendedThreads(void))
       14    ?SuspendAllThreadsInProcess@BugSplatImp@@QAEXPAX@Z (public: void __thiscall BugSplatImp::SuspendAllThreadsInProcess(void *))
       15    ?SuspendThreadsInCurrentProcess@BugSplatImp@@QAEXXZ (public: void __thiscall BugSplatImp::SuspendThreadsInCurrentProcess(void))
       16    ?createReport@MiniDmpSender@@QAEXPAU_EXCEPTION_POINTERS@@@Z (public: void __thiscall MiniDmpSender::createReport(struct _EXCEPTION_POINTERS *))
       17    ?createReport@MiniDmpSender@@QAEXPB_W@Z (public: void __thiscall MiniDmpSender::createReport(wchar_t const *))
       18    ?createReportAndExit@MiniDmpSender@@QAEXXZ (public: void __thiscall MiniDmpSender::createReportAndExit(void))
       19    ?enableExceptionFilter@MiniDmpSender@@QAE_N_N@Z (public: bool __thiscall MiniDmpSender::enableExceptionFilter(bool))
       20    ?enableFullMemoryDumpAndExit@MiniDmpSender@@QAE_N_N@Z (public: bool __thiscall MiniDmpSender::enableFullMemoryDumpAndExit(bool))
       21    ?getFlags@MiniDmpSender@@QBEKXZ (public: unsigned long __thiscall MiniDmpSender::getFlags(void)const )
       22    ?getMiniDumpType@MiniDmpSender@@QBE?AW4_BS_MINIDUMP_TYPE@1@XZ (public: enum MiniDmpSender::_BS_MINIDUMP_TYPE __thiscall MiniDmpSender::getMiniDumpType(void)const )
       23    ?getMinidumpPath@MiniDmpSender@@QAEXPA_WI@Z (public: void __thiscall MiniDmpSender::getMinidumpPath(wchar_t *,unsigned int))
       24    ?imp@MiniDmpSender@@QAEPAXXZ (public: void * __thiscall MiniDmpSender::imp(void))
       25    ?isExceptionFilterEnabled@MiniDmpSender@@QBE_NXZ (public: bool __thiscall MiniDmpSender::isExceptionFilterEnabled(void)const )
       26    ?isFullMemoryDumpAndExitEnabled@MiniDmpSender@@QBE_NXZ (public: bool __thiscall MiniDmpSender::isFullMemoryDumpAndExitEnabled(void)const )
       27    ?removeAdditionalFile@MiniDmpSender@@QAE_NPB_W@Z (public: bool __thiscall MiniDmpSender::removeAdditionalFile(wchar_t const *))
       28    ?resetAppIdentifier@MiniDmpSender@@QAEXPB_W@Z (public: void __thiscall MiniDmpSender::resetAppIdentifier(wchar_t const *))
       29    ?resetVersionString@MiniDmpSender@@QAEXPB_W@Z (public: void __thiscall MiniDmpSender::resetVersionString(wchar_t const *))
       30    ?sendAdditionalFile@MiniDmpSender@@QAEXPB_W@Z (public: void __thiscall MiniDmpSender::sendAdditionalFile(wchar_t const *))
       31    ?setCallback@MiniDmpSender@@QAEXP6A_NIPAX0@Z@Z (public: void __thiscall MiniDmpSender::setCallback(bool (__cdecl*)(unsigned int,void *,void *)))
       32    ?setDefaultUserDescription@MiniDmpSender@@QAEXPB_W@Z (public: void __thiscall MiniDmpSender::setDefaultUserDescription(wchar_t const *))
       33    ?setDefaultUserEmail@MiniDmpSender@@QAEXPB_W@Z (public: void __thiscall MiniDmpSender::setDefaultUserEmail(wchar_t const *))
       34    ?setDefaultUserName@MiniDmpSender@@QAEXPB_W@Z (public: void __thiscall MiniDmpSender::setDefaultUserName(wchar_t const *))
       35    ?setFlags@MiniDmpSender@@QAE_NK@Z (public: bool __thiscall MiniDmpSender::setFlags(unsigned long))
       36    ?setGuardByteBufferSize@MiniDmpSender@@QAEHH@Z (public: int __thiscall MiniDmpSender::setGuardByteBufferSize(int))
       37    ?setLogFilePath@MiniDmpSender@@QAEXPB_W@Z (public: void __thiscall MiniDmpSender::setLogFilePath(wchar_t const *))
       38    ?setMiniDumpType@MiniDmpSender@@QAEXW4_BS_MINIDUMP_TYPE@1@@Z (public: void __thiscall MiniDmpSender::setMiniDumpType(enum MiniDmpSender::_BS_MINIDUMP_TYPE))
       39    ?setResourceDllPath@MiniDmpSender@@QAEXPB_W@Z (public: void __thiscall MiniDmpSender::setResourceDllPath(wchar_t const *))
       40    ?setUserZipPath@MiniDmpSender@@QAEXPB_W@Z (public: void __thiscall MiniDmpSender::setUserZipPath(wchar_t const *))
       41    ?unhandledExceptionHandler@MiniDmpSender@@QAEJPAU_EXCEPTION_POINTERS@@@Z (public: long __thiscall MiniDmpSender::unhandledExceptionHandler(struct _EXCEPTION_POINTERS *))
