 BugSplat64

 Timestamp is 5b8439a9 (Mon Aug 27 17:49:29 2018)

 Preferred load address is 0000000180000000

 Start         Length     Name                   Class
 0001:00000000 00000158H .text$di                CODE
 0001:00000160 0003acc6H .text$mn                CODE
 0001:0003ae30 000011b6H .text$x                 CODE
 0001:0003bfe8 000001bfH .text$yd                CODE
 0002:00000000 000004f0H .idata$5                DATA
 0002:000004f0 00000008H .CRT$XCA                DATA
 0002:000004f8 00000008H .CRT$XCL                DATA
 0002:00000500 00000038H .CRT$XCU                DATA
 0002:00000538 00000008H .CRT$XCZ                DATA
 0002:00000540 00000008H .CRT$XIA                DATA
 0002:00000548 00000020H .CRT$XIC                DATA
 0002:00000568 00000008H .CRT$XIZ                DATA
 0002:00000570 00000008H .CRT$XPA                DATA
 0002:00000578 00000010H .CRT$XPX                DATA
 0002:00000588 00000008H .CRT$XPXA               DATA
 0002:00000590 00000008H .CRT$XPZ                DATA
 0002:00000598 00000008H .CRT$XTA                DATA
 0002:000005a0 00000008H .CRT$XTZ                DATA
 0002:000005b0 0000b9b0H .rdata                  DATA
 0002:0000bf60 00000058H .rdata$debug            DATA
 0002:0000bfb8 00001114H .rdata$r                DATA
 0002:0000d0d0 00000008H .rtc$IAA                DATA
 0002:0000d0d8 00000008H .rtc$IZZ                DATA
 0002:0000d0e0 00000008H .rtc$TAA                DATA
 0002:0000d0e8 00000008H .rtc$TZZ                DATA
 0002:0000d0f0 00005358H .xdata                  DATA
 0002:00012448 00000484H .xdata$x                DATA
 0002:000128d0 00000008H ATL$__a                 DATA
 0002:000128d8 00000008H ATL$__z                 DATA
 0002:000128e0 00000965H .edata                  DATA
 0002:00013248 000000a0H .idata$2                DATA
 0002:000132e8 00000014H .idata$3                DATA
 0002:00013300 000004f0H .idata$4                DATA
 0002:000137f0 00000ac8H .idata$6                DATA
 0003:00000000 00001a98H .data                   DATA
 0003:00001a98 000005f6H .data$r                 DATA
 0003:000020a0 00005010H .bss                    DATA
 0004:00000000 000036e4H .pdata                  DATA
 0005:00000000 00000118H .rsrc$01                DATA
 0005:00000120 00000af8H .rsrc$02                DATA

  Address         Publics by Value              Rva+Base               Lib:Object

 0000:00000000       __guard_fids_table         0000000000000000     <absolute>
 0000:00000000       __guard_flags              0000000000000000     <absolute>
 0000:00000000       ___safe_se_handler_count   0000000000000000     <absolute>
 0000:00000000       ___safe_se_handler_table   0000000000000000     <absolute>
 0000:00000000       __guard_fids_count         0000000000000000     <absolute>
 0000:00000000       __ImageBase                0000000180000000     <linker-defined>
 0001:00000160       ??0BugSplatImp@@QEAA@XZ    0000000180001160 f   BugSplatImp.obj
 0001:00000188       ??0CString@WTL@@QEAA@AEBV01@@Z 0000000180001188 f i BugSplatImp.obj
 0001:000001e0       ??0CString@WTL@@QEAA@PEB_W@Z 00000001800011e0 f i BugSplatImp.obj
 0001:00000268       ??0CString@WTL@@QEAA@XZ    0000000180001268 f i BugSplatImp.obj
 0001:00000278       ??0MiniDmpSender@@QEAA@AEBV0@@Z 0000000180001278 f i BugSplatImp.obj
 0001:00000290       ??1CString@WTL@@QEAA@XZ    0000000180001290 f i BugSplatImp.obj
 0001:000002bc       ??4BugSplatImp@@QEAAAEAV0@AEBV0@@Z 00000001800012bc f i BugSplatImp.obj
 0001:00000324       ??4CString@WTL@@QEAAAEAV01@AEBV01@@Z 0000000180001324 f i BugSplatImp.obj
 0001:000003a4       ??4CString@WTL@@QEAAAEAV01@PEB_W@Z 00000001800013a4 f i BugSplatImp.obj
 0001:000003e0       ??4MiniDmpSender@@QEAAAEAV0@AEBV0@@Z 00000001800013e0 f i BugSplatImp.obj
 0001:000003ec       ??ACString@WTL@@QEBA_WH@Z  00000001800013ec f i BugSplatImp.obj
 0001:000003f8       ??BCString@WTL@@QEBAPEB_WXZ 00000001800013f8 f i BugSplatImp.obj
 0001:000003fc       ??HWTL@@YA?AVCString@0@AEBV10@0@Z 00000001800013fc f i BugSplatImp.obj
 0001:00000450       ??YCString@WTL@@QEAAAEAV01@PEB_W@Z 0000000180001450 f i BugSplatImp.obj
 0001:0000048c       ??YCString@WTL@@QEAAAEAV01@_W@Z 000000018000148c f i BugSplatImp.obj
 0001:000004b4       ??_EMiniDmpSender@@UEAAPEAXI@Z 00000001800014b4 f i BugSplatImp.obj
 0001:00000520       ??_GMiniDmpSender@@UEAAPEAXI@Z 0000000180001520 f i BugSplatImp.obj
 0001:00000550       ?AllocBeforeWrite@CString@WTL@@IEAAHH@Z 0000000180001550 f i BugSplatImp.obj
 0001:000005b0       ?AllocBuffer@CString@WTL@@IEAAHH@Z 00000001800015b0 f i BugSplatImp.obj
 0001:0000063c       ?AllocCopy@CString@WTL@@IEBAHAEAV12@HHH@Z 000000018000163c f i BugSplatImp.obj
 0001:000006c0       ?AssignCopy@CString@WTL@@IEAAXHPEB_W@Z 00000001800016c0 f i BugSplatImp.obj
 0001:00000764       ?ConcatCopy@CString@WTL@@IEAAHHPEB_WH0@Z 0000000180001764 f i BugSplatImp.obj
 0001:000007f0       ?ConcatInPlace@CString@WTL@@IEAAXHPEB_W@Z 00000001800017f0 f i BugSplatImp.obj
 0001:0000089c       ?CopyBeforeWrite@CString@WTL@@IEAAXXZ 000000018000189c f i BugSplatImp.obj
 0001:0000090c       ?CreateMiniDump@BugSplatImp@@QEAAHPEAUHINSTANCE__@@KPEAXKPEAU_EXCEPTION_POINTERS@@PEB_WPEA_WK@Z 000000018000190c f   BugSplatImp.obj
 0001:00000ba8       ?Find@CString@WTL@@QEBAHPEB_W@Z 0000000180001ba8 f i BugSplatImp.obj
 0001:00000bd8       ?Find@CString@WTL@@QEBAHPEB_WH@Z 0000000180001bd8 f i BugSplatImp.obj
 0001:00000c14       ?GetBuffer@CString@WTL@@QEAAPEA_WH@Z 0000000180001c14 f i BugSplatImp.obj
 0001:00000c94       ?GetData@CString@WTL@@IEBAPEAUCStringData@2@XZ 0000000180001c94 f i BugSplatImp.obj
 0001:00000c9c       ?GetLength@CString@WTL@@QEBAHXZ 0000000180001c9c f i BugSplatImp.obj
 0001:00000ca4       ?GetReducedGuid@BugSplatImp@@QEAAXPEA_WK@Z 0000000180001ca4 f   BugSplatImp.obj
 0001:00000d80       ?GetResourceInstance@CAtlBaseModule@ATL@@QEAAPEAUHINSTANCE__@@XZ 0000000180001d80 f i BugSplatImp.obj
 0001:00000d88       ?Init@CString@WTL@@IEAAXXZ 0000000180001d88 f i BugSplatImp.obj
 0001:00000d94       ?Left@CString@WTL@@QEBA?AV12@H@Z 0000000180001d94 f i BugSplatImp.obj
 0001:00000df0       ?LoadStringW@CString@WTL@@QEAAHI@Z 0000000180001df0 f i BugSplatImp.obj
 0001:00000f04       ?MakeUpper@CString@WTL@@QEAAXXZ 0000000180001f04 f i BugSplatImp.obj
 0001:00000f24       ?Mid@CString@WTL@@QEBA?AV12@H@Z 0000000180001f24 f i BugSplatImp.obj
 0001:00000f4c       ?Mid@CString@WTL@@QEBA?AV12@HH@Z 0000000180001f4c f i BugSplatImp.obj
 0001:00000fc8       ?ReduceGuidString@BugSplatImp@@QEAAXPEA_WK@Z 0000000180001fc8 f   BugSplatImp.obj
 0001:0000138c       ?Release@CString@WTL@@IEAAXXZ 000000018000238c f i BugSplatImp.obj
 0001:000013c8       ?Release@CString@WTL@@KAXPEAUCStringData@2@@Z 00000001800023c8 f i BugSplatImp.obj
 0001:000013e8       ?ReleaseBuffer@CString@WTL@@QEAAXH@Z 00000001800023e8 f i BugSplatImp.obj
 0001:0000142c       ?ResumeSuspendedThreads@BugSplatImp@@QEAAXXZ 000000018000242c f   BugSplatImp.obj
 0001:0000148c       ?SafeStrlen@CString@WTL@@KAHPEB_W@Z 000000018000248c f i BugSplatImp.obj
 0001:000014a4       ?SuspendAllThreadsInProcess@BugSplatImp@@QEAAXPEAX@Z 00000001800024a4 f   BugSplatImp.obj
 0001:00001578       ?SuspendThreadsInCurrentProcess@BugSplatImp@@QEAAXXZ 0000000180002578 f   BugSplatImp.obj
 0001:0000166c       ?UINTtoWchar_t@@YA_WI@Z    000000018000266c f   BugSplatImp.obj
 0001:00001690       ?Wchar_tToUINT@@YAI_W@Z    0000000180002690 f   BugSplatImp.obj
 0001:000016c0       ?_GetEmptyString@CString@WTL@@KAAEBV12@XZ 00000001800026c0 f i BugSplatImp.obj
 0001:000016c8       ?_LoadString@CString@WTL@@KAHIPEA_WI@Z 00000001800026c8 f i BugSplatImp.obj
 0001:000016f8       ?_cstrstr@CString@WTL@@KAPEB_WPEB_W0@Z 00000001800026f8 f i BugSplatImp.obj
 0001:00001700       ?combine1_4@@YAIII@Z       0000000180002700 f   BugSplatImp.obj
 0001:0000170c       ?combine2_3@@YAIII@Z       000000018000270c f   BugSplatImp.obj
 0001:0000171c       ?combine3_2@@YAIII@Z       000000018000271c f   BugSplatImp.obj
 0001:0000172c       ?combine4_1@@YAIII@Z       000000018000272c f   BugSplatImp.obj
 0001:00001738       ?combineLast3@@YAII@Z      0000000180002738 f   BugSplatImp.obj
 0001:00001740       ?createReportAndExit@MiniDmpSender@@QEAAXXZ 0000000180002740 f i BugSplatImp.obj
 0001:00001774       ?data@CStringData@WTL@@QEAAPEA_WXZ 0000000180002774 f i BugSplatImp.obj
 0001:0000177c       ??$_Allocate@D@std@@YAPEAD_KPEAD@Z 000000018000277c f i mdump.obj
 0001:000017a4       ??$_Allocate@VCString@WTL@@@std@@YAPEAVCString@WTL@@_KPEAV12@@Z 00000001800027a4 f i mdump.obj
 0001:000017d8       ??$_Destroy_range@U?$_Wrap_alloc@V?$allocator@VCString@WTL@@@std@@@std@@@std@@YAXPEAVCString@WTL@@0AEAU?$_Wrap_alloc@V?$allocator@VCString@WTL@@@std@@@0@@Z 00000001800027d8 f i mdump.obj
 0001:00001824       ??$_Destroy_range@U?$_Wrap_alloc@V?$allocator@VCString@WTL@@@std@@@std@@@std@@YAXPEAVCString@WTL@@0AEAU?$_Wrap_alloc@V?$allocator@VCString@WTL@@@std@@@0@U_Nonscalar_ptr_iterator_tag@0@@Z 0000000180002824 f i mdump.obj
 0001:00001870       ??$_Ptr_cat@VCString@WTL@@V12@@std@@YA?AU_Nonscalar_ptr_iterator_tag@0@PEAVCString@WTL@@0@Z 0000000180002870 f i mdump.obj
 0001:00001878       ??$_Rechecked@PEAVCString@WTL@@PEAV12@@std@@YAAEAPEAVCString@WTL@@AEAPEAV12@PEAV12@@Z 0000000180002878 f i mdump.obj
 0001:00001880       ??$_Umove@PEAVCString@WTL@@@?$vector@VCString@WTL@@V?$allocator@VCString@WTL@@@std@@@std@@IEAAPEAVCString@WTL@@PEAV23@00@Z 0000000180002880 f i mdump.obj
 0001:000018b4       ??$_Unchecked@PEAVCString@WTL@@@std@@YAPEAVCString@WTL@@PEAV12@@Z 00000001800028b4 f i mdump.obj
 0001:000018b8       ??$_Uninit_move@PEAVCString@WTL@@PEAV12@U?$_Wrap_alloc@V?$allocator@VCString@WTL@@@std@@@std@@@std@@YAPEAVCString@WTL@@PEAV12@00AEAU?$_Wrap_alloc@V?$allocator@VCString@WTL@@@std@@@0@@Z 00000001800028b8 f i mdump.obj
 0001:000018d4       ??$_Uninit_move@PEAVCString@WTL@@PEAV12@V?$allocator@VCString@WTL@@@std@@V12@@std@@YAPEAVCString@WTL@@PEAV12@00AEAU?$_Wrap_alloc@V?$allocator@VCString@WTL@@@std@@@0@0U_Nonscalar_ptr_iterator_tag@0@@Z 00000001800028d4 f i mdump.obj
 0001:00001934       ??$_Uninitialized_move@PEAVCString@WTL@@PEAV12@U?$_Wrap_alloc@V?$allocator@VCString@WTL@@@std@@@std@@@std@@YAPEAVCString@WTL@@PEAV12@00AEAU?$_Wrap_alloc@V?$allocator@VCString@WTL@@@std@@@0@@Z 0000000180002934 f i mdump.obj
 0001:00001950       ??$_Val_type@PEAVCString@WTL@@@std@@YAPEAVCString@WTL@@PEAV12@@Z 0000000180002950 f i mdump.obj
 0001:00001954       ??$addressof@D@std@@YAPEADAEAD@Z 0000000180002954 f i mdump.obj
 0001:00001958       ??$addressof@VCString@WTL@@@std@@YAPEAVCString@WTL@@AEAV12@@Z 0000000180002958 f i mdump.obj
 0001:0000195c       ??$construct@PEADAEAPEAD@?$_Wrap_alloc@V?$allocator@D@std@@@std@@QEAAXPEAPEADAEAPEAD@Z 000000018000295c f i mdump.obj
 0001:00001968       ??$construct@PEADAEAPEAD@?$allocator@D@std@@QEAAXPEAPEADAEAPEAD@Z 0000000180002968 f i mdump.obj
 0001:00001974       ??$construct@PEADAEAPEAD@?$allocator_traits@V?$allocator@D@std@@@std@@SAXAEAV?$allocator@D@1@PEAPEADAEAPEAD@Z 0000000180002974 f i mdump.obj
 0001:00001980       ??$construct@VCString@WTL@@V12@@?$_Wrap_alloc@V?$allocator@VCString@WTL@@@std@@@std@@QEAAXPEAVCString@WTL@@$$QEAV23@@Z 0000000180002980 f i mdump.obj
 0001:00001988       ??$construct@VCString@WTL@@V12@@?$allocator@VCString@WTL@@@std@@QEAAXPEAVCString@WTL@@$$QEAV23@@Z 0000000180002988 f i mdump.obj
 0001:000019f8       ??$construct@VCString@WTL@@V12@@?$allocator_traits@V?$allocator@VCString@WTL@@@std@@@std@@SAXAEAV?$allocator@VCString@WTL@@@1@PEAVCString@WTL@@$$QEAV34@@Z 00000001800029f8 f i mdump.obj
 0001:00001a00       ??$destroy@PEAD@?$_Wrap_alloc@V?$allocator@D@std@@@std@@QEAAXPEAPEAD@Z 0000000180002a00 f i mdump.obj
 0001:00001a04       ??$destroy@PEAD@?$allocator@D@std@@QEAAXPEAPEAD@Z 0000000180002a04 f i mdump.obj
 0001:00001a08       ??$destroy@PEAD@?$allocator_traits@V?$allocator@D@std@@@std@@SAXAEAV?$allocator@D@1@PEAPEAD@Z 0000000180002a08 f i mdump.obj
 0001:00001a0c       ??$destroy@VCString@WTL@@@?$_Wrap_alloc@V?$allocator@VCString@WTL@@@std@@@std@@QEAAXPEAVCString@WTL@@@Z 0000000180002a0c f i mdump.obj
 0001:00001a38       ??$destroy@VCString@WTL@@@?$allocator@VCString@WTL@@@std@@QEAAXPEAVCString@WTL@@@Z 0000000180002a38 f i mdump.obj
 0001:00001a64       ??$destroy@VCString@WTL@@@?$allocator_traits@V?$allocator@VCString@WTL@@@std@@@std@@SAXAEAV?$allocator@VCString@WTL@@@1@PEAVCString@WTL@@@Z 0000000180002a64 f i mdump.obj
 0001:00001a90       ??$forward@AEAPEAD@std@@YAAEAPEADAEAPEAD@Z 0000000180002a90 f i mdump.obj
 0001:00001a94       ??$forward@VCString@WTL@@@std@@YA$$QEAVCString@WTL@@AEAV12@@Z 0000000180002a94 f i mdump.obj
 0001:00001a98       ??0?$_String_alloc@$0A@U?$_String_base_types@DV?$allocator@D@std@@@std@@@std@@QEAA@AEBV?$allocator@D@1@@Z 0000000180002a98 f i mdump.obj
 0001:00001aa8       ??0?$_String_val@U?$_Simple_types@D@std@@@std@@QEAA@XZ 0000000180002aa8 f i mdump.obj
 0001:00001ab8       ??0?$_Vector_alloc@$0A@U?$_Vec_base_types@VCString@WTL@@V?$allocator@VCString@WTL@@@std@@@std@@@std@@QEAA@AEBV?$allocator@VCString@WTL@@@1@@Z 0000000180002ab8 f i mdump.obj
 0001:00001acc       ??0?$_Vector_const_iterator@V?$_Vector_val@U?$_Simple_types@VCString@WTL@@@std@@@std@@@std@@QEAA@PEAVCString@WTL@@PEBU_Container_base0@1@@Z 0000000180002acc f i mdump.obj
 0001:00001ad4       ??0?$_Vector_iterator@V?$_Vector_val@U?$_Simple_types@VCString@WTL@@@std@@@std@@@std@@QEAA@PEAVCString@WTL@@PEBU_Container_base0@1@@Z 0000000180002ad4 f i mdump.obj
 0001:00001adc       ??0?$_Vector_val@U?$_Simple_types@VCString@WTL@@@std@@@std@@QEAA@XZ 0000000180002adc f i mdump.obj
 0001:00001af0       ??0?$_Wrap_alloc@V?$allocator@D@std@@@std@@QEAA@XZ 0000000180002af0 f i mdump.obj
 0001:00001af4       ??0?$_Wrap_alloc@V?$allocator@VCString@WTL@@@std@@@std@@QEAA@XZ 0000000180002af4 f i mdump.obj
 0001:00001af8       ??0?$allocator@D@std@@QEAA@XZ 0000000180002af8 f i mdump.obj
 0001:00001afc       ??0?$allocator@VCString@WTL@@@std@@QEAA@XZ 0000000180002afc f i mdump.obj
 0001:00001b00       ??0?$basic_string@DU?$char_traits@D@std@@V?$allocator@D@2@@std@@QEAA@PEBD@Z 0000000180002b00 f i mdump.obj
 0001:00001b48       ??0?$vector@VCString@WTL@@V?$allocator@VCString@WTL@@@std@@@std@@QEAA@XZ 0000000180002b48 f i mdump.obj
 0001:00001b5c       ??0DumpData@@QEAA@XZ       0000000180002b5c f i mdump.obj
 0001:00001b6c       ??0MiniDumper@@QEAA@XZ     0000000180002b6c f   mdump.obj
 0001:00001cec       ??0ResourceSwitch@@QEAA@PEB_W@Z 0000000180002cec f i mdump.obj
 0001:00001d24       ??0TotalUptimeAndCrashCalculator@@QEAA@PEB_W00@Z 0000000180002d24 f i mdump.obj
 0001:00001e90       ??0_Generic_error_category@std@@QEAA@XZ 0000000180002e90 f i mdump.obj
 0001:00001ea0       ??0_Iostream_error_category@std@@QEAA@XZ 0000000180002ea0 f i mdump.obj
 0001:00001eb0       ??0_System_error_category@std@@QEAA@XZ 0000000180002eb0 f i mdump.obj
 0001:00001ec0       ??0_U_STRINGorID@ATL@@QEAA@PEB_W@Z 0000000180002ec0 f i mdump.obj
 0001:00001ec8       ??0error_category@std@@QEAA@XZ 0000000180002ec8 f i mdump.obj
 0001:00001ed8       ??0error_condition@std@@QEAA@HAEBVerror_category@1@@Z 0000000180002ed8 f i mdump.obj
 0001:00001ee4       ??0id@locale@std@@QEAA@_K@Z 0000000180002ee4 f i mdump.obj
 0001:00001eec       ??1?$basic_string@DU?$char_traits@D@std@@V?$allocator@D@2@@std@@QEAA@XZ 0000000180002eec f i mdump.obj
 0001:00001f1c       ??1?$vector@VCString@WTL@@V?$allocator@VCString@WTL@@@std@@@std@@QEAA@XZ 0000000180002f1c f i mdump.obj
 0001:00001f24       ??1DumpData@@QEAA@XZ       0000000180002f24 f i mdump.obj
 0001:00001f54       ??1MiniDumper@@UEAA@XZ     0000000180002f54 f   mdump.obj
 0001:000021cc       ??1ResourceSwitch@@QEAA@XZ 00000001800031cc f i mdump.obj
 0001:000021e4       ??1TotalUptimeAndCrashCalculator@@QEAA@XZ 00000001800031e4 f i mdump.obj
 0001:00002314       ??1_Generic_error_category@std@@UEAA@XZ 0000000180003314 f i mdump.obj
 0001:00002320       ??1_Iostream_error_category@std@@UEAA@XZ 0000000180003320 f i mdump.obj
 0001:0000232c       ??1_System_error_category@std@@UEAA@XZ 000000018000332c f i mdump.obj
 0001:00002338       ??1error_category@std@@UEAA@XZ 0000000180003338 f i mdump.obj
 0001:00002344       ??2@YAPEAX_KPEAX@Z         0000000180003344 f i mdump.obj
 0001:00002348       ??3@YAXPEAX0@Z             0000000180003348 f i mdump.obj
 0001:0000234c       ??8error_category@std@@QEBA_NAEBV01@@Z 000000018000334c f i mdump.obj
 0001:00002354       ??8error_condition@std@@QEBA_NAEBV01@@Z 0000000180003354 f i mdump.obj
 0001:00002370       ??C?$_Vector_iterator@V?$_Vector_val@U?$_Simple_types@VCString@WTL@@@std@@@std@@@std@@QEBAPEAVCString@WTL@@XZ 0000000180003370 f i mdump.obj
 0001:00002374       ??D?$_Vector_const_iterator@V?$_Vector_val@U?$_Simple_types@VCString@WTL@@@std@@@std@@@std@@QEBAAEBVCString@WTL@@XZ 0000000180003374 f i mdump.obj
 0001:00002378       ??D?$_Vector_iterator@V?$_Vector_val@U?$_Simple_types@VCString@WTL@@@std@@@std@@@std@@QEBAAEAVCString@WTL@@XZ 0000000180003378 f i mdump.obj
 0001:0000237c       ??E?$_Vector_const_iterator@V?$_Vector_val@U?$_Simple_types@VCString@WTL@@@std@@@std@@@std@@QEAAAEAV01@XZ 000000018000337c f i mdump.obj
 0001:00002384       ??E?$_Vector_iterator@V?$_Vector_val@U?$_Simple_types@VCString@WTL@@@std@@@std@@@std@@QEAAAEAV01@XZ 0000000180003384 f i mdump.obj
 0001:0000238c       ??M?$_Vector_const_iterator@V?$_Vector_val@U?$_Simple_types@VCString@WTL@@@std@@@std@@@std@@QEBA_NAEBV01@@Z 000000018000338c f i mdump.obj
 0001:00002398       ??YCString@WTL@@QEAAAEAV01@AEBV01@@Z 0000000180003398 f i mdump.obj
 0001:000023b8       ??_GCString@WTL@@QEAAPEAXI@Z 00000001800033b8 f i mdump.obj
 0001:00002408       ??_GMiniDumper@@UEAAPEAXI@Z 0000000180003408 f i mdump.obj
 0001:00002408       ??_EMiniDumper@@UEAAPEAXI@Z 0000000180003408 f i mdump.obj
 0001:00002438       ??_GTotalUptimeAndCrashCalculator@@QEAAPEAXI@Z 0000000180003438 f i mdump.obj
 0001:00002468       ??_G_Generic_error_category@std@@UEAAPEAXI@Z 0000000180003468 f i mdump.obj
 0001:00002468       ??_E_Generic_error_category@std@@UEAAPEAXI@Z 0000000180003468 f i mdump.obj
 0001:00002490       ??_E_Iostream_error_category@std@@UEAAPEAXI@Z 0000000180003490 f i mdump.obj
 0001:00002490       ??_G_Iostream_error_category@std@@UEAAPEAXI@Z 0000000180003490 f i mdump.obj
 0001:000024b8       ??_G_System_error_category@std@@UEAAPEAXI@Z 00000001800034b8 f i mdump.obj
 0001:000024b8       ??_E_System_error_category@std@@UEAAPEAXI@Z 00000001800034b8 f i mdump.obj
 0001:000024e0       ??_Eerror_category@std@@UEAAPEAXI@Z 00000001800034e0 f i mdump.obj
 0001:000024e0       ??_Gerror_category@std@@UEAAPEAXI@Z 00000001800034e0 f i mdump.obj
 0001:00002508       ?AllocGuardMemory@MiniDumper@@QEAA_NXZ 0000000180003508 f   mdump.obj
 0001:00002554       ?AtlMessageBox@WTL@@YAHPEAUHWND__@@V_U_STRINGorID@ATL@@1I@Z 0000000180003554 f i mdump.obj
 0001:00002708       ?Compare@CString@WTL@@QEBAHPEB_W@Z 0000000180003708 f i mdump.obj
 0001:00002710       ?CreateReportThreaded@MiniDumper@@SAIPEAX@Z 0000000180003710 f   mdump.obj
 0001:00002a6c       ?Delete@CString@WTL@@QEAAHHH@Z 0000000180003a6c f i mdump.obj
 0001:00002afc       ?Delta@TotalUptimeAndCrashCalculator@@QEAA_JU_SYSTEMTIME@@0@Z 0000000180003afc f i mdump.obj
 0001:00002b60       ?ExceptionHandler@MiniDumper@@SAJPEAU_EXCEPTION_POINTERS@@K@Z 0000000180003b60 f   mdump.obj
 0001:00002ea0       ?Format@CString@WTL@@QEAAHPEB_WZZ 0000000180003ea0 f i mdump.obj
 0001:00002ec4       ?FormatMessageW@CString@WTL@@QEAAHIZZ 0000000180003ec4 f i mdump.obj
 0001:00002fa4       ?FormatV@CString@WTL@@QEAAHPEB_WPEAD@Z 0000000180003fa4 f i mdump.obj
 0001:00003370       ?FreeGuardMemory@MiniDumper@@QEAA_NXZ 0000000180004370 f   mdump.obj
 0001:000033a0       ?GetMFA@MiniDumper@@SA_NPEAXPEA_WH@Z 00000001800043a0 f   mdump.obj
 0001:000034ec       ?GetModuleInstance@CComModule@ATL@@QEAAPEAUHINSTANCE__@@XZ 00000001800044ec f i mdump.obj
 0001:000034f4       ?GetResourceInstance@CComModule@ATL@@QEAAPEAUHINSTANCE__@@XZ 00000001800044f4 f i mdump.obj
 0001:000034fc       ?IsEmpty@CString@WTL@@QEBAHXZ 00000001800044fc f i mdump.obj
 0001:00003508       ?LaunchHangDetection@MiniDumper@@QEAAXXZ 0000000180004508 f   mdump.obj
 0001:000036c8       ?MakeLower@CString@WTL@@QEAAXXZ 00000001800046c8 f i mdump.obj
 0001:000036e8       ?SendReportThreaded@MiniDumper@@SAIPEAX@Z 00000001800046e8 f   mdump.obj
 0001:00003c8c       ?SetResourceInstance@CAtlBaseModule@ATL@@QEAAPEAUHINSTANCE__@@PEAU3@@Z 0000000180004c8c f i mdump.obj
 0001:00003c94       ?SetResourceInstance@CComModule@ATL@@QEAAPEAUHINSTANCE__@@PEAU3@@Z 0000000180004c94 f i mdump.obj
 0001:00003ca0       ?TerminateHangDetection@MiniDumper@@QEAAXXZ 0000000180004ca0 f   mdump.obj
 0001:00003cf8       ?TopLevelUnhandledExceptionFilter@MiniDumper@@SAJPEAU_EXCEPTION_POINTERS@@@Z 0000000180004cf8 f   mdump.obj
 0001:00003d84       ?TrimLeft@CString@WTL@@QEAAXXZ 0000000180004d84 f i mdump.obj
 0001:00003df4       ?TrimRight@CString@WTL@@QEAAXXZ 0000000180004df4 f i mdump.obj
 0001:00003e78       ?_Adopt@_Iterator_base0@std@@QEAAXPEBX@Z 0000000180004e78 f i mdump.obj
 0001:00003e7c       ?_Compat@?$_Vector_const_iterator@V?$_Vector_val@U?$_Simple_types@VCString@WTL@@@std@@@std@@@std@@QEBAXAEBV12@@Z 0000000180004e7c f i mdump.obj
 0001:00003e80       ?_Copy@?$basic_string@DU?$char_traits@D@std@@V?$allocator@D@2@@std@@QEAAX_K0@Z 0000000180004e80 f i mdump.obj
 0001:00003f84       ?_Destroy@?$vector@VCString@WTL@@V?$allocator@VCString@WTL@@@std@@@std@@IEAAXPEAVCString@WTL@@0@Z 0000000180004f84 f i mdump.obj
 0001:00003fd0       ?_Eos@?$basic_string@DU?$char_traits@D@std@@V?$allocator@D@2@@std@@QEAAX_K@Z 0000000180004fd0 f i mdump.obj
 0001:00003fe4       ?_Getal@?$_String_alloc@$0A@U?$_String_base_types@DV?$allocator@D@std@@@std@@@std@@QEBA?AU?$_Wrap_alloc@V?$allocator@D@std@@@2@XZ 0000000180004fe4 f i mdump.obj
 0001:00003fe8       ?_Getal@?$_Vector_alloc@$0A@U?$_Vec_base_types@VCString@WTL@@V?$allocator@VCString@WTL@@@std@@@std@@@std@@QEBA?AU?$_Wrap_alloc@V?$allocator@VCString@WTL@@@std@@@2@XZ 0000000180004fe8 f i mdump.obj
 0001:00003fec       ?_Grow@?$basic_string@DU?$char_traits@D@std@@V?$allocator@D@2@@std@@QEAA_N_K_N@Z 0000000180004fec f i mdump.obj
 0001:000040b8       ?_Grow_to@?$vector@VCString@WTL@@V?$allocator@VCString@WTL@@@std@@@std@@IEBA_K_K@Z 00000001800050b8 f i mdump.obj
 0001:000040f0       ?_Inside@?$basic_string@DU?$char_traits@D@std@@V?$allocator@D@2@@std@@QEAA_NPEBD@Z 00000001800050f0 f i mdump.obj
 0001:00004130       ?_Inside@?$vector@VCString@WTL@@V?$allocator@VCString@WTL@@@std@@@std@@IEBA_NPEBVCString@WTL@@@Z 0000000180005130 f i mdump.obj
 0001:00004144       ?_Myptr@?$_String_val@U?$_Simple_types@D@std@@@std@@QEAAPEADXZ 0000000180005144 f i mdump.obj
 0001:00004154       ?_Myptr@?$_String_val@U?$_Simple_types@D@std@@@std@@QEBAPEBDXZ 0000000180005154 f i mdump.obj
 0001:00004164       ?_Orphan_all@_Container_base0@std@@QEAAXXZ 0000000180005164 f i mdump.obj
 0001:00004168       ?_Orphan_range@?$vector@VCString@WTL@@V?$allocator@VCString@WTL@@@std@@@std@@IEBAXPEAVCString@WTL@@0@Z 0000000180005168 f i mdump.obj
 0001:0000416c       ?_Reallocate@?$vector@VCString@WTL@@V?$allocator@VCString@WTL@@@std@@@std@@IEAAX_K@Z 000000018000516c f i mdump.obj
 0001:00004260       ?_Reserve@?$vector@VCString@WTL@@V?$allocator@VCString@WTL@@@std@@@std@@IEAAX_K@Z 0000000180005260 f i mdump.obj
 0001:000042d8       ?_Tidy@?$basic_string@DU?$char_traits@D@std@@V?$allocator@D@2@@std@@QEAAX_N_K@Z 00000001800052d8 f i mdump.obj
 0001:00004330       ?_Tidy@?$vector@VCString@WTL@@V?$allocator@VCString@WTL@@@std@@@std@@IEAAXXZ 0000000180005330 f i mdump.obj
 0001:000043a4       ?_Unused_capacity@?$vector@VCString@WTL@@V?$allocator@VCString@WTL@@@std@@@std@@QEBA_KXZ 00000001800053a4 f i mdump.obj
 0001:000043b4       ?_Xlen@?$basic_string@DU?$char_traits@D@std@@V?$allocator@D@2@@std@@QEBAXXZ 00000001800053b4 f i mdump.obj
 0001:000043c8       ?_Xlen@?$vector@VCString@WTL@@V?$allocator@VCString@WTL@@@std@@@std@@IEBAXXZ 00000001800053c8 f i mdump.obj
 0001:000043dc       ?_Xran@?$basic_string@DU?$char_traits@D@std@@V?$allocator@D@2@@std@@QEBAXXZ 00000001800053dc f i mdump.obj
 0001:000043f0       ?_cstrcmp@CString@WTL@@KAHPEB_W0@Z 00000001800053f0 f i mdump.obj
 0001:000043f8       ?_cstrisdigit@CString@WTL@@KAH_W@Z 00000001800053f8 f i mdump.obj
 0001:00004400       ?_cstrisspace@CString@WTL@@KAH_W@Z 0000000180005400 f i mdump.obj
 0001:00004408       ?_cstrtoi@CString@WTL@@KAHPEB_W@Z 0000000180005408 f i mdump.obj
 0001:00004410       ?allocate@?$_Wrap_alloc@V?$allocator@D@std@@@std@@QEAAPEAD_K@Z 0000000180005410 f i mdump.obj
 0001:0000443c       ?allocate@?$_Wrap_alloc@V?$allocator@VCString@WTL@@@std@@@std@@QEAAPEAVCString@WTL@@_K@Z 000000018000543c f i mdump.obj
 0001:00004474       ?allocate@?$allocator@D@std@@QEAAPEAD_K@Z 0000000180005474 f i mdump.obj
 0001:000044a0       ?allocate@?$allocator@VCString@WTL@@@std@@QEAAPEAVCString@WTL@@_K@Z 00000001800054a0 f i mdump.obj
 0001:000044d8       ?assign@?$basic_string@DU?$char_traits@D@std@@V?$allocator@D@2@@std@@QEAAAEAV12@AEBV12@_K1@Z 00000001800054d8 f i mdump.obj
 0001:000045c0       ?assign@?$basic_string@DU?$char_traits@D@std@@V?$allocator@D@2@@std@@QEAAAEAV12@PEBD@Z 00000001800055c0 f i mdump.obj
 0001:000045f8       ?assign@?$basic_string@DU?$char_traits@D@std@@V?$allocator@D@2@@std@@QEAAAEAV12@PEBD_K@Z 00000001800055f8 f i mdump.obj
 0001:000046bc       ?assign@?$char_traits@D@std@@SAXAEADAEBD@Z 00000001800056bc f i mdump.obj
 0001:000046c4       ?begin@?$vector@VCString@WTL@@V?$allocator@VCString@WTL@@@std@@@std@@QEAA?AV?$_Vector_iterator@V?$_Vector_val@U?$_Simple_types@VCString@WTL@@@std@@@std@@@2@XZ 00000001800056c4 f i mdump.obj
 0001:000046d0       ?bugsplatMessage@MiniDumper@@SAIPEB_WII@Z 00000001800056d0 f   mdump.obj
 0001:00004714       ?capacity@?$vector@VCString@WTL@@V?$allocator@VCString@WTL@@@std@@@std@@QEBA_KXZ 0000000180005714 f i mdump.obj
 0001:00004720       ?capture@TotalUptimeAndCrashCalculator@@QEAAX_N@Z 0000000180005720 f i mdump.obj
 0001:00004948       ?category@error_code@std@@QEBAAEBVerror_category@2@XZ 0000000180005948 f i mdump.obj
 0001:00004950       ?category@error_condition@std@@QEBAAEBVerror_category@2@XZ 0000000180005950 f i mdump.obj
 0001:00004958       ?copy@?$char_traits@D@std@@SAPEADPEADPEBD_K@Z 0000000180005958 f i mdump.obj
 0001:00004974       ?createReport@MiniDumper@@QEAAXK@Z 0000000180005974 f   mdump.obj
 0001:0000499c       ?createReport@MiniDumper@@QEAAXPEAU_EXCEPTION_POINTERS@@@Z 000000018000599c f   mdump.obj
 0001:000049c4       ?createReport@MiniDumper@@QEAAXPEB_W@Z 00000001800059c4 f   mdump.obj
 0001:00004a18       ?deallocate@?$_Wrap_alloc@V?$allocator@D@std@@@std@@QEAAXPEAD_K@Z 0000000180005a18 f i mdump.obj
 0001:00004a20       ?deallocate@?$_Wrap_alloc@V?$allocator@VCString@WTL@@@std@@@std@@QEAAXPEAVCString@WTL@@_K@Z 0000000180005a20 f i mdump.obj
 0001:00004a28       ?deallocate@?$allocator@D@std@@QEAAXPEAD_K@Z 0000000180005a28 f i mdump.obj
 0001:00004a30       ?deallocate@?$allocator@VCString@WTL@@@std@@QEAAXPEAVCString@WTL@@_K@Z 0000000180005a30 f i mdump.obj
 0001:00004a38       ?debugMode@@YA_NXZ         0000000180005a38 f   mdump.obj
 0001:00004ae4       ?default_error_condition@_System_error_category@std@@UEBA?AVerror_condition@2@H@Z 0000000180005ae4 f i mdump.obj
 0001:00004b24       ?default_error_condition@error_category@std@@UEBA?AVerror_condition@2@H@Z 0000000180005b24 f i mdump.obj
 0001:00004b30       ?eatException@@YA_NK@Z     0000000180005b30 f i mdump.obj
 0001:00004b90       ?enableExceptionFilter@MiniDumper@@QEAA_N_N@Z 0000000180005b90 f   mdump.obj
 0001:00004ba8       ?enableFullMemoryDumpAndExit@MiniDumper@@QEAA_N_N@Z 0000000180005ba8 f   mdump.obj
 0001:00004bb4       ?end@?$vector@VCString@WTL@@V?$allocator@VCString@WTL@@@std@@@std@@QEAA?AV?$_Vector_iterator@V?$_Vector_val@U?$_Simple_types@VCString@WTL@@@std@@@std@@@2@XZ 0000000180005bb4 f i mdump.obj
 0001:00004bc0       ?equivalent@error_category@std@@UEBA_NAEBVerror_code@2@H@Z 0000000180005bc0 f i mdump.obj
 0001:00004bd4       ?equivalent@error_category@std@@UEBA_NHAEBVerror_condition@2@@Z 0000000180005bd4 f i mdump.obj
 0001:00004c0c       ?erase@?$basic_string@DU?$char_traits@D@std@@V?$allocator@D@2@@std@@QEAAAEAV12@_K0@Z 0000000180005c0c f i mdump.obj
 0001:00004ca8       ?erase@?$basic_string@DU?$char_traits@D@std@@V?$allocator@D@2@@std@@QEAAAEAV12@_K@Z 0000000180005ca8 f i mdump.obj
 0001:00004ce0       ?fileVersionInfo@@YA_NPEA_WAEAK1@Z 0000000180005ce0 f   mdump.obj
 0001:00004d80       ?foundResources@ResourceSwitch@@QEAA_NXZ 0000000180005d80 f i mdump.obj
 0001:00004d8c       ?generic_category@std@@YAAEBVerror_category@1@XZ 0000000180005d8c f i mdump.obj
 0001:00004d94       ?getFlags@MiniDumper@@QEBAKXZ 0000000180005d94 f i mdump.obj
 0001:00004d9c       ?getLogFilePath@MiniDumper@@QEAAPEB_WXZ 0000000180005d9c f   mdump.obj
 0001:00004da4       ?getMiniDumpType@MiniDumper@@QEBA?AW4_BS_MINIDUMP_TYPE@MiniDmpSender@@XZ 0000000180005da4 f   mdump.obj
 0001:00004dac       ?getRegistryBase@@YAXAEAVCString@WTL@@@Z 0000000180005dac f   mdump.obj
 0001:00004dd8       ?getRegistryRoot@@YAXAEAVCString@WTL@@PEB_W11@Z 0000000180005dd8 f   mdump.obj
 0001:00004e54       ?initExceptionHandler@MiniDumper@@QEAAXPEB_W000K@Z 0000000180005e54 f   mdump.obj
 0001:00005168       ?invalid_parameter_handler@@YAXPEB_W00I_K@Z 0000000180006168 f i mdump.obj
 0001:00005174       ?isExceptionFilterEnabled@MiniDumper@@QEBA_NXZ 0000000180006174 f   mdump.obj
 0001:0000517c       ?isFullMemoryDumpAndExitEnabled@MiniDumper@@QEBA_NXZ 000000018000617c f   mdump.obj
 0001:00005184       ?length@?$char_traits@D@std@@SA_KPEBD@Z 0000000180006184 f i mdump.obj
 0001:00005198       ?logOutput@@YAXIPEB_W_N@Z  0000000180006198 f   mdump.obj
 0001:000053dc       ?max_size@?$_Wrap_alloc@V?$allocator@D@std@@@std@@QEBA_KXZ 00000001800063dc f i mdump.obj
 0001:000053e4       ?max_size@?$_Wrap_alloc@V?$allocator@VCString@WTL@@@std@@@std@@QEBA_KXZ 00000001800063e4 f i mdump.obj
 0001:000053f0       ?max_size@?$allocator@D@std@@QEBA_KXZ 00000001800063f0 f i mdump.obj
 0001:000053f8       ?max_size@?$allocator@VCString@WTL@@@std@@QEBA_KXZ 00000001800063f8 f i mdump.obj
 0001:00005404       ?max_size@?$allocator_traits@V?$allocator@D@std@@@std@@SA_KAEBV?$allocator@D@2@@Z 0000000180006404 f i mdump.obj
 0001:0000540c       ?max_size@?$allocator_traits@V?$allocator@VCString@WTL@@@std@@@std@@SA_KAEBV?$allocator@VCString@WTL@@@2@@Z 000000018000640c f i mdump.obj
 0001:00005418       ?max_size@?$basic_string@DU?$char_traits@D@std@@V?$allocator@D@2@@std@@QEBA_KXZ 0000000180006418 f i mdump.obj
 0001:00005420       ?max_size@?$vector@VCString@WTL@@V?$allocator@VCString@WTL@@@std@@@std@@QEBA_KXZ 0000000180006420 f i mdump.obj
 0001:0000542c       ?message@_Generic_error_category@std@@UEBA?AV?$basic_string@DU?$char_traits@D@std@@V?$allocator@D@2@@2@H@Z 000000018000642c f i mdump.obj
 0001:00005498       ?message@_Iostream_error_category@std@@UEBA?AV?$basic_string@DU?$char_traits@D@std@@V?$allocator@D@2@@2@H@Z 0000000180006498 f i mdump.obj
 0001:000054ec       ?message@_System_error_category@std@@UEBA?AV?$basic_string@DU?$char_traits@D@std@@V?$allocator@D@2@@2@H@Z 00000001800064ec f i mdump.obj
 0001:00005558       ?move@?$char_traits@D@std@@SAPEADPEADPEBD_K@Z 0000000180006558 f i mdump.obj
 0001:00005574       ?name@_Generic_error_category@std@@UEBAPEBDXZ 0000000180006574 f i mdump.obj
 0001:0000557c       ?name@_Iostream_error_category@std@@UEBAPEBDXZ 000000018000657c f i mdump.obj
 0001:00005584       ?name@_System_error_category@std@@UEBAPEBDXZ 0000000180006584 f i mdump.obj
 0001:0000558c       ?pointer_to@?$pointer_traits@PEAVCString@WTL@@@std@@SAPEAVCString@WTL@@AEAV34@@Z 000000018000658c f i mdump.obj
 0001:00005590       ?push_back@?$vector@VCString@WTL@@V?$allocator@VCString@WTL@@@std@@@std@@QEAAX$$QEAVCString@WTL@@@Z 0000000180006590 f i mdump.obj
 0001:00005600       ?removeAdditionalFile@MiniDumper@@QEAA_NPEB_W@Z 0000000180006600 f   mdump.obj
 0001:0000566c       ?resetDescriptionString@MiniDumper@@QEAAXPEB_W@Z 000000018000666c f   mdump.obj
 0001:000056a4       ?resetVersionString@MiniDumper@@QEAAXPEB_W@Z 00000001800066a4 f   mdump.obj
 0001:000056dc       ?sendAdditionalFile@MiniDumper@@QEAAXPEB_W@Z 00000001800066dc f   mdump.obj
 0001:0000572c       ?setCallback@MiniDumper@@QEAAXP6A_NIPEAX0@Z@Z 000000018000672c f   mdump.obj
 0001:00005734       ?setDefaultUserDescription@MiniDumper@@QEAAXPEB_W@Z 0000000180006734 f   mdump.obj
 0001:0000576c       ?setDefaultUserEmail@MiniDumper@@QEAAXPEB_W@Z 000000018000676c f   mdump.obj
 0001:000057a4       ?setDefaultUserName@MiniDumper@@QEAAXPEB_W@Z 00000001800067a4 f   mdump.obj
 0001:000057dc       ?setFlags@MiniDumper@@QEAA_NK@Z 00000001800067dc f   mdump.obj
 0001:00005828       ?setGuardByteBufferSize@MiniDumper@@QEAAHH@Z 0000000180006828 f   mdump.obj
 0001:00005868       ?setLogFilePath@MiniDumper@@QEAAXPEB_W@Z 0000000180006868 f   mdump.obj
 0001:000058a0       ?setMiniDumpType@MiniDumper@@QEAAXW4_BS_MINIDUMP_TYPE@MiniDmpSender@@@Z 00000001800068a0 f   mdump.obj
 0001:000058a8       ?setResourceDllPath@MiniDumper@@QEAAXPEB_W@Z 00000001800068a8 f   mdump.obj
 0001:000058e0       ?setUserZipPath@MiniDumper@@QEAAXPEB_W@Z 00000001800068e0 f   mdump.obj
 0001:00005918       ?signal_handler@@YAXH@Z    0000000180006918 f i mdump.obj
 0001:00005924       ?size@?$basic_string@DU?$char_traits@D@std@@V?$allocator@D@2@@std@@QEBA_KXZ 0000000180006924 f i mdump.obj
 0001:0000592c       ?size@?$vector@VCString@WTL@@V?$allocator@VCString@WTL@@@std@@@std@@QEBA_KXZ 000000018000692c f i mdump.obj
 0001:00005938       ?system_category@std@@YAAEBVerror_category@1@XZ 0000000180006938 f i mdump.obj
 0001:00005940       ?terminator@@YAXXZ         0000000180006940 f i mdump.obj
 0001:0000594c       ?value@error_code@std@@QEBAHXZ 000000018000694c f i mdump.obj
 0001:00005950       ?value@error_condition@std@@QEBAHXZ 0000000180006950 f i mdump.obj
 0001:00005954       ?wcsrchr@@YAPEA_WPEA_W_W@Z 0000000180006954 f i mdump.obj
 0001:0000595c       hypot                      000000018000695c f i mdump.obj
 0001:00005974       ??0MiniDmpSender@@QEAA@PEB_W000K@Z 0000000180006974 f   sbSender.obj
 0001:00005a0c       ??1MiniDmpSender@@UEAA@XZ  0000000180006a0c f   sbSender.obj
 0001:00005a40       ?createReport@MiniDmpSender@@QEAAXPEAU_EXCEPTION_POINTERS@@@Z 0000000180006a40 f   sbSender.obj
 0001:00005a4c       ?createReport@MiniDmpSender@@QEAAXPEB_W@Z 0000000180006a4c f   sbSender.obj
 0001:00005a58       ?enableExceptionFilter@MiniDmpSender@@QEAA_N_N@Z 0000000180006a58 f   sbSender.obj
 0001:00005a64       ?enableFullMemoryDumpAndExit@MiniDmpSender@@QEAA_N_N@Z 0000000180006a64 f   sbSender.obj
 0001:00005a70       ?getFlags@MiniDmpSender@@QEBAKXZ 0000000180006a70 f   sbSender.obj
 0001:00005a7c       ?getMiniDumpType@MiniDmpSender@@QEBA?AW4_BS_MINIDUMP_TYPE@1@XZ 0000000180006a7c f   sbSender.obj
 0001:00005a88       ?getMinidumpPath@MiniDmpSender@@QEAAXPEA_W_K@Z 0000000180006a88 f   sbSender.obj
 0001:00005aa8       ?imp@MiniDmpSender@@QEAAPEAXXZ 0000000180006aa8 f   sbSender.obj
 0001:00005ab0       ?imp@MiniDumper@@QEAAPEAXXZ 0000000180006ab0 f i sbSender.obj
 0001:00005ab8       ?isExceptionFilterEnabled@MiniDmpSender@@QEBA_NXZ 0000000180006ab8 f   sbSender.obj
 0001:00005ac4       ?isFullMemoryDumpAndExitEnabled@MiniDmpSender@@QEBA_NXZ 0000000180006ac4 f   sbSender.obj
 0001:00005ad0       ?removeAdditionalFile@MiniDmpSender@@QEAA_NPEB_W@Z 0000000180006ad0 f   sbSender.obj
 0001:00005adc       ?resetAppIdentifier@MiniDmpSender@@QEAAXPEB_W@Z 0000000180006adc f   sbSender.obj
 0001:00005ae8       ?resetVersionString@MiniDmpSender@@QEAAXPEB_W@Z 0000000180006ae8 f   sbSender.obj
 0001:00005af4       ?sendAdditionalFile@MiniDmpSender@@QEAAXPEB_W@Z 0000000180006af4 f   sbSender.obj
 0001:00005b00       ?setCallback@MiniDmpSender@@QEAAXP6A_NIPEAX0@Z@Z 0000000180006b00 f   sbSender.obj
 0001:00005b0c       ?setDefaultUserDescription@MiniDmpSender@@QEAAXPEB_W@Z 0000000180006b0c f   sbSender.obj
 0001:00005b18       ?setDefaultUserEmail@MiniDmpSender@@QEAAXPEB_W@Z 0000000180006b18 f   sbSender.obj
 0001:00005b24       ?setDefaultUserName@MiniDmpSender@@QEAAXPEB_W@Z 0000000180006b24 f   sbSender.obj
 0001:00005b30       ?setFlags@MiniDmpSender@@QEAA_NK@Z 0000000180006b30 f   sbSender.obj
 0001:00005b3c       ?setGuardByteBufferSize@MiniDmpSender@@QEAAHH@Z 0000000180006b3c f   sbSender.obj
 0001:00005b48       ?setLogFilePath@MiniDmpSender@@QEAAXPEB_W@Z 0000000180006b48 f   sbSender.obj
 0001:00005b54       ?setMiniDumpType@MiniDmpSender@@QEAAXW4_BS_MINIDUMP_TYPE@1@@Z 0000000180006b54 f   sbSender.obj
 0001:00005b60       ?setResourceDllPath@MiniDmpSender@@QEAAXPEB_W@Z 0000000180006b60 f   sbSender.obj
 0001:00005b6c       ?setUserZipPath@MiniDmpSender@@QEAAXPEB_W@Z 0000000180006b6c f   sbSender.obj
 0001:00005b78       ?unhandledExceptionHandler@MiniDmpSender@@QEAAJPEAU_EXCEPTION_POINTERS@@@Z 0000000180006b78 f   sbSender.obj
 0001:00005b80       ??$?2PEA_W@?$Wrapper@PEA_W@?$CSimpleMap@PEA_WPEA_WVCExpansionVectorEqualHelper@ATL@@@ATL@@SAPEAX_KPEAPEA_W@Z 0000000180006b80 f i sbSenderApp.obj
 0001:00005b84       ??$?3PEA_W@?$Wrapper@PEA_W@?$CSimpleMap@PEA_WPEA_WVCExpansionVectorEqualHelper@ATL@@@ATL@@SAXPEAXPEAPEA_W@Z 0000000180006b84 f i sbSenderApp.obj
 0001:00005b88       ??$AtlMultiply@K@ATL@@YAJPEAKKK@Z 0000000180006b88 f i sbSenderApp.obj
 0001:00005ba8       ??$AtlMultiply@_K@ATL@@YAJPEA_K_K1@Z 0000000180006ba8 f i sbSenderApp.obj
 0001:00005bd4       ??$AtlMultiplyThrow@_K@ATL@@YA_K_K0@Z 0000000180006bd4 f i sbSenderApp.obj
 0001:00005c08       ??0?$CAtlModuleT@VCComModule@ATL@@@ATL@@QEAA@XZ 0000000180006c08 f i sbSenderApp.obj
 0001:00005c20       ??0?$CAtlSafeAllocBufferManager@VCCRTAllocator@ATL@@@_ATL_SAFE_ALLOCA_IMPL@ATL@@QEAA@XZ 0000000180006c20 f i sbSenderApp.obj
 0001:00005c28       ??0?$CAutoVectorPtr@_W@ATL@@QEAA@XZ 0000000180006c28 f i sbSenderApp.obj
 0001:00005c30       ??0?$CComCritSecLock@VCComCriticalSection@ATL@@@ATL@@QEAA@AEAVCComCriticalSection@1@_N@Z 0000000180006c30 f i sbSenderApp.obj
 0001:00005c5c       ??0?$CSimpleMap@KPEAVCMessageLoop@WTL@@V?$CSimpleMapEqualHelper@KPEAVCMessageLoop@WTL@@@ATL@@@ATL@@QEAA@XZ 0000000180006c5c f i sbSenderApp.obj
 0001:00005c6c       ??0?$CSimpleMap@PEA_WPEA_WVCExpansionVectorEqualHelper@ATL@@@ATL@@QEAA@XZ 0000000180006c6c f i sbSenderApp.obj
 0001:00005c7c       ??0?$CTempBuffer@E$0BAA@VCCRTAllocator@ATL@@@ATL@@QEAA@XZ 0000000180006c7c f i sbSenderApp.obj
 0001:00005c84       ??0?$CTempBuffer@_W$0BAA@VCCRTAllocator@ATL@@@ATL@@QEAA@XZ 0000000180006c84 f i sbSenderApp.obj
 0001:00005c8c       ??0?$CTempBuffer@_W$0EAA@VCCRTAllocator@ATL@@@ATL@@QEAA@XZ 0000000180006c8c f i sbSenderApp.obj
 0001:00005c94       ??0?$Wrapper@PEA_W@?$CSimpleMap@PEA_WPEA_WVCExpansionVectorEqualHelper@ATL@@@ATL@@QEAA@AEBQEA_W@Z 0000000180006c94 f i sbSenderApp.obj
 0001:00005ca0       ??0CAppModule@WTL@@QEAA@XZ 0000000180006ca0 f i sbSenderApp.obj
 0001:00005cc8       ??0CAtlComModule@ATL@@QEAA@XZ 0000000180006cc8 f i sbSenderApp.obj
 0001:00005d50       ??0CAtlException@ATL@@QEAA@J@Z 0000000180006d50 f i sbSenderApp.obj
 0001:00005d58       ??0CAtlModule@ATL@@QEAA@XZ 0000000180006d58 f i sbSenderApp.obj
 0001:00005dd4       ??0CComAutoDeleteCriticalSection@ATL@@QEAA@XZ 0000000180006dd4 f i sbSenderApp.obj
 0001:00005df8       ??0CComCriticalSection@ATL@@QEAA@XZ 0000000180006df8 f i sbSenderApp.obj
 0001:00005e18       ??0CComModule@ATL@@QEAA@XZ 0000000180006e18 f i sbSenderApp.obj
 0001:00005e40       ??0CComSafeDeleteCriticalSection@ATL@@QEAA@XZ 0000000180006e40 f i sbSenderApp.obj
 0001:00005e64       ??0CExpansionVector@ATL@@QEAA@XZ 0000000180006e64 f i sbSenderApp.obj
 0001:00005e74       ??0CParseBuffer@CRegParser@ATL@@QEAA@H@Z 0000000180006e74 f i sbSenderApp.obj
 0001:00005ec8       ??0CRegKey@ATL@@QEAA@PEAVCAtlTransactionManager@1@@Z 0000000180006ec8 f i sbSenderApp.obj
 0001:00005ed8       ??0CRegObject@ATL@@QEAA@XZ 0000000180006ed8 f i sbSenderApp.obj
 0001:00005f20       ??0CRegParser@ATL@@QEAA@PEAVCRegObject@1@@Z 0000000180006f20 f i sbSenderApp.obj
 0001:00005f2c       ??0CStaticDataInitCriticalSectionLock@WTL@@QEAA@XZ 0000000180006f2c f i sbSenderApp.obj
 0001:00005f44       ??0IRegistrarBase@@QEAA@XZ 0000000180006f44 f i sbSenderApp.obj
 0001:00005f48       ??0IUnknown@@QEAA@XZ       0000000180006f48 f i sbSenderApp.obj
 0001:00005f4c       ??0_ATL_COM_MODULE70@ATL@@QEAA@XZ 0000000180006f4c f i sbSenderApp.obj
 0001:00005f70       ??0_ATL_MODULE70@ATL@@QEAA@XZ 0000000180006f70 f i sbSenderApp.obj
 0001:00005f94       ??1?$CAtlModuleT@VCComModule@ATL@@@ATL@@UEAA@XZ 0000000180006f94 f i sbSenderApp.obj
 0001:00005fe8       ??1?$CAtlSafeAllocBufferManager@VCCRTAllocator@ATL@@@_ATL_SAFE_ALLOCA_IMPL@ATL@@QEAA@XZ 0000000180006fe8 f i sbSenderApp.obj
 0001:00006014       ??1?$CAutoVectorPtr@_W@ATL@@QEAA@XZ 0000000180007014 f i sbSenderApp.obj
 0001:00006030       ??1?$CComCritSecLock@VCComCriticalSection@ATL@@@ATL@@QEAA@XZ 0000000180007030 f i sbSenderApp.obj
 0001:00006054       ??1?$CSimpleArray@PEAUHWND__@@V?$CSimpleArrayEqualHelper@PEAUHWND__@@@ATL@@@ATL@@QEAA@XZ 0000000180007054 f i sbSenderApp.obj
 0001:0000607c       ??1?$CSimpleMap@KPEAVCMessageLoop@WTL@@V?$CSimpleMapEqualHelper@KPEAVCMessageLoop@WTL@@@ATL@@@ATL@@QEAA@XZ 000000018000707c f i sbSenderApp.obj
 0001:000060b4       ??1?$CSimpleMap@PEA_WPEA_WVCExpansionVectorEqualHelper@ATL@@@ATL@@QEAA@XZ 00000001800070b4 f i sbSenderApp.obj
 0001:000060ec       ??1?$CTempBuffer@E$0BAA@VCCRTAllocator@ATL@@@ATL@@QEAA@XZ 00000001800070ec f i sbSenderApp.obj
 0001:00006104       ??1?$CTempBuffer@_W$0BAA@VCCRTAllocator@ATL@@@ATL@@QEAA@XZ 0000000180007104 f i sbSenderApp.obj
 0001:0000611c       ??1?$CTempBuffer@_W$0EAA@VCCRTAllocator@ATL@@@ATL@@QEAA@XZ 000000018000711c f i sbSenderApp.obj
 0001:00006134       ??1CAppModule@WTL@@UEAA@XZ 0000000180007134 f i sbSenderApp.obj
 0001:00006190       ??1CAtlComModule@ATL@@QEAA@XZ 0000000180007190 f i sbSenderApp.obj
 0001:00006198       ??1CAtlModule@ATL@@UEAA@XZ 0000000180007198 f i sbSenderApp.obj
 0001:000061ec       ??1CComAutoDeleteCriticalSection@ATL@@QEAA@XZ 00000001800071ec f i sbSenderApp.obj
 0001:00006208       ??1CComCriticalSection@ATL@@QEAA@XZ 0000000180007208 f i sbSenderApp.obj
 0001:0000620c       ??1CComModule@ATL@@UEAA@XZ 000000018000720c f i sbSenderApp.obj
 0001:00006268       ??1CComSafeDeleteCriticalSection@ATL@@QEAA@XZ 0000000180007268 f i sbSenderApp.obj
 0001:00006284       ??1CExpansionVector@ATL@@QEAA@XZ 0000000180007284 f i sbSenderApp.obj
 0001:000062d0       ??1CParseBuffer@CRegParser@ATL@@QEAA@XZ 00000001800072d0 f i sbSenderApp.obj
 0001:000062dc       ??1CRegKey@ATL@@QEAA@XZ    00000001800072dc f i sbSenderApp.obj
 0001:00006304       ??1CRegObject@ATL@@UEAA@XZ 0000000180007304 f i sbSenderApp.obj
 0001:000063a4       ??1CStaticDataInitCriticalSectionLock@WTL@@QEAA@XZ 00000001800073a4 f i sbSenderApp.obj
 0001:000063c8       ??1_ATL_COM_MODULE70@ATL@@QEAA@XZ 00000001800073c8 f i sbSenderApp.obj
 0001:000063cc       ??1_ATL_MODULE70@ATL@@QEAA@XZ 00000001800073cc f i sbSenderApp.obj
 0001:000063d0       ??A?$CSimpleArray@PEAUHWND__@@V?$CSimpleArrayEqualHelper@PEAUHWND__@@@ATL@@@ATL@@QEAAAEAPEAUHWND__@@H@Z 00000001800073d0 f i sbSenderApp.obj
 0001:00006404       ??B?$CTempBuffer@E$0BAA@VCCRTAllocator@ATL@@@ATL@@QEBAPEAEXZ 0000000180007404 f i sbSenderApp.obj
 0001:00006408       ??B?$CTempBuffer@_W$0BAA@VCCRTAllocator@ATL@@@ATL@@QEBAPEA_WXZ 0000000180007408 f i sbSenderApp.obj
 0001:0000640c       ??B?$CTempBuffer@_W$0EAA@VCCRTAllocator@ATL@@@ATL@@QEBAPEA_WXZ 000000018000740c f i sbSenderApp.obj
 0001:00006410       ??BCRegKey@ATL@@QEBAPEAUHKEY__@@XZ 0000000180007410 f i sbSenderApp.obj
 0001:00006414       ??_G?$CSimpleArray@PEAUHWND__@@V?$CSimpleArrayEqualHelper@PEAUHWND__@@@ATL@@@ATL@@QEAAPEAXI@Z 0000000180007414 f i sbSenderApp.obj
 0001:00006458       ??_G?$CSimpleMap@KPEAVCMessageLoop@WTL@@V?$CSimpleMapEqualHelper@KPEAVCMessageLoop@WTL@@@ATL@@@ATL@@QEAAPEAXI@Z 0000000180007458 f i sbSenderApp.obj
 0001:000064ac       ??_ECAppModule@WTL@@UEAAPEAXI@Z 00000001800074ac f i sbSenderApp.obj
 0001:000064ac       ??_GCAppModule@WTL@@UEAAPEAXI@Z 00000001800074ac f i sbSenderApp.obj
 0001:00006524       ??_ECComModule@ATL@@UEAAPEAXI@Z 0000000180007524 f i sbSenderApp.obj
 0001:00006524       ??_GCComModule@ATL@@UEAAPEAXI@Z 0000000180007524 f i sbSenderApp.obj
 0001:0000659c       ??_ECRegObject@ATL@@UEAAPEAXI@Z 000000018000759c f i sbSenderApp.obj
 0001:0000659c       ??_GCRegObject@ATL@@UEAAPEAXI@Z 000000018000759c f i sbSenderApp.obj
 0001:000065cc       ?Add@?$CSimpleMap@PEA_WPEA_WVCExpansionVectorEqualHelper@ATL@@@ATL@@QEAAHAEBQEA_W0@Z 00000001800075cc f i sbSenderApp.obj
 0001:00006668       ?Add@CExpansionVector@ATL@@QEAAHPEB_W0@Z 0000000180007668 f i sbSenderApp.obj
 0001:00006830       ?AddChar@CParseBuffer@CRegParser@ATL@@QEAAHPEB_W@Z 0000000180007830 f i sbSenderApp.obj
 0001:0000683c       ?AddCommonRGSReplacements@?$CAtlModuleT@VCComModule@ATL@@@ATL@@UEAAJPEAUIRegistrarBase@@@Z 000000018000783c f i sbSenderApp.obj
 0001:00006854       ?AddRef@CRegObject@ATL@@UEAAKXZ 0000000180007854 f i sbSenderApp.obj
 0001:0000685c       ?AddReplacement@CRegObject@ATL@@UEAAJPEB_W0@Z 000000018000785c f i sbSenderApp.obj
 0001:000068e0       ?AddString@CParseBuffer@CRegParser@ATL@@QEAAHPEB_W@Z 00000001800078e0 f i sbSenderApp.obj
 0001:0000692c       ?AddValue@CRegParser@ATL@@IEAAJAEAVCRegKey@2@PEB_WPEA_W@Z 000000018000792c f i sbSenderApp.obj
 0001:00006d74       ?Allocate@?$CTempBuffer@E$0BAA@VCCRTAllocator@ATL@@@ATL@@QEAAPEAE_K@Z 0000000180007d74 f i sbSenderApp.obj
 0001:00006dc4       ?Allocate@?$CTempBuffer@_W$0BAA@VCCRTAllocator@ATL@@@ATL@@QEAAPEA_W_K@Z 0000000180007dc4 f i sbSenderApp.obj
 0001:00006e14       ?Allocate@?$CTempBuffer@_W$0EAA@VCCRTAllocator@ATL@@@ATL@@QEAAPEA_W_K@Z 0000000180007e14 f i sbSenderApp.obj
 0001:00006e64       ?Allocate@CCRTAllocator@ATL@@SAPEAX_K@Z 0000000180007e64 f i sbSenderApp.obj
 0001:00006e6c       ?AllocateBytes@?$CTempBuffer@E$0BAA@VCCRTAllocator@ATL@@@ATL@@QEAAPEAE_K@Z 0000000180007e6c f i sbSenderApp.obj
 0001:00006e98       ?AllocateBytes@?$CTempBuffer@_W$0BAA@VCCRTAllocator@ATL@@@ATL@@QEAAPEA_W_K@Z 0000000180007e98 f i sbSenderApp.obj
 0001:00006ec4       ?AllocateBytes@?$CTempBuffer@_W$0EAA@VCCRTAllocator@ATL@@@ATL@@QEAAPEA_W_K@Z 0000000180007ec4 f i sbSenderApp.obj
 0001:00006ef0       ?AllocateHeap@?$CTempBuffer@E$0BAA@VCCRTAllocator@ATL@@@ATL@@AEAAX_K@Z 0000000180007ef0 f i sbSenderApp.obj
 0001:00006f1c       ?AllocateHeap@?$CTempBuffer@_W$0BAA@VCCRTAllocator@ATL@@@ATL@@AEAAX_K@Z 0000000180007f1c f i sbSenderApp.obj
 0001:00006f48       ?AllocateHeap@?$CTempBuffer@_W$0EAA@VCCRTAllocator@ATL@@@ATL@@AEAAX_K@Z 0000000180007f48 f i sbSenderApp.obj
 0001:00006f74       ?Append@CParseBuffer@CRegParser@ATL@@QEAAHPEB_WH@Z 0000000180007f74 f i sbSenderApp.obj
 0001:00007080       ?AtlCallTermFunc@ATL@@YAXPEAU_ATL_MODULE70@1@@Z 0000000180008080 f i sbSenderApp.obj
 0001:000070e4       ?AtlCoTaskMemCAlloc@ATL@@YAPEAXKK@Z 00000001800080e4 f i sbSenderApp.obj
 0001:00007104       ?AtlCoTaskMemRecalloc@ATL@@YAPEAXPEAXKK@Z 0000000180008104 f i sbSenderApp.obj
 0001:00007128       ?AtlCrtErrorCheck@ATL@@YAHH@Z 0000000180008128 f i sbSenderApp.obj
 0001:0000716c       ?AtlGetPerUserRegistration@ATL@@YAJPEA_N@Z 000000018000816c f i sbSenderApp.obj
 0001:00007184       ?AtlHresultFromLastError@ATL@@YAJXZ 0000000180008184 f i sbSenderApp.obj
 0001:000071a4       ?AtlHresultFromWin32@ATL@@YAJK@Z 00000001800081a4 f i sbSenderApp.obj
 0001:000071b4       ?AtlThrowImpl@ATL@@YAXJ@Z  00000001800081b4 f i sbSenderApp.obj
 0001:000071d0       ?Attach@?$CAutoVectorPtr@_W@ATL@@QEAAXPEA_W@Z 00000001800081d0 f i sbSenderApp.obj
 0001:000071d4       ?Attach@CRegKey@ATL@@QEAAXPEAUHKEY__@@@Z 00000001800081d4 f i sbSenderApp.obj
 0001:000071e4       ?CanForceRemoveKey@CRegParser@ATL@@IEAAHPEB_W@Z 00000001800081e4 f i sbSenderApp.obj
 0001:0000722c       ?ChToByte@CRegParser@ATL@@KAE_W@Z 000000018000822c f i sbSenderApp.obj
 0001:0000725c       ?ClearReplacements@CExpansionVector@ATL@@QEAAJXZ 000000018000825c f i sbSenderApp.obj
 0001:00007310       ?ClearReplacements@CRegObject@ATL@@UEAAJXZ 0000000180008310 f i sbSenderApp.obj
 0001:0000734c       ?Close@CRegKey@ATL@@QEAAJXZ 000000018000834c f i sbSenderApp.obj
 0001:00007374       ?Create@CRegKey@ATL@@QEAAJPEAUHKEY__@@PEB_WPEA_WKKPEAU_SECURITY_ATTRIBUTES@@PEAK@Z 0000000180008374 f i sbSenderApp.obj
 0001:00007464       ?Decrement@CComMultiThreadModel@ATL@@SAKPEAJ@Z 0000000180008464 f i sbSenderApp.obj
 0001:00007470       ?DeleteSubKey@CRegKey@ATL@@QEAAJPEB_W@Z 0000000180008470 f i sbSenderApp.obj
 0001:00007508       ?DeleteValue@CRegKey@ATL@@QEAAJPEB_W@Z 0000000180008508 f i sbSenderApp.obj
 0001:00007514       ?Detach@?$CAutoVectorPtr@_W@ATL@@QEAAPEA_WXZ 0000000180008514 f i sbSenderApp.obj
 0001:0000751c       ?Detach@CParseBuffer@CRegParser@ATL@@QEAAPEA_WXZ 000000018000851c f i sbSenderApp.obj
 0001:0000752c       ?Detach@CRegKey@ATL@@QEAAPEAUHKEY__@@XZ 000000018000852c f i sbSenderApp.obj
 0001:0000753c       ?EndOfVar@CRegParser@ATL@@IEAAHXZ 000000018000853c f i sbSenderApp.obj
 0001:00007568       ?EscapeSingleQuote@CAtlModule@ATL@@SAXPEA_W_KPEB_W@Z 0000000180008568 f i sbSenderApp.obj
 0001:000075bc       ?FinalConstruct@CRegObject@ATL@@QEAAJXZ 00000001800085bc f i sbSenderApp.obj
 0001:00007604       ?FindKey@?$CSimpleMap@PEA_WPEA_WVCExpansionVectorEqualHelper@ATL@@@ATL@@QEBAHAEBQEA_W@Z 0000000180008604 f i sbSenderApp.obj
 0001:00007664       ?Free@?$CAutoVectorPtr@_W@ATL@@QEAAXXZ 0000000180008664 f i sbSenderApp.obj
 0001:00007680       ?Free@CCRTAllocator@ATL@@SAXPEAX@Z 0000000180008680 f i sbSenderApp.obj
 0001:00007688       ?FreeHeap@?$CTempBuffer@E$0BAA@VCCRTAllocator@ATL@@@ATL@@AEAAXXZ 0000000180008688 f i sbSenderApp.obj
 0001:00007690       ?FreeHeap@?$CTempBuffer@_W$0BAA@VCCRTAllocator@ATL@@@ATL@@AEAAXXZ 0000000180008690 f i sbSenderApp.obj
 0001:00007698       ?FreeHeap@?$CTempBuffer@_W$0EAA@VCCRTAllocator@ATL@@@ATL@@AEAAXXZ 0000000180008698 f i sbSenderApp.obj
 0001:000076a0       ?GenerateError@CRegParser@ATL@@IEAAJI@Z 00000001800086a0 f i sbSenderApp.obj
 0001:000076a8       ?GetAppId@?$CAtlModuleT@VCComModule@ATL@@@ATL@@SAPEB_WXZ 00000001800086a8 f i sbSenderApp.obj
 0001:000076b0       ?GetGITPtr@CAtlModule@ATL@@UEAAJPEAPEAUIGlobalInterfaceTable@@@Z 00000001800086b0 f i sbSenderApp.obj
 0001:00007720       ?GetKeyAt@?$CSimpleMap@PEA_WPEA_WVCExpansionVectorEqualHelper@ATL@@@ATL@@QEBAAEAPEA_WH@Z 0000000180008720 f i sbSenderApp.obj
 0001:00007754       ?GetLockCount@CAtlModule@ATL@@UEAAJXZ 0000000180008754 f i sbSenderApp.obj
 0001:00007758       ?GetModuleInstance@CAtlBaseModule@ATL@@QEAAPEAUHINSTANCE__@@XZ 0000000180008758 f i sbSenderApp.obj
 0001:00007760       ?GetSize@?$CSimpleArray@PEAUHWND__@@V?$CSimpleArrayEqualHelper@PEAUHWND__@@@ATL@@@ATL@@QEBAHXZ 0000000180008760 f i sbSenderApp.obj
 0001:00007764       ?GetSize@?$CSimpleMap@PEA_WPEA_WVCExpansionVectorEqualHelper@ATL@@@ATL@@QEBAHXZ 0000000180008764 f i sbSenderApp.obj
 0001:00007768       ?GetValueAt@?$CSimpleMap@PEA_WPEA_WVCExpansionVectorEqualHelper@ATL@@@ATL@@QEBAAEAPEA_WH@Z 0000000180008768 f i sbSenderApp.obj
 0001:0000779c       ?HKeyFromString@CRegParser@ATL@@KAPEAUHKEY__@@PEA_W@Z 000000018000879c f i sbSenderApp.obj
 0001:00007804       ?HasSubKeys@CRegParser@ATL@@IEAAHPEAUHKEY__@@@Z 0000000180008804 f i sbSenderApp.obj
 0001:00007864       ?Increment@CComMultiThreadModel@ATL@@SAKPEAJ@Z 0000000180008864 f i sbSenderApp.obj
 0001:00007870       ?Init@CAppModule@WTL@@QEAAJPEAU_ATL_OBJMAP_ENTRY30@ATL@@PEAUHINSTANCE__@@PEBU_GUID@@@Z 0000000180008870 f i sbSenderApp.obj
 0001:000078f4       ?Init@CComCriticalSection@ATL@@QEAAJXZ 00000001800088f4 f i sbSenderApp.obj
 0001:00007924       ?Init@CComModule@ATL@@QEAAJPEAU_ATL_OBJMAP_ENTRY30@2@PEAUHINSTANCE__@@PEBU_GUID@@@Z 0000000180008924 f i sbSenderApp.obj
 0001:00007998       ?Init@CComSafeDeleteCriticalSection@ATL@@QEAAJXZ 0000000180008998 f i sbSenderApp.obj
 0001:000079dc       ?InitLibId@?$CAtlModuleT@VCComModule@ATL@@@ATL@@SAXXZ 00000001800089dc f i sbSenderApp.obj
 0001:000079e0       ?InternalSetAtIndex@?$CSimpleMap@PEA_WPEA_WVCExpansionVectorEqualHelper@ATL@@@ATL@@QEAAXHAEBQEA_W0@Z 00000001800089e0 f i sbSenderApp.obj
 0001:00007a0c       ?IsEqualKey@CExpansionVectorEqualHelper@ATL@@SA_NQEA_W0@Z 0000000180008a0c f i sbSenderApp.obj
 0001:00007a20       ?IsSpace@CRegParser@ATL@@IEAAH_W@Z 0000000180008a20 f i sbSenderApp.obj
 0001:00007a44       ?Lock@?$CComCritSecLock@VCComCriticalSection@ATL@@@ATL@@QEAAJXZ 0000000180008a44 f i sbSenderApp.obj
 0001:00007a64       ?Lock@CAtlModule@ATL@@UEAAJXZ 0000000180008a64 f i sbSenderApp.obj
 0001:00007a74       ?Lock@CComCriticalSection@ATL@@QEAAJXZ 0000000180008a74 f i sbSenderApp.obj
 0001:00007a88       ?Lock@CComSafeDeleteCriticalSection@ATL@@QEAAJXZ 0000000180008a88 f i sbSenderApp.obj
 0001:00007a9c       ?Lock@CStaticDataInitCriticalSectionLock@WTL@@QEAAJXZ 0000000180008a9c f i sbSenderApp.obj
 0001:00007abc       ?Lookup@?$CSimpleMap@PEA_WPEA_WVCExpansionVectorEqualHelper@ATL@@@ATL@@QEBAPEA_WAEBQEA_W@Z 0000000180008abc f i sbSenderApp.obj
 0001:00007b4c       ?NextToken@CRegParser@ATL@@IEAAJPEA_W@Z 0000000180008b4c f i sbSenderApp.obj
 0001:00007cd4       ?OLE2CT_EX@@YAPEB_WPEB_WI@Z 0000000180008cd4 f i sbSenderApp.obj
 0001:00007cd8       ?Open@CRegKey@ATL@@QEAAJPEAUHKEY__@@PEB_WK@Z 0000000180008cd8 f i sbSenderApp.obj
 0001:00007d68       ?PreProcessBuffer@CRegParser@ATL@@QEAAJPEA_WPEAPEA_W@Z 0000000180008d68 f i sbSenderApp.obj
 0001:0000812c       ?QueryInterface@CRegObject@ATL@@UEAAJAEBU_GUID@@PEAPEAX@Z 000000018000912c f i sbSenderApp.obj
 0001:00008134       ?RecurseDeleteKey@CRegKey@ATL@@QEAAJPEB_W@Z 0000000180009134 f i sbSenderApp.obj
 0001:0000823c       ?RegCreateKeyExW@CAtlTransactionManager@ATL@@QEAAJPEAUHKEY__@@PEB_WKPEA_WKKQEAU_SECURITY_ATTRIBUTES@@PEAPEAU3@PEAK@Z 000000018000923c f i sbSenderApp.obj
 0001:00008370       ?RegDeleteKeyW@CAtlTransactionManager@ATL@@QEAAJPEAUHKEY__@@PEB_W@Z 0000000180009370 f i sbSenderApp.obj
 0001:000083fc       ?RegOpenKeyExW@CAtlTransactionManager@ATL@@QEAAJPEAUHKEY__@@PEB_WKKPEAPEAU3@@Z 00000001800093fc f i sbSenderApp.obj
 0001:000084b4       ?RegisterBuffer@CRegParser@ATL@@QEAAJPEA_WH@Z 00000001800094b4 f i sbSenderApp.obj
 0001:0000861c       ?RegisterFromResource@CRegObject@ATL@@IEAAJPEB_W00H@Z 000000018000961c f i sbSenderApp.obj
 0001:000087f4       ?RegisterSubkeys@CRegParser@ATL@@IEAAJPEA_WPEAUHKEY__@@HH@Z 00000001800097f4 f i sbSenderApp.obj
 0001:00008f20       ?Release@CRegObject@ATL@@UEAAKXZ 0000000180009f20 f i sbSenderApp.obj
 0001:00008f24       ?RemoveAll@?$CSimpleArray@PEAUHWND__@@V?$CSimpleArrayEqualHelper@PEAUHWND__@@@ATL@@@ATL@@QEAAXXZ 0000000180009f24 f i sbSenderApp.obj
 0001:00008f4c       ?RemoveAll@?$CSimpleMap@KPEAVCMessageLoop@WTL@@V?$CSimpleMapEqualHelper@KPEAVCMessageLoop@WTL@@@ATL@@@ATL@@QEAAXXZ 0000000180009f4c f i sbSenderApp.obj
 0001:00008f84       ?RemoveAll@?$CSimpleMap@PEA_WPEA_WVCExpansionVectorEqualHelper@ATL@@@ATL@@QEAAXXZ 0000000180009f84 f i sbSenderApp.obj
 0001:00008fbc       ?ResourceRegister@CRegObject@ATL@@QEAAJPEB_WI0@Z 0000000180009fbc f i sbSenderApp.obj
 0001:00008fe8       ?ResourceRegisterSz@CRegObject@ATL@@QEAAJPEB_W00@Z 0000000180009fe8 f i sbSenderApp.obj
 0001:00009020       ?ResourceUnregister@CRegObject@ATL@@QEAAJPEB_WI0@Z 000000018000a020 f i sbSenderApp.obj
 0001:00009048       ?ResourceUnregisterSz@CRegObject@ATL@@QEAAJPEB_W00@Z 000000018000a048 f i sbSenderApp.obj
 0001:0000907c       ?SetDWORDValue@CRegKey@ATL@@QEAAJPEB_WK@Z 000000018000a07c f i sbSenderApp.obj
 0001:000090ac       ?SetMultiStringValue@CRegKey@ATL@@QEAAJPEB_W0@Z 000000018000a0ac f i sbSenderApp.obj
 0001:0000912c       ?SetStringValue@CRegKey@ATL@@QEAAJPEB_W0K@Z 000000018000a12c f i sbSenderApp.obj
 0001:00009198       ?SkipAssignment@CRegParser@ATL@@IEAAJPEA_W@Z 000000018000a198 f i sbSenderApp.obj
 0001:0000923c       ?SkipWhiteSpace@CRegParser@ATL@@IEAAXXZ 000000018000a23c f i sbSenderApp.obj
 0001:00009274       ?StrChrW@CRegParser@ATL@@KAPEA_WPEA_W_W@Z 000000018000a274 f i sbSenderApp.obj
 0001:000092bc       ?StrFromMap@CRegObject@ATL@@QEAAPEB_WPEA_W@Z 000000018000a2bc f i sbSenderApp.obj
 0001:00009304       ?T2COLE_EX@@YAPEB_WPEB_WI@Z 000000018000a304 f i sbSenderApp.obj
 0001:00009308       ?T2OLE_EX@@YAPEA_WPEA_WI@Z 000000018000a308 f i sbSenderApp.obj
 0001:0000930c       ?Term@CAppModule@WTL@@QEAAXXZ 000000018000a30c f i sbSenderApp.obj
 0001:0000936c       ?Term@CAtlComModule@ATL@@QEAAXXZ 000000018000a36c f i sbSenderApp.obj
 0001:000093dc       ?Term@CAtlModule@ATL@@QEAAXXZ 000000018000a3dc f i sbSenderApp.obj
 0001:00009430       ?Term@CComCriticalSection@ATL@@QEAAJXZ 000000018000a430 f i sbSenderApp.obj
 0001:00009444       ?Term@CComModule@ATL@@QEAAXXZ 000000018000a444 f i sbSenderApp.obj
 0001:000094f0       ?TermSettingChangeNotify@CAppModule@WTL@@QEAAXXZ 000000018000a4f0 f i sbSenderApp.obj
 0001:00009578       ?Unlock@?$CComCritSecLock@VCComCriticalSection@ATL@@@ATL@@QEAAXXZ 000000018000a578 f i sbSenderApp.obj
 0001:00009594       ?Unlock@CAtlModule@ATL@@UEAAJXZ 000000018000a594 f i sbSenderApp.obj
 0001:000095a0       ?Unlock@CComCriticalSection@ATL@@QEAAJXZ 000000018000a5a0 f i sbSenderApp.obj
 0001:000095b4       ?Unlock@CStaticDataInitCriticalSectionLock@WTL@@QEAAXXZ 000000018000a5b4 f i sbSenderApp.obj
 0001:000095d0       ?UpdateRegistryFromResource@CAtlModule@ATL@@QEAAJIHPEAU_ATL_REGMAP_ENTRY@2@@Z 000000018000a5d0 f i sbSenderApp.obj
 0001:0000985c       ?UpdateRegistryFromResource@CAtlModule@ATL@@QEAAJPEB_WHPEAU_ATL_REGMAP_ENTRY@2@@Z 000000018000a85c f i sbSenderApp.obj
 0001:00009af8       ?UpdateRegistryFromResource@CComModule@ATL@@UEAAJIHPEAU_ATL_REGMAP_ENTRY@2@@Z 000000018000aaf8 f i sbSenderApp.obj
 0001:00009b00       ?UpdateRegistryFromResource@CComModule@ATL@@UEAAJPEB_WHPEAU_ATL_REGMAP_ENTRY@2@@Z 000000018000ab00 f i sbSenderApp.obj
 0001:00009b08       ?UpdateRegistryFromResourceD@CComModule@ATL@@UEAAJIHPEAU_ATL_REGMAP_ENTRY@2@@Z 000000018000ab08 f i sbSenderApp.obj
 0001:00009b10       ?UpdateRegistryFromResourceD@CComModule@ATL@@UEAAJPEB_WHPEAU_ATL_REGMAP_ENTRY@2@@Z 000000018000ab10 f i sbSenderApp.obj
 0001:00009b18       ?VTFromRegType@CRegParser@ATL@@KAHPEB_WAEAG@Z 000000018000ab18 f i sbSenderApp.obj
 0001:00009c10       ?_AtlGetConversionACP@ATL@@YAIXZ 000000018000ac10 f i sbSenderApp.obj
 0001:00009c18       ?_AtlInitializeCriticalSectionEx@ATL@@YAHPEAU_RTL_CRITICAL_SECTION@@KK@Z 000000018000ac18 f i sbSenderApp.obj
 0001:00009c20       ?_AtlRaiseException@ATL@@YAXKK@Z 000000018000ac20 f i sbSenderApp.obj
 0001:00009c30       ?memcpy_s@Checked@ATL@@YAXPEAX_KPEBX1@Z 000000018000ac30 f i sbSenderApp.obj
 0001:00009c78       ?ocscpy_s@@YA_NPEA_W_KPEB_W@Z 000000018000ac78 f i sbSenderApp.obj
 0001:00009cdc       ?ocslen@@YAHPEB_W@Z        000000018000acdc f i sbSenderApp.obj
 0001:00009cec       ?tcsncpy_s@Checked@ATL@@YAHPEA_W_KPEB_W1@Z 000000018000acec f i sbSenderApp.obj
 0001:00009d34       ?wcsstr@@YAPEA_WPEA_WPEB_W@Z 000000018000ad34 f i sbSenderApp.obj
 0001:00009d3c       DllMain                    000000018000ad3c f   sbSenderApp.obj
 0001:00009dc0       HRESULT_FROM_WIN32         000000018000adc0 f i sbSenderApp.obj
 0001:00009dd0       ??0?$CSimpleArray@GV?$CSimpleArrayEqualHelper@G@ATL@@@ATL@@QEAA@XZ 000000018000add0 f i StdAfx.obj
 0001:00009de0       ??0?$CTraceCategoryEx@$00$0A@@ATL@@QEAA@PEB_W@Z 000000018000ade0 f i StdAfx.obj
 0001:00009de4       ??0?$CTraceCategoryEx@$01$0A@@ATL@@QEAA@PEB_W@Z 000000018000ade4 f i StdAfx.obj
 0001:00009de8       ??0?$CTraceCategoryEx@$03$0A@@ATL@@QEAA@PEB_W@Z 000000018000ade8 f i StdAfx.obj
 0001:00009dec       ??0?$CTraceCategoryEx@$07$0A@@ATL@@QEAA@PEB_W@Z 000000018000adec f i StdAfx.obj
 0001:00009df0       ??0?$CTraceCategoryEx@$0BA@$0A@@ATL@@QEAA@PEB_W@Z 000000018000adf0 f i StdAfx.obj
 0001:00009df4       ??0?$CTraceCategoryEx@$0BAA@$0A@@ATL@@QEAA@PEB_W@Z 000000018000adf4 f i StdAfx.obj
 0001:00009df8       ??0?$CTraceCategoryEx@$0BAAA@$0A@@ATL@@QEAA@PEB_W@Z 000000018000adf8 f i StdAfx.obj
 0001:00009dfc       ??0?$CTraceCategoryEx@$0BAAAA@$0A@@ATL@@QEAA@PEB_W@Z 000000018000adfc f i StdAfx.obj
 0001:00009e00       ??0?$CTraceCategoryEx@$0BAAAAA@$0A@@ATL@@QEAA@PEB_W@Z 000000018000ae00 f i StdAfx.obj
 0001:00009e04       ??0?$CTraceCategoryEx@$0CA@$0A@@ATL@@QEAA@PEB_W@Z 000000018000ae04 f i StdAfx.obj
 0001:00009e08       ??0?$CTraceCategoryEx@$0CAA@$0A@@ATL@@QEAA@PEB_W@Z 000000018000ae08 f i StdAfx.obj
 0001:00009e0c       ??0?$CTraceCategoryEx@$0CAAA@$0A@@ATL@@QEAA@PEB_W@Z 000000018000ae0c f i StdAfx.obj
 0001:00009e10       ??0?$CTraceCategoryEx@$0CAAAA@$0A@@ATL@@QEAA@PEB_W@Z 000000018000ae10 f i StdAfx.obj
 0001:00009e14       ??0?$CTraceCategoryEx@$0CAAAAA@$0A@@ATL@@QEAA@PEB_W@Z 000000018000ae14 f i StdAfx.obj
 0001:00009e18       ??0?$CTraceCategoryEx@$0EA@$0A@@ATL@@QEAA@PEB_W@Z 000000018000ae18 f i StdAfx.obj
 0001:00009e1c       ??0?$CTraceCategoryEx@$0EAA@$0A@@ATL@@QEAA@PEB_W@Z 000000018000ae1c f i StdAfx.obj
 0001:00009e20       ??0?$CTraceCategoryEx@$0EAAA@$0A@@ATL@@QEAA@PEB_W@Z 000000018000ae20 f i StdAfx.obj
 0001:00009e24       ??0?$CTraceCategoryEx@$0EAAAA@$0A@@ATL@@QEAA@PEB_W@Z 000000018000ae24 f i StdAfx.obj
 0001:00009e28       ??0?$CTraceCategoryEx@$0EAAAAA@$0A@@ATL@@QEAA@PEB_W@Z 000000018000ae28 f i StdAfx.obj
 0001:00009e2c       ??0?$CTraceCategoryEx@$0IA@$0A@@ATL@@QEAA@PEB_W@Z 000000018000ae2c f i StdAfx.obj
 0001:00009e30       ??0?$CTraceCategoryEx@$0IAA@$0A@@ATL@@QEAA@PEB_W@Z 000000018000ae30 f i StdAfx.obj
 0001:00009e34       ??0?$CTraceCategoryEx@$0IAAA@$0A@@ATL@@QEAA@PEB_W@Z 000000018000ae34 f i StdAfx.obj
 0001:00009e38       ??0?$CTraceCategoryEx@$0IAAAA@$0A@@ATL@@QEAA@PEB_W@Z 000000018000ae38 f i StdAfx.obj
 0001:00009e3c       ??0CAtlWinModule@ATL@@QEAA@XZ 000000018000ae3c f i StdAfx.obj
 0001:00009eb0       ??0CTraceCategory@ATL@@QEAA@PEB_W@Z 000000018000aeb0 f i StdAfx.obj
 0001:00009eb4       ??0_ATL_WIN_MODULE70@ATL@@QEAA@XZ 000000018000aeb4 f i StdAfx.obj
 0001:00009ee0       ??1?$CSimpleArray@GV?$CSimpleArrayEqualHelper@G@ATL@@@ATL@@QEAA@XZ 000000018000aee0 f i StdAfx.obj
 0001:00009f08       ??1CAtlWinModule@ATL@@QEAA@XZ 000000018000af08 f i StdAfx.obj
 0001:00009f40       ??1CComBSTR@ATL@@QEAA@XZ   000000018000af40 f i StdAfx.obj
 0001:00009f4c       ??1_ATL_WIN_MODULE70@ATL@@QEAA@XZ 000000018000af4c f i StdAfx.obj
 0001:00009f78       ??1stringdispid@CComTypeInfoHolder@ATL@@QEAA@XZ 000000018000af78 f i StdAfx.obj
 0001:00009f84       ??A?$CSimpleArray@GV?$CSimpleArrayEqualHelper@G@ATL@@@ATL@@QEAAAEAGH@Z 000000018000af84 f i StdAfx.obj
 0001:00009fb8       ??_Estringdispid@CComTypeInfoHolder@ATL@@QEAAPEAXI@Z 000000018000afb8 f i StdAfx.obj
 0001:0000a028       ?AtlWinModuleInit@ATL@@YAJPEAU_ATL_WIN_MODULE70@1@@Z 000000018000b028 f i StdAfx.obj
 0001:0000a074       ?AtlWinModuleTerm@ATL@@YAJPEAU_ATL_WIN_MODULE70@1@PEAUHINSTANCE__@@@Z 000000018000b074 f i StdAfx.obj
 0001:0000a128       ?GetSize@?$CSimpleArray@GV?$CSimpleArrayEqualHelper@G@ATL@@@ATL@@QEBAHXZ 000000018000b128 f i StdAfx.obj
 0001:0000a12c       ?RemoveAll@?$CSimpleArray@GV?$CSimpleArrayEqualHelper@G@ATL@@@ATL@@QEAAXXZ 000000018000b12c f i StdAfx.obj
 0001:0000a154       ?Term@CAtlWinModule@ATL@@QEAAXXZ 000000018000b154 f i StdAfx.obj
 0001:0000a160       PathFileExistsW            000000018000b160 f   shlwapi:SHLWAPI.dll
 0001:0000a166       PathAppendW                000000018000b166 f   shlwapi:SHLWAPI.dll
 0001:0000a16c       PathRemoveExtensionW       000000018000b16c f   shlwapi:SHLWAPI.dll
 0001:0000a172       PathStripPathW             000000018000b172 f   shlwapi:SHLWAPI.dll
 0001:0000a178       GetProcAddress             000000018000b178 f   kernel32:KERNEL32.dll
 0001:0000a17e       GetCurrentProcess          000000018000b17e f   kernel32:KERNEL32.dll
 0001:0000a184       GetCurrentThreadId         000000018000b184 f   kernel32:KERNEL32.dll
 0001:0000a18a       GetProcessId               000000018000b18a f   kernel32:KERNEL32.dll
 0001:0000a190       OpenThread                 000000018000b190 f   kernel32:KERNEL32.dll
 0001:0000a196       SuspendThread              000000018000b196 f   kernel32:KERNEL32.dll
 0001:0000a19c       ResumeThread               000000018000b19c f   kernel32:KERNEL32.dll
 0001:0000a1a2       CloseHandle                000000018000b1a2 f   kernel32:KERNEL32.dll
 0001:0000a1a8       lstrlenW                   000000018000b1a8 f   kernel32:KERNEL32.dll
 0001:0000a1ae       LoadLibraryW               000000018000b1ae f   kernel32:KERNEL32.dll
 0001:0000a1b4       GetTempPathW               000000018000b1b4 f   kernel32:KERNEL32.dll
 0001:0000a1ba       CreateFileW                000000018000b1ba f   kernel32:KERNEL32.dll
 0001:0000a1c0       DeleteFileW                000000018000b1c0 f   kernel32:KERNEL32.dll
 0001:0000a1c6       CreateToolhelp32Snapshot   000000018000b1c6 f   kernel32:KERNEL32.dll
 0001:0000a1cc       Thread32First              000000018000b1cc f   kernel32:KERNEL32.dll
 0001:0000a1d2       Thread32Next               000000018000b1d2 f   kernel32:KERNEL32.dll
 0001:0000a1d8       FreeLibrary                000000018000b1d8 f   kernel32:KERNEL32.dll
 0001:0000a1de       LocalFree                  000000018000b1de f   kernel32:KERNEL32.dll
 0001:0000a1e4       FlushInstructionCache      000000018000b1e4 f   kernel32:KERNEL32.dll
 0001:0000a1ea       VirtualProtect             000000018000b1ea f   kernel32:KERNEL32.dll
 0001:0000a1f0       VirtualQuery               000000018000b1f0 f   kernel32:KERNEL32.dll
 0001:0000a1f6       OpenProcess                000000018000b1f6 f   kernel32:KERNEL32.dll
 0001:0000a1fc       GetCurrentProcessId        000000018000b1fc f   kernel32:KERNEL32.dll
 0001:0000a202       TerminateProcess           000000018000b202 f   kernel32:KERNEL32.dll
 0001:0000a208       SetUnhandledExceptionFilter 000000018000b208 f   kernel32:KERNEL32.dll
 0001:0000a20e       GetLastError               000000018000b20e f   kernel32:KERNEL32.dll
 0001:0000a214       SetErrorMode               000000018000b214 f   kernel32:KERNEL32.dll
 0001:0000a21a       DebugBreak                 000000018000b21a f   kernel32:KERNEL32.dll
 0001:0000a220       WaitForSingleObject        000000018000b220 f   kernel32:KERNEL32.dll
 0001:0000a226       GetSystemTime              000000018000b226 f   kernel32:KERNEL32.dll
 0001:0000a22c       SystemTimeToFileTime       000000018000b22c f   kernel32:KERNEL32.dll
 0001:0000a232       FormatMessageW             000000018000b232 f   kernel32:KERNEL32.dll
 0001:0000a238       lstrlenA                   000000018000b238 f   kernel32:KERNEL32.dll
 0001:0000a23e       GetModuleFileNameW         000000018000b23e f   kernel32:KERNEL32.dll
 0001:0000a244       GetModuleHandleW           000000018000b244 f   kernel32:KERNEL32.dll
 0001:0000a24a       CreateProcessW             000000018000b24a f   kernel32:KERNEL32.dll
 0001:0000a250       OutputDebugStringW         000000018000b250 f   kernel32:KERNEL32.dll
 0001:0000a256       WritePrivateProfileStringW 000000018000b256 f   kernel32:KERNEL32.dll
 0001:0000a25c       DecodePointer              000000018000b25c f   kernel32:KERNEL32.dll
 0001:0000a262       RaiseException             000000018000b262 f   kernel32:KERNEL32.dll
 0001:0000a268       EnterCriticalSection       000000018000b268 f   kernel32:KERNEL32.dll
 0001:0000a26e       LeaveCriticalSection       000000018000b26e f   kernel32:KERNEL32.dll
 0001:0000a274       InitializeCriticalSectionAndSpinCount 000000018000b274 f   kernel32:KERNEL32.dll
 0001:0000a27a       DeleteCriticalSection      000000018000b27a f   kernel32:KERNEL32.dll
 0001:0000a280       LoadResource               000000018000b280 f   kernel32:KERNEL32.dll
 0001:0000a286       SizeofResource             000000018000b286 f   kernel32:KERNEL32.dll
 0001:0000a28c       lstrcmpiW                  000000018000b28c f   kernel32:KERNEL32.dll
 0001:0000a292       LoadLibraryExW             000000018000b292 f   kernel32:KERNEL32.dll
 0001:0000a298       FindResourceW              000000018000b298 f   kernel32:KERNEL32.dll
 0001:0000a29e       MultiByteToWideChar        000000018000b29e f   kernel32:KERNEL32.dll
 0001:0000a2a4       CharUpperW                 000000018000b2a4 f   user32:USER32.dll
 0001:0000a2aa       MessageBoxW                000000018000b2aa f   user32:USER32.dll
 0001:0000a2b0       LoadStringW                000000018000b2b0 f   user32:USER32.dll
 0001:0000a2b6       wvsprintfW                 000000018000b2b6 f   user32:USER32.dll
 0001:0000a2bc       CharLowerW                 000000018000b2bc f   user32:USER32.dll
 0001:0000a2c2       CharNextW                  000000018000b2c2 f   user32:USER32.dll
 0001:0000a2c8       DestroyWindow              000000018000b2c8 f   user32:USER32.dll
 0001:0000a2ce       UnregisterClassW           000000018000b2ce f   user32:USER32.dll
 0001:0000a2d4       RegCloseKey                000000018000b2d4 f   advapi32:ADVAPI32.dll
 0001:0000a2da       RegCreateKeyW              000000018000b2da f   advapi32:ADVAPI32.dll
 0001:0000a2e0       RegOpenKeyW                000000018000b2e0 f   advapi32:ADVAPI32.dll
 0001:0000a2e6       RegQueryValueExW           000000018000b2e6 f   advapi32:ADVAPI32.dll
 0001:0000a2ec       RegSetValueExW             000000018000b2ec f   advapi32:ADVAPI32.dll
 0001:0000a2f2       RegCreateKeyExW            000000018000b2f2 f   advapi32:ADVAPI32.dll
 0001:0000a2f8       RegDeleteKeyW              000000018000b2f8 f   advapi32:ADVAPI32.dll
 0001:0000a2fe       RegDeleteValueW            000000018000b2fe f   advapi32:ADVAPI32.dll
 0001:0000a304       RegEnumKeyExW              000000018000b304 f   advapi32:ADVAPI32.dll
 0001:0000a30a       RegOpenKeyExW              000000018000b30a f   advapi32:ADVAPI32.dll
 0001:0000a310       RegQueryInfoKeyW           000000018000b310 f   advapi32:ADVAPI32.dll
 0001:0000a316       CoCreateInstance           000000018000b316 f   ole32:ole32.dll
 0001:0000a31c       CoTaskMemAlloc             000000018000b31c f   ole32:ole32.dll
 0001:0000a322       CoTaskMemRealloc           000000018000b322 f   ole32:ole32.dll
 0001:0000a328       CoTaskMemFree              000000018000b328 f   ole32:ole32.dll
 0001:0000a32e       VarUI4FromStr              000000018000b32e f   oleaut32:OLEAUT32.dll
 0001:0000a334       SysFreeString              000000018000b334 f   oleaut32:OLEAUT32.dll
 0001:0000a33c       ??$?2PEAUHINSTANCE__@@@Wrapper@?$CSimpleArray@PEAUHINSTANCE__@@V?$CSimpleArrayEqualHelper@PEAUHINSTANCE__@@@ATL@@@ATL@@SAPEAX_KPEAPEAUHINSTANCE__@@@Z 000000018000b33c f i atls:atlbase.obj
 0001:0000a340       ??0?$CSimpleArray@PEAUHINSTANCE__@@V?$CSimpleArrayEqualHelper@PEAUHINSTANCE__@@@ATL@@@ATL@@QEAA@XZ 000000018000b340 f i atls:atlbase.obj
 0001:0000a350       ??0CAtlBaseModule@ATL@@QEAA@XZ 000000018000b350 f   atls:atlbase.obj
 0001:0000a3f8       ??0Wrapper@?$CSimpleArray@PEAUHINSTANCE__@@V?$CSimpleArrayEqualHelper@PEAUHINSTANCE__@@@ATL@@@ATL@@QEAA@AEBQEAUHINSTANCE__@@@Z 000000018000b3f8 f i atls:atlbase.obj
 0001:0000a404       ??0_ATL_BASE_MODULE70@ATL@@QEAA@XZ 000000018000b404 f i atls:atlbase.obj
 0001:0000a430       ??1?$CSimpleArray@PEAUHINSTANCE__@@V?$CSimpleArrayEqualHelper@PEAUHINSTANCE__@@@ATL@@@ATL@@QEAA@XZ 000000018000b430 f i atls:atlbase.obj
 0001:0000a458       ??1CAtlBaseModule@ATL@@QEAA@XZ 000000018000b458 f   atls:atlbase.obj
 0001:0000a48c       ??1_ATL_BASE_MODULE70@ATL@@QEAA@XZ 000000018000b48c f i atls:atlbase.obj
 0001:0000a4b8       ??A?$CSimpleArray@PEAUHINSTANCE__@@V?$CSimpleArrayEqualHelper@PEAUHINSTANCE__@@@ATL@@@ATL@@QEAAAEAPEAUHINSTANCE__@@H@Z 000000018000b4b8 f i atls:atlbase.obj
 0001:0000a4ec       ?Add@?$CSimpleArray@PEAUHINSTANCE__@@V?$CSimpleArrayEqualHelper@PEAUHINSTANCE__@@@ATL@@@ATL@@QEAAHAEBQEAUHINSTANCE__@@@Z 000000018000b4ec f i atls:atlbase.obj
 0001:0000a590       ?AddResourceInstance@CAtlBaseModule@ATL@@QEAA_NPEAUHINSTANCE__@@@Z 000000018000b590 f   atls:atlbase.obj
 0001:0000a5d8       ?GetHInstanceAt@CAtlBaseModule@ATL@@QEAAPEAUHINSTANCE__@@H@Z 000000018000b5d8 f   atls:atlbase.obj
 0001:0000a654       ?GetSize@?$CSimpleArray@PEAUHINSTANCE__@@V?$CSimpleArrayEqualHelper@PEAUHINSTANCE__@@@ATL@@@ATL@@QEBAHXZ 000000018000b654 f i atls:atlbase.obj
 0001:0000a658       ?InternalSetAtIndex@?$CSimpleArray@PEAUHINSTANCE__@@V?$CSimpleArrayEqualHelper@PEAUHINSTANCE__@@@ATL@@@ATL@@QEAAXHAEBQEAUHINSTANCE__@@@Z 000000018000b658 f i atls:atlbase.obj
 0001:0000a670       ?RemoveAll@?$CSimpleArray@PEAUHINSTANCE__@@V?$CSimpleArrayEqualHelper@PEAUHINSTANCE__@@@ATL@@@ATL@@QEAAXXZ 000000018000b670 f i atls:atlbase.obj
 0001:0000a698       ?RemoveAt@?$CSimpleArray@PEAUHINSTANCE__@@V?$CSimpleArrayEqualHelper@PEAUHINSTANCE__@@@ATL@@@ATL@@QEAAHH@Z 000000018000b698 f i atls:atlbase.obj
 0001:0000a72c       ?RemoveResourceInstance@CAtlBaseModule@ATL@@QEAA_NPEAUHINSTANCE__@@@Z 000000018000b72c f   atls:atlbase.obj
 0001:0000a7b8       ?memmove_s@Checked@ATL@@YAXPEAX_KPEBX1@Z 000000018000b7b8 f i atls:atlbase.obj
 0001:0000a800       ??_I@YAXPEAX_KHP6AX0@Z@Z   000000018000b800 f i atls:stdafx.obj
 0001:0000a84c       ??3@YAXPEAX@Z              000000018000b84c f   LIBCMT:delete.obj
 0001:0000a854       ??_M@YAXPEAX_KHP6AX0@Z@Z   000000018000b854 f   LIBCMT:ehvecdtr.obj
 0001:0000a8d0       ?__ArrayUnwind@@YAXPEAX_KHP6AX0@Z@Z 000000018000b8d0 f   LIBCMT:ehvecdtr.obj
 0001:0000a91c       __copy_path_to_wide_string 000000018000b91c f   LIBCMT:crt0dat.obj
 0001:0000aa1c       __copy_to_char             000000018000ba1c f   LIBCMT:crt0dat.obj
 0001:0000ab34       __crtCorExitProcess        000000018000bb34 f   LIBCMT:crt0dat.obj
 0001:0000ab78       __crtExitProcess           000000018000bb78 f   LIBCMT:crt0dat.obj
 0001:0000ab90       __freeCrtMemory            000000018000bb90 f   LIBCMT:crt0dat.obj
 0001:0000acd8       _amsg_exit                 000000018000bcd8 f   LIBCMT:crt0dat.obj
 0001:0000ad00       _c_exit                    000000018000bd00 f   LIBCMT:crt0dat.obj
 0001:0000ad10       _cexit                     000000018000bd10 f   LIBCMT:crt0dat.obj
 0001:0000ad20       _cinit                     000000018000bd20 f   LIBCMT:crt0dat.obj
 0001:0000adb8       _exit                      000000018000bdb8 f   LIBCMT:crt0dat.obj
 0001:0000adc4       _exit_app                  000000018000bdc4 f   LIBCMT:crt0dat.obj
 0001:0000add0       _get_pgmptr                000000018000bdd0 f   LIBCMT:crt0dat.obj
 0001:0000ae08       _get_wpgmptr               000000018000be08 f   LIBCMT:crt0dat.obj
 0001:0000ae40       _init_pointers             000000018000be40 f   LIBCMT:crt0dat.obj
 0001:0000aeec       _initterm_e                000000018000beec f   LIBCMT:crt0dat.obj
 0001:0000af28       _lockexit                  000000018000bf28 f   LIBCMT:crt0dat.obj
 0001:0000af34       _unlockexit                000000018000bf34 f   LIBCMT:crt0dat.obj
 0001:0000b0d8       exit                       000000018000c0d8 f   LIBCMT:crt0dat.obj
 0001:0000b0e4       ??_U@YAPEAX_K@Z            000000018000c0e4 f   LIBCMT:new2.obj
 0001:0000b0ec       ??_V@YAXPEAX@Z             000000018000c0ec f   LIBCMT:delete2.obj
 0001:0000b110       memcpy                     000000018000c110 f   LIBCMT:memcpy.obj
 0001:0000b110       memmove                    000000018000c110 f   LIBCMT:memcpy.obj
 0001:0000b690       memset                     000000018000c690 f   LIBCMT:memset.obj
 0001:0000b8bc       wcscpy_s                   000000018000c8bc f   LIBCMT:wcscpy_s.obj
 0001:0000b928       wcsstr                     000000018000c928 f   LIBCMT:wcsstr.obj
 0001:0000bb24       _CxxThrowException         000000018000cb24 f   LIBCMT:throw.obj
 0001:0000bc48       ?_ExecutionInCatch@@YAHPEAU_xDISPATCHER_CONTEXT@@PEBU_s_FuncInfo@@@Z 000000018000cc48 f   LIBCMT:trnsctrl.obj
 0001:0000bcc0       ?_GetEstablisherFrame@@YAPEA_KPEA_KPEAU_xDISPATCHER_CONTEXT@@PEBU_s_FuncInfo@@0@Z 000000018000ccc0 f   LIBCMT:trnsctrl.obj
 0001:0000bd8c       ?_GetRangeOfTrysToCheck@@YAPEBU_s_TryBlockMapEntry@@PEA_KPEBU_s_FuncInfo@@HHPEAI2PEAU_xDISPATCHER_CONTEXT@@@Z 000000018000cd8c f   LIBCMT:trnsctrl.obj
 0001:0000beb8       ?__FrameUnwindToEmptyState@@YAXPEA_KPEAU_xDISPATCHER_CONTEXT@@PEBU_s_FuncInfo@@@Z 000000018000ceb8 f   LIBCMT:trnsctrl.obj
 0001:0000bf4c       ?__SehTransFilter@@YAHPEAU_EXCEPTION_POINTERS@@PEAUEHExceptionRecord@@PEA_KPEAU_CONTEXT@@PEAU_xDISPATCHER_CONTEXT@@PEBU_s_FuncInfo@@PEAH@Z 000000018000cf4c f   LIBCMT:trnsctrl.obj
 0001:0000bff0       _CallSETranslator          000000018000cff0 f   LIBCMT:trnsctrl.obj
 0001:0000c044       _CreateFrameInfo           000000018000d044 f   LIBCMT:trnsctrl.obj
 0001:0000c088       _FindAndUnlinkFrame        000000018000d088 f   LIBCMT:trnsctrl.obj
 0001:0000c0e8       _GetImageBase              000000018000d0e8 f   LIBCMT:trnsctrl.obj
 0001:0000c100       _GetThrowImageBase         000000018000d100 f   LIBCMT:trnsctrl.obj
 0001:0000c118       _IsExceptionObjectToBeDestroyed 000000018000d118 f   LIBCMT:trnsctrl.obj
 0001:0000c14c       _MoveContext               000000018000d14c f   LIBCMT:trnsctrl.obj
 0001:0000c158       _SetImageBase              000000018000d158 f   LIBCMT:trnsctrl.obj
 0001:0000c174       _SetThrowImageBase         000000018000d174 f   LIBCMT:trnsctrl.obj
 0001:0000c190       _UnwindNestedFrames        000000018000d190 f   LIBCMT:trnsctrl.obj
 0001:0000c2b4       __CxxFrameHandler          000000018000d2b4 f   LIBCMT:trnsctrl.obj
 0001:0000c33c       __CxxFrameHandler2         000000018000d33c f   LIBCMT:trnsctrl.obj
 0001:0000c344       __CxxFrameHandler3         000000018000d344 f   LIBCMT:trnsctrl.obj
 0001:0000c3cc       __GSHandlerCheck           000000018000d3cc f   LIBCMT:gshandler.obj
 0001:0000c3ec       __GSHandlerCheckCommon     000000018000d3ec f   LIBCMT:gshandler.obj
 0001:0000c450       __GSHandlerCheck_EH        000000018000d450 f   LIBCMT:gshandlereh.obj
 0001:0000c4f0       __security_check_cookie    000000018000d4f0 f   LIBCMT:amdsecgs.obj
 0001:0000c510       ??0type_info@@AEAA@AEBV0@@Z 000000018000d510 f   LIBCMT:typinfo.obj
 0001:0000c520       ??1type_info@@UEAA@XZ      000000018000d520 f   LIBCMT:typinfo.obj
 0001:0000c530       ??4type_info@@AEAAAEAV0@AEBV0@@Z 000000018000d530 f   LIBCMT:typinfo.obj
 0001:0000c534       ??8type_info@@QEBA_NAEBV0@@Z 000000018000d534 f   LIBCMT:typinfo.obj
 0001:0000c554       ??9type_info@@QEBA_NAEBV0@@Z 000000018000d554 f   LIBCMT:typinfo.obj
 0001:0000c574       ??_Etype_info@@UEAAPEAXI@Z 000000018000d574 f i LIBCMT:typinfo.obj
 0001:0000c574       ??_Gtype_info@@UEAAPEAXI@Z 000000018000d574 f i LIBCMT:typinfo.obj
 0001:0000c5b0       ?_name_internal_method@type_info@@QEBAPEBDPEAU__type_info_node@@@Z 000000018000d5b0 f   LIBCMT:typinfo.obj
 0001:0000c5b8       ?_type_info_dtor_internal_method@type_info@@QEAAXXZ 000000018000d5b8 f   LIBCMT:typinfo.obj
 0001:0000c5c0       ?before@type_info@@QEBA_NAEBV1@@Z 000000018000d5c0 f   LIBCMT:typinfo.obj
 0001:0000c5e0       ?name@type_info@@QEBAPEBDPEAU__type_info_node@@@Z 000000018000d5e0 f   LIBCMT:typinfo.obj
 0001:0000c5e8       ?raw_name@type_info@@QEBAPEBDXZ 000000018000d5e8 f   LIBCMT:typinfo.obj
 0001:0000c5f0       _get_purecall_handler      000000018000d5f0 f   LIBCMT:purevirt.obj
 0001:0000c600       _purecall                  000000018000d600 f   LIBCMT:purevirt.obj
 0001:0000c62c       _set_purecall_handler      000000018000d62c f   LIBCMT:purevirt.obj
 0001:0000c668       ??0bad_alloc@std@@QEAA@AEBV01@@Z 000000018000d668 f i LIBCMT:new.obj
 0001:0000c68c       ??0bad_alloc@std@@QEAA@XZ  000000018000d68c f i LIBCMT:new.obj
 0001:0000c6c4       ??1bad_alloc@std@@UEAA@XZ  000000018000d6c4 f i LIBCMT:new.obj
 0001:0000c6d4       ??2@YAPEAX_K@Z             000000018000d6d4 f   LIBCMT:new.obj
 0001:0000c740       ??_Gbad_alloc@std@@UEAAPEAXI@Z 000000018000d740 f i LIBCMT:new.obj
 0001:0000c740       ??_Ebad_alloc@std@@UEAAPEAXI@Z 000000018000d740 f i LIBCMT:new.obj
 0001:0000c77c       __onexitinit               000000018000d77c f   LIBCMT:onexit.obj
 0001:0000c7c0       _onexit                    000000018000d7c0 f   LIBCMT:onexit.obj
 0001:0000c9c0       atexit                     000000018000d9c0 f   LIBCMT:onexit.obj
 0001:0000c9d8       ?_invalid_parameter@@YAXPEBG00I_K@Z 000000018000d9d8 f   LIBCMT:invarg.obj
 0001:0000c9e0       ?_invoke_watson@@YAXPEBG00I_K@Z 000000018000d9e0 f   LIBCMT:invarg.obj
 0001:0000c9f4       _call_reportfault          000000018000d9f4 f   LIBCMT:invarg.obj
 0001:0000cae8       _get_invalid_parameter_handler 000000018000dae8 f   LIBCMT:invarg.obj
 0001:0000caf8       _initp_misc_invarg         000000018000daf8 f   LIBCMT:invarg.obj
 0001:0000cb00       _invalid_parameter         000000018000db00 f   LIBCMT:invarg.obj
 0001:0000cb68       _invalid_parameter_noinfo  000000018000db68 f   LIBCMT:invarg.obj
 0001:0000cb88       _invalid_parameter_noinfo_noreturn 000000018000db88 f   LIBCMT:invarg.obj
 0001:0000cbb8       _invoke_watson             000000018000dbb8 f   LIBCMT:invarg.obj
 0001:0000cbf4       _set_invalid_parameter_handler 000000018000dbf4 f   LIBCMT:invarg.obj
 0001:0000cc30       _set_abort_behavior        000000018000dc30 f   LIBCMT:abort.obj
 0001:0000cc4c       abort                      000000018000dc4c f   LIBCMT:abort.obj
 0001:0000cca4       _wtoi                      000000018000dca4 f   LIBCMT:wtox.obj
 0001:0000ccb0       _wtoi64                    000000018000dcb0 f   LIBCMT:wtox.obj
 0001:0000ccbc       _wtoi64_l                  000000018000dcbc f   LIBCMT:wtox.obj
 0001:0000cccc       _wtoi_l                    000000018000dccc f   LIBCMT:wtox.obj
 0001:0000ccdc       _wtol                      000000018000dcdc f   LIBCMT:wtox.obj
 0001:0000cce8       _wtol_l                    000000018000dce8 f   LIBCMT:wtox.obj
 0001:0000ccf8       _wtoll                     000000018000dcf8 f   LIBCMT:wtox.obj
 0001:0000cd04       _wtoll_l                   000000018000dd04 f   LIBCMT:wtox.obj
 0001:0000cd14       ??0_LocaleUpdate@@QEAA@PEAUlocaleinfo_struct@@@Z 000000018000dd14 f i LIBCMT:_wctype.obj
 0001:0000cdbc       ??1_LocaleUpdate@@QEAA@XZ  000000018000ddbc f i LIBCMT:_wctype.obj
 0001:0000cdd0       ?GetLocaleT@_LocaleUpdate@@QEAAPEAUlocaleinfo_struct@@XZ 000000018000ddd0 f i LIBCMT:_wctype.obj
 0001:0000cdd4       __iswcsym                  000000018000ddd4 f i LIBCMT:_wctype.obj
 0001:0000ce00       __iswcsymf                 000000018000de00 f i LIBCMT:_wctype.obj
 0001:0000ce2c       _isleadbyte_l              000000018000de2c f i LIBCMT:_wctype.obj
 0001:0000ce70       _iswalnum_l                000000018000de70 f i LIBCMT:_wctype.obj
 0001:0000ce7c       _iswalpha_l                000000018000de7c f i LIBCMT:_wctype.obj
 0001:0000ce88       _iswblank_l                000000018000de88 f i LIBCMT:_wctype.obj
 0001:0000cea0       _iswcntrl_l                000000018000dea0 f i LIBCMT:_wctype.obj
 0001:0000ceac       _iswcsym_l                 000000018000deac f i LIBCMT:_wctype.obj
 0001:0000ced8       _iswcsymf_l                000000018000ded8 f i LIBCMT:_wctype.obj
 0001:0000cf04       _iswdigit_l                000000018000df04 f i LIBCMT:_wctype.obj
 0001:0000cf10       _iswgraph_l                000000018000df10 f i LIBCMT:_wctype.obj
 0001:0000cf1c       _iswlower_l                000000018000df1c f i LIBCMT:_wctype.obj
 0001:0000cf28       _iswprint_l                000000018000df28 f i LIBCMT:_wctype.obj
 0001:0000cf34       _iswpunct_l                000000018000df34 f i LIBCMT:_wctype.obj
 0001:0000cf40       _iswspace_l                000000018000df40 f i LIBCMT:_wctype.obj
 0001:0000cf4c       _iswupper_l                000000018000df4c f i LIBCMT:_wctype.obj
 0001:0000cf58       _iswxdigit_l               000000018000df58 f i LIBCMT:_wctype.obj
 0001:0000cf64       isleadbyte                 000000018000df64 f i LIBCMT:_wctype.obj
 0001:0000cfac       iswalnum                   000000018000dfac f i LIBCMT:_wctype.obj
 0001:0000cfb8       iswalpha                   000000018000dfb8 f i LIBCMT:_wctype.obj
 0001:0000cfc4       iswascii                   000000018000dfc4 f i LIBCMT:_wctype.obj
 0001:0000cfd4       iswblank                   000000018000dfd4 f i LIBCMT:_wctype.obj
 0001:0000cfec       iswcntrl                   000000018000dfec f i LIBCMT:_wctype.obj
 0001:0000cff8       iswdigit                   000000018000dff8 f i LIBCMT:_wctype.obj
 0001:0000d004       iswgraph                   000000018000e004 f i LIBCMT:_wctype.obj
 0001:0000d010       iswlower                   000000018000e010 f i LIBCMT:_wctype.obj
 0001:0000d01c       iswprint                   000000018000e01c f i LIBCMT:_wctype.obj
 0001:0000d028       iswpunct                   000000018000e028 f i LIBCMT:_wctype.obj
 0001:0000d034       iswspace                   000000018000e034 f i LIBCMT:_wctype.obj
 0001:0000d040       iswupper                   000000018000e040 f i LIBCMT:_wctype.obj
 0001:0000d04c       iswxdigit                  000000018000e04c f i LIBCMT:_wctype.obj
 0001:0000d070       strlen                     000000018000e070 f   LIBCMT:strlen.obj
 0001:0000d118       wcscmp                     000000018000e118 f   LIBCMT:wcscmp.obj
 0001:0000d154       wcslen                     000000018000e154 f   LIBCMT:wcslen.obj
 0001:0000d170       wcsrchr                    000000018000e170 f   LIBCMT:wcsrchr.obj
 0001:0000d220       _wremove                   000000018000e220 f   LIBCMT:wunlink.obj
 0001:0000d250       _wunlink                   000000018000e250 f   LIBCMT:wunlink.obj
 0001:0000d258       _fwprintf_l                000000018000e258 f   LIBCMT:fwprintf.obj
 0001:0000d278       _fwprintf_p                000000018000e278 f   LIBCMT:fwprintf.obj
 0001:0000d29c       _fwprintf_p_l              000000018000e29c f   LIBCMT:fwprintf.obj
 0001:0000d2bc       _fwprintf_s_l              000000018000e2bc f   LIBCMT:fwprintf.obj
 0001:0000d2dc       fwprintf                   000000018000e2dc f   LIBCMT:fwprintf.obj
 0001:0000d370       fwprintf_s                 000000018000e370 f   LIBCMT:fwprintf.obj
 0001:0000d394       _wprintf_l                 000000018000e394 f   LIBCMT:wprintf.obj
 0001:0000d3b8       _wprintf_p                 000000018000e3b8 f   LIBCMT:wprintf.obj
 0001:0000d3e0       _wprintf_p_l               000000018000e3e0 f   LIBCMT:wprintf.obj
 0001:0000d404       _wprintf_s_l               000000018000e404 f   LIBCMT:wprintf.obj
 0001:0000d428       wprintf                    000000018000e428 f   LIBCMT:wprintf.obj
 0001:0000d4d4       wprintf_s                  000000018000e4d4 f   LIBCMT:wprintf.obj
 0001:0000d4fc       __swprintf_l               000000018000e4fc f   LIBCMT:swprintf.obj
 0001:0000d51c       _scwprintf                 000000018000e51c f   LIBCMT:swprintf.obj
 0001:0000d544       _scwprintf_l               000000018000e544 f   LIBCMT:swprintf.obj
 0001:0000d568       _scwprintf_p               000000018000e568 f   LIBCMT:swprintf.obj
 0001:0000d590       _scwprintf_p_l             000000018000e590 f   LIBCMT:swprintf.obj
 0001:0000d5b4       _snwprintf_s               000000018000e5b4 f   LIBCMT:swprintf.obj
 0001:0000d5d8       _snwprintf_s_l             000000018000e5d8 f   LIBCMT:swprintf.obj
 0001:0000d5fc       _swprintf                  000000018000e5fc f   LIBCMT:swprintf.obj
 0001:0000d6c0       _swprintf_p                000000018000e6c0 f   LIBCMT:swprintf.obj
 0001:0000d6e4       _swprintf_p_l              000000018000e6e4 f   LIBCMT:swprintf.obj
 0001:0000d704       _swprintf_s_l              000000018000e704 f   LIBCMT:swprintf.obj
 0001:0000d724       swprintf_s                 000000018000e724 f   LIBCMT:swprintf.obj
 0001:0000d748       _wfopen                    000000018000e748 f   LIBCMT:wfopen.obj
 0001:0000d754       _wfopen_s                  000000018000e754 f   LIBCMT:wfopen.obj
 0001:0000d7a8       _wfsopen                   000000018000e7a8 f   LIBCMT:wfopen.obj
 0001:0000e560       _MallocaIsSizeInRange      000000018000f560 f i LIBCMT:wcsftime.obj
 0001:0000e570       _MarkAllocaS               000000018000f570 f i LIBCMT:wcsftime.obj
 0001:0000e580       _W_Getdays                 000000018000f580 f   LIBCMT:wcsftime.obj
 0001:0000e588       _W_Getdays_l               000000018000f588 f   LIBCMT:wcsftime.obj
 0001:0000e700       _W_Getmonths               000000018000f700 f   LIBCMT:wcsftime.obj
 0001:0000e708       _W_Getmonths_l             000000018000f708 f   LIBCMT:wcsftime.obj
 0001:0000e880       _W_Gettnames               000000018000f880 f   LIBCMT:wcsftime.obj
 0001:0000e888       _W_Gettnames_l             000000018000f888 f   LIBCMT:wcsftime.obj
 0001:0000f05c       _Wcsftime                  000000018001005c f   LIBCMT:wcsftime.obj
 0001:0000f07c       _Wcsftime_l                000000018001007c f   LIBCMT:wcsftime.obj
 0001:0000f214       _freea                     0000000180010214 f i LIBCMT:wcsftime.obj
 0001:0000f234       _invoke_watson_if_error    0000000180010234 f i LIBCMT:wcsftime.obj
 0001:0000f268       _invoke_watson_if_oneof    0000000180010268 f i LIBCMT:wcsftime.obj
 0001:0000f2a8       _wcsftime_l                00000001800102a8 f   LIBCMT:wcsftime.obj
 0001:0000f2c8       wcsftime                   00000001800102c8 f   LIBCMT:wcsftime.obj
 0001:0000f2e4       _fclose_nolock             00000001800102e4 f   LIBCMT:fclose.obj
 0001:0000f360       fclose                     0000000180010360 f   LIBCMT:fclose.obj
 0001:0000f3c8       _beginthreadex             00000001800103c8 f   LIBCMT:threadex.obj
 0001:0000f510       _endthreadex               0000000180010510 f   LIBCMT:threadex.obj
 0001:0000f784       __fpecode                  0000000180010784 f   LIBCMT:winsig.obj
 0001:0000f798       __get_sigabrt              0000000180010798 f   LIBCMT:winsig.obj
 0001:0000f7a8       __pxcptinfoptrs            00000001800107a8 f   LIBCMT:winsig.obj
 0001:0000f7bc       _initp_misc_winsig         00000001800107bc f   LIBCMT:winsig.obj
 0001:0000f870       raise                      0000000180010870 f   LIBCMT:winsig.obj
 0001:0000fae0       signal                     0000000180010ae0 f   LIBCMT:winsig.obj
 0001:0000fd6c       _localtime64               0000000180010d6c f   LIBCMT:loctim64.obj
 0001:0000fdb4       _localtime64_s             0000000180010db4 f   LIBCMT:loctim64.obj
 0001:000100c0       _time64                    00000001800110c0 f   LIBCMT:time64.obj
 0001:00010120       _hypot                     0000000180011120 f   LIBCMT:hypot.obj
 0001:00010428       ?__set_inconsistency@@YAP6AXXZP6AXXZ@Z 0000000180011428 f   LIBCMT:user.obj
 0001:00010464       ?_set_se_translator@@YAP6AXIPEAU_EXCEPTION_POINTERS@@@ZH@Z 0000000180011464 f   LIBCMT:user.obj
 0001:00010474       ?_set_se_translator@@YAP6AXIPEAU_EXCEPTION_POINTERS@@@ZP6AXI0@Z@Z 0000000180011474 f   LIBCMT:user.obj
 0001:000104a8       ?set_terminate@@YAP6AXXZH@Z 00000001800114a8 f   LIBCMT:user.obj
 0001:000104b8       ?set_terminate@@YAP6AXXZP6AXXZ@Z 00000001800114b8 f   LIBCMT:user.obj
 0001:00010504       ?set_unexpected@@YAP6AXXZH@Z 0000000180011504 f   LIBCMT:user.obj
 0001:00010514       ?set_unexpected@@YAP6AXXZP6AXXZ@Z 0000000180011514 f   LIBCMT:user.obj
 0001:00010560       _get_terminate             0000000180011560 f   LIBCMT:user.obj
 0001:00010578       _get_unexpected            0000000180011578 f   LIBCMT:user.obj
 0001:00010590       _fpmath                    0000000180011590 f   LIBCMT:fpinit.obj
 0001:00010598       __setfflag                 0000000180011598 f   LIBCMT:fpinit.obj
 0001:000105a8       _cfltcvt_init              00000001800115a8 f   LIBCMT:fpinit.obj
 0001:00010630       wcsncpy_s                  0000000180011630 f   LIBCMT:wcsncpy_s.obj
 0001:000106fc       __raise_securityfailure    00000001800116fc f   LIBCMT:gs_report.obj
 0001:00010748       __report_gsfailure         0000000180011748 f   LIBCMT:gs_report.obj
 0001:0001081c       __report_rangecheckfailure 000000018001181c f   LIBCMT:gs_report.obj
 0001:00010830       __report_securityfailure   0000000180011830 f   LIBCMT:gs_report.obj
 0001:000108cc       __report_securityfailureEx 00000001800118cc f   LIBCMT:gs_report.obj
 0001:000109dc       free                       00000001800119dc f   LIBCMT:free.obj
 0001:00010a1c       _heap_alloc                0000000180011a1c f i LIBCMT:malloc.obj
 0001:00010a6c       malloc                     0000000180011a6c f   LIBCMT:malloc.obj
 0001:00010b24       _recalloc                  0000000180011b24 f   LIBCMT:recalloc.obj
 0001:00010bac       ??_U@YAPEAX_KAEBUnothrow_t@std@@@Z 0000000180011bac f   LIBCMT:newaopnt.obj
 0001:00010bb4       memcpy_s                   0000000180011bb4 f   LIBCMT:memcpy_s.obj
 0001:00010c50       _alloca_probe              0000000180011c50 f   LIBCMT:chkstk.obj
 0001:00010c50       __chkstk                   0000000180011c50 f   LIBCMT:chkstk.obj
 0001:00010ca0       _CRT_INIT                  0000000180011ca0 f   LIBCMT:dllcrt0.obj
 0001:00010e00       _DllMainCRTStartup         0000000180011e00 f   LIBCMT:dllcrt0.obj
 0001:00010f60       __DllXcptFilter            0000000180011f60 f   LIBCMT:dllcrt0.obj
 0001:00010f88       memmove_s                  0000000180011f88 f   LIBCMT:memmove_s.obj
 0001:00010fdc       ?_inconsistency@@YAXXZ     0000000180011fdc f   LIBCMT:hooks.obj
 0001:00010ffc       ?terminate@@YAXXZ          0000000180011ffc f   LIBCMT:hooks.obj
 0001:0001101c       ?unexpected@@YAXXZ         000000018001201c f   LIBCMT:hooks.obj
 0001:0001103c       _initp_eh_hooks            000000018001203c f   LIBCMT:hooks.obj
 0001:0001105c       __C_specific_handler       000000018001205c f   LIBCMT:chandler.obj
 0001:00011240       _RTC_Initialize            0000000180012240 f   LIBCMT:initsect.obj
 0001:00011278       _RTC_Terminate             0000000180012278 f   LIBCMT:initsect.obj
 0001:000112b0       _lock                      00000001800122b0 f   LIBCMT:mlock.obj
 0001:000112f4       _lockerr_exit              00000001800122f4 f   LIBCMT:mlock.obj
 0001:00011320       _mtdeletelocks             0000000180012320 f   LIBCMT:mlock.obj
 0001:000113a8       _mtinitlocknum             00000001800123a8 f   LIBCMT:mlock.obj
 0001:00011468       _mtinitlocks               0000000180012468 f   LIBCMT:mlock.obj
 0001:000114cc       _unlock                    00000001800124cc f   LIBCMT:mlock.obj
 0001:0001151c       __crtCaptureCurrentContext 000000018001251c f   LIBCMT:winapisupp.obj
 0001:0001158c       __crtCapturePreviousContext 000000018001258c f   LIBCMT:winapisupp.obj
 0001:00011600       __crtCloseThreadpoolTimer  0000000180012600 f   LIBCMT:winapisupp.obj
 0001:0001161c       __crtCloseThreadpoolWait   000000018001261c f   LIBCMT:winapisupp.obj
 0001:00011638       __crtCreateEventExW        0000000180012638 f   LIBCMT:winapisupp.obj
 0001:00011664       __crtCreateSemaphoreExW    0000000180012664 f   LIBCMT:winapisupp.obj
 0001:00011680       __crtCreateSymbolicLinkW   0000000180012680 f   LIBCMT:winapisupp.obj
 0001:000116b0       __crtCreateThreadpoolTimer 00000001800126b0 f   LIBCMT:winapisupp.obj
 0001:000116c8       __crtCreateThreadpoolWait  00000001800126c8 f   LIBCMT:winapisupp.obj
 0001:000116e0       __crtFlsAlloc              00000001800126e0 f   LIBCMT:winapisupp.obj
 0001:000116fc       __crtFlsFree               00000001800126fc f   LIBCMT:winapisupp.obj
 0001:00011718       __crtFlsGetValue           0000000180012718 f   LIBCMT:winapisupp.obj
 0001:00011734       __crtFlsSetValue           0000000180012734 f   LIBCMT:winapisupp.obj
 0001:00011750       __crtFlushProcessWriteBuffers 0000000180012750 f   LIBCMT:winapisupp.obj
 0001:0001176c       __crtFreeLibraryWhenCallbackReturns 000000018001276c f   LIBCMT:winapisupp.obj
 0001:00011788       __crtGetCurrentProcessorNumber 0000000180012788 f   LIBCMT:winapisupp.obj
 0001:000117a0       __crtGetFileInformationByHandleEx 00000001800127a0 f   LIBCMT:winapisupp.obj
 0001:000117d0       __crtGetLogicalProcessorInformation 00000001800127d0 f   LIBCMT:winapisupp.obj
 0001:00011800       __crtGetShowWindowMode     0000000180012800 f   LIBCMT:winapisupp.obj
 0001:0001182c       __crtGetTickCount64        000000018001282c f   LIBCMT:winapisupp.obj
 0001:00011854       __crtInitializeCriticalSectionEx 0000000180012854 f   LIBCMT:winapisupp.obj
 0001:00011880       __crtIsPackagedApp         0000000180012880 f   LIBCMT:winapisupp.obj
 0001:000118cc       __crtLoadWinApiPointers    00000001800128cc f   LIBCMT:winapisupp.obj
 0001:00011cc8       __crtSetFileInformationByHandle 0000000180012cc8 f   LIBCMT:winapisupp.obj
 0001:00011cf8       __crtSetThreadStackGuarantee 0000000180012cf8 f   LIBCMT:winapisupp.obj
 0001:00011d10       __crtSetThreadpoolTimer    0000000180012d10 f   LIBCMT:winapisupp.obj
 0001:00011d2c       __crtSetThreadpoolWait     0000000180012d2c f   LIBCMT:winapisupp.obj
 0001:00011d48       __crtSetUnhandledExceptionFilter 0000000180012d48 f   LIBCMT:winapisupp.obj
 0001:00011d50       __crtSleep                 0000000180012d50 f   LIBCMT:winapisupp.obj
 0001:00011d58       __crtTerminateProcess      0000000180012d58 f   LIBCMT:winapisupp.obj
 0001:00011d78       __crtUnhandledException    0000000180012d78 f   LIBCMT:winapisupp.obj
 0001:00011d98       __crtWaitForThreadpoolTimerCallbacks 0000000180012d98 f   LIBCMT:winapisupp.obj
 0001:00011db4       _FF_MSGBANNER              0000000180012db4 f   LIBCMT:crt0msg.obj
 0001:00011df8       _GET_RTERRMSG              0000000180012df8 f   LIBCMT:crt0msg.obj
 0001:00011e28       _NMSG_WRITE                0000000180012e28 f   LIBCMT:crt0msg.obj
 0001:00012098       __doserrno                 0000000180013098 f   LIBCMT:dosmap.obj
 0001:000120b8       _dosmaperr                 00000001800130b8 f   LIBCMT:dosmap.obj
 0001:00012108       _errno                     0000000180013108 f   LIBCMT:dosmap.obj
 0001:00012128       _get_doserrno              0000000180013128 f   LIBCMT:dosmap.obj
 0001:00012164       _get_errno                 0000000180013164 f   LIBCMT:dosmap.obj
 0001:000121a0       _get_errno_from_oserr      00000001800131a0 f   LIBCMT:dosmap.obj
 0001:000121f0       _set_doserrno              00000001800131f0 f   LIBCMT:dosmap.obj
 0001:0001222c       _set_errno                 000000018001322c f   LIBCMT:dosmap.obj
 0001:00012270       _FindPESection             0000000180013270 f   LIBCMT:pesect.obj
 0001:000122c0       _IsNonwritableInCurrentImage 00000001800132c0 f   LIBCMT:pesect.obj
 0001:00012310       _ValidateImageBase         0000000180013310 f   LIBCMT:pesect.obj
 0001:00012340       _calloc_crt                0000000180013340 f   LIBCMT:crtheap.obj
 0001:000123c0       _malloc_crt                00000001800133c0 f   LIBCMT:crtheap.obj
 0001:0001243c       _realloc_crt               000000018001343c f   LIBCMT:crtheap.obj
 0001:000124c0       _recalloc_crt              00000001800134c0 f   LIBCMT:crtheap.obj
 0001:00012544       _set_malloc_crt_max_wait   0000000180013544 f   LIBCMT:crtheap.obj
 0001:00012554       wait_a_bit                 0000000180013554 f i LIBCMT:crtheap.obj
 0001:0001257c       _initp_misc_cfltcvt_tab    000000018001357c f   LIBCMT:cmiscdat.obj
 0001:000125b8       ?_query_new_handler@@YAP6AH_K@ZXZ 00000001800135b8 f   LIBCMT:handler.obj
 0001:000125c8       ?_set_new_handler@@YAP6AH_K@ZH@Z 00000001800135c8 f   LIBCMT:handler.obj
 0001:000125d0       ?_set_new_handler@@YAP6AH_K@ZP6AH0@Z@Z 00000001800135d0 f   LIBCMT:handler.obj
 0001:00012620       _callnewh                  0000000180013620 f   LIBCMT:handler.obj
 0001:00012654       _initp_heap_handler        0000000180013654 f   LIBCMT:handler.obj
 0001:0001265c       __getlocaleinfo            000000018001365c f   LIBCMT:inithelp.obj
 0001:00012844       _initp_misc_purevirt       0000000180013844 f   LIBCMT:inithelp.obj
 0001:0001284c       _initp_misc_rand_s         000000018001384c f   LIBCMT:rand_s.obj
 0001:00012854       rand_s                     0000000180013854 f   LIBCMT:rand_s.obj
 0001:00012990       __initmbctable             0000000180013990 f   LIBCMT:mbctype.obj
 0001:00012ce8       __updatetmbcinfo           0000000180013ce8 f   LIBCMT:mbctype.obj
 0001:00012da4       _getmbcp                   0000000180013da4 f   LIBCMT:mbctype.obj
 0001:00012de0       _setmbcp                   0000000180013de0 f   LIBCMT:mbctype.obj
 0001:00013024       _setmbcp_nolock            0000000180014024 f   LIBCMT:mbctype.obj
 0001:000132d4       _ftbuf                     00000001800142d4 f   LIBCMT:_sftbuf.obj
 0001:0001330c       _stbuf                     000000018001430c f   LIBCMT:_sftbuf.obj
 0001:000133dc       __isa_available_init       00000001800143dc f   LIBCMT:cpu_disp.obj
 0001:00013580       __get_flsindex             0000000180014580 f   LIBCMT:tidtable.obj
 0001:00013588       __threadhandle             0000000180014588 f   LIBCMT:tidtable.obj
 0001:00013590       __threadid                 0000000180014590 f   LIBCMT:tidtable.obj
 0001:00013598       _freefls                   0000000180014598 f   LIBCMT:tidtable.obj
 0001:000136cc       _freeptd                   00000001800146cc f   LIBCMT:tidtable.obj
 0001:00013708       _getptd                    0000000180014708 f   LIBCMT:tidtable.obj
 0001:0001372c       _getptd_noexit             000000018001472c f   LIBCMT:tidtable.obj
 0001:000137b0       _initptd                   00000001800147b0 f   LIBCMT:tidtable.obj
 0001:00013874       _mtinit                    0000000180014874 f   LIBCMT:tidtable.obj
 0001:000138f4       _mtterm                    00000001800148f4 f   LIBCMT:tidtable.obj
 0001:00013918       __DestructExceptionObject  0000000180014918 f   LIBCMT:frame.obj
 0001:00013988       ??0bad_exception@std@@QEAA@AEBV01@@Z 0000000180014988 f i LIBCMT:frame.obj
 0001:000139ac       ??0bad_exception@std@@QEAA@PEBD@Z 00000001800149ac f i LIBCMT:frame.obj
 0001:000139d8       ??1bad_exception@std@@UEAA@XZ 00000001800149d8 f i LIBCMT:frame.obj
 0001:000139e8       ??_Ebad_exception@std@@UEAAPEAXI@Z 00000001800149e8 f i LIBCMT:frame.obj
 0001:000139e8       ??_Gbad_exception@std@@UEAAPEAXI@Z 00000001800149e8 f i LIBCMT:frame.obj
 0001:00014404       ?__uncaught_exception@@YA_NXZ 0000000180015404 f   LIBCMT:frame.obj
 0001:00014420       ?_is_exception_typeof@@YAHAEBVtype_info@@PEAU_EXCEPTION_POINTERS@@@Z 0000000180015420 f   LIBCMT:frame.obj
 0001:000144e0       _SetWinRTOutOfMemoryExceptionCallback 00000001800154e0 f   LIBCMT:frame.obj
 0001:000144e8       __AdjustPointer            00000001800154e8 f   LIBCMT:frame.obj
 0001:0001450c       __BuildCatchObject         000000018001550c f   LIBCMT:frame.obj
 0001:000145c4       __BuildCatchObjectHelper   00000001800155c4 f   LIBCMT:frame.obj
 0001:00014814       __CxxCallCatchBlock        0000000180015814 f   LIBCMT:frame.obj
 0001:00014a18       __CxxDetectRethrow         0000000180015a18 f   LIBCMT:frame.obj
 0001:00014a60       __CxxExceptionFilter       0000000180015a60 f   LIBCMT:frame.obj
 0001:00014c58       __CxxQueryExceptionSize    0000000180015c58 f   LIBCMT:frame.obj
 0001:00014c60       __CxxRegisterExceptionObject 0000000180015c60 f   LIBCMT:frame.obj
 0001:00014d24       __CxxUnregisterExceptionObject 0000000180015d24 f   LIBCMT:frame.obj
 0001:00014e7c       __FrameUnwindFilter        0000000180015e7c f   LIBCMT:frame.obj
 0001:00014ed0       __FrameUnwindToState       0000000180015ed0 f   LIBCMT:frame.obj
 0001:00015064       __GetPlatformExceptionInfo 0000000180016064 f   LIBCMT:frame.obj
 0001:000150f8       __InternalCxxFrameHandler  00000001800160f8 f   LIBCMT:frame.obj
 0001:0001531c       __TypeMatch                000000018001631c f   LIBCMT:frame.obj
 0001:0001544c       ?__GetCurrentState@@YAHPEA_KPEAU_xDISPATCHER_CONTEXT@@PEBU_s_FuncInfo@@@Z 000000018001644c f   LIBCMT:ehstate.obj
 0001:00015474       ?__GetUnwindTryBlock@@YAHPEA_KPEAU_xDISPATCHER_CONTEXT@@PEBU_s_FuncInfo@@@Z 0000000180016474 f   LIBCMT:ehstate.obj
 0001:000154a0       ?__SetState@@YAXPEA_KPEAU_xDISPATCHER_CONTEXT@@PEBU_s_FuncInfo@@H@Z 00000001800164a0 f   LIBCMT:ehstate.obj
 0001:000154ac       ?__SetUnwindTryBlock@@YAXPEA_KPEAU_xDISPATCHER_CONTEXT@@PEBU_s_FuncInfo@@H@Z 00000001800164ac f   LIBCMT:ehstate.obj
 0001:000154e8       ?__StateFromControlPc@@YAHPEBU_s_FuncInfo@@PEAU_xDISPATCHER_CONTEXT@@@Z 00000001800164e8 f   LIBCMT:ehstate.obj
 0001:000154f0       ?__StateFromIp@@YAHPEBU_s_FuncInfo@@PEAU_xDISPATCHER_CONTEXT@@_J@Z 00000001800164f0 f   LIBCMT:ehstate.obj
 0001:00015590       strcmp                     0000000180016590 f   LIBCMT:strcmp.obj
 0001:000155f8       ?_Name_base@type_info@@CAPEBDPEBV1@PEAU__type_info_node@@@Z 00000001800165f8 f   LIBCMT:typname.obj
 0001:0001572c       ?_Name_base_internal@type_info@@CAPEBDPEBV1@PEAU__type_info_node@@@Z 000000018001672c f   LIBCMT:typname.obj
 0001:00015888       ?_Type_info_dtor@type_info@@CAXPEAV1@@Z 0000000180016888 f   LIBCMT:typname.obj
 0001:000158f4       ?_Type_info_dtor_internal@type_info@@CAXPEAV1@@Z 00000001800168f4 f   LIBCMT:typname.obj
 0001:00015960       __clean_type_info_names_internal 0000000180016960 f   LIBCMT:typname.obj
 0001:000159b0       __unDNameHelper            00000001800169b0 f   LIBCMT:typname.obj
 0001:000159e8       ??0__non_rtti_object@std@@QEAA@AEBV01@@Z 00000001800169e8 f   LIBCMT:stdexcpt.obj
 0001:00015a0c       ??0__non_rtti_object@std@@QEAA@PEBD@Z 0000000180016a0c f   LIBCMT:stdexcpt.obj
 0001:00015a30       ??0bad_cast@std@@QEAA@AEBV01@@Z 0000000180016a30 f   LIBCMT:stdexcpt.obj
 0001:00015a54       ??0bad_cast@std@@QEAA@PEBD@Z 0000000180016a54 f   LIBCMT:stdexcpt.obj
 0001:00015a80       ??0bad_typeid@std@@QEAA@AEBV01@@Z 0000000180016a80 f   LIBCMT:stdexcpt.obj
 0001:00015aa4       ??0bad_typeid@std@@QEAA@PEBD@Z 0000000180016aa4 f   LIBCMT:stdexcpt.obj
 0001:00015ad0       ??0exception@std@@QEAA@AEBQEBD@Z 0000000180016ad0 f   LIBCMT:stdexcpt.obj
 0001:00015b00       ??0exception@std@@QEAA@AEBQEBDH@Z 0000000180016b00 f   LIBCMT:stdexcpt.obj
 0001:00015b1c       ??0exception@std@@QEAA@AEBV01@@Z 0000000180016b1c f   LIBCMT:stdexcpt.obj
 0001:00015b48       ??0exception@std@@QEAA@XZ  0000000180016b48 f   LIBCMT:stdexcpt.obj
 0001:00015b60       ??1__non_rtti_object@std@@UEAA@XZ 0000000180016b60 f   LIBCMT:stdexcpt.obj
 0001:00015b70       ??1bad_cast@std@@UEAA@XZ   0000000180016b70 f   LIBCMT:stdexcpt.obj
 0001:00015b80       ??1bad_typeid@std@@UEAA@XZ 0000000180016b80 f   LIBCMT:stdexcpt.obj
 0001:00015b90       ??1exception@std@@UEAA@XZ  0000000180016b90 f   LIBCMT:stdexcpt.obj
 0001:00015ba0       ??4exception@std@@QEAAAEAV01@AEBV01@@Z 0000000180016ba0 f   LIBCMT:stdexcpt.obj
 0001:00015be4       ??_E__non_rtti_object@std@@UEAAPEAXI@Z 0000000180016be4 f i LIBCMT:stdexcpt.obj
 0001:00015be4       ??_G__non_rtti_object@std@@UEAAPEAXI@Z 0000000180016be4 f i LIBCMT:stdexcpt.obj
 0001:00015c20       ??_Ebad_cast@std@@UEAAPEAXI@Z 0000000180016c20 f i LIBCMT:stdexcpt.obj
 0001:00015c20       ??_Gbad_cast@std@@UEAAPEAXI@Z 0000000180016c20 f i LIBCMT:stdexcpt.obj
 0001:00015c5c       ??_Gbad_typeid@std@@UEAAPEAXI@Z 0000000180016c5c f i LIBCMT:stdexcpt.obj
 0001:00015c5c       ??_Ebad_typeid@std@@UEAAPEAXI@Z 0000000180016c5c f i LIBCMT:stdexcpt.obj
 0001:00015c98       ??_Gexception@std@@UEAAPEAXI@Z 0000000180016c98 f i LIBCMT:stdexcpt.obj
 0001:00015c98       ??_Eexception@std@@UEAAPEAXI@Z 0000000180016c98 f i LIBCMT:stdexcpt.obj
 0001:00015cd4       ?_Copy_str@exception@std@@AEAAXPEBD@Z 0000000180016cd4 f   LIBCMT:stdexcpt.obj
 0001:00015d30       ?_Tidy@exception@std@@AEAAXXZ 0000000180016d30 f   LIBCMT:stdexcpt.obj
 0001:00015d58       ?what@exception@std@@UEBAPEBDXZ 0000000180016d58 f   LIBCMT:stdexcpt.obj
 0001:00015d6c       _msize                     0000000180016d6c f   LIBCMT:msize.obj
 0001:00015da8       __crt_debugger_hook        0000000180016da8 f   LIBCMT:dbghook.obj
 0001:00015f98       _wcstol_l                  0000000180016f98 f   LIBCMT:wcstol.obj
 0001:00015fa0       _wcstoul_l                 0000000180016fa0 f   LIBCMT:wcstol.obj
 0001:00015fac       wcstol                     0000000180016fac f   LIBCMT:wcstol.obj
 0001:00015fb4       wcstoul                    0000000180016fb4 f   LIBCMT:wcstol.obj
 0001:00016228       _wcstof_l                  0000000180017228 f   LIBCMT:wcstoq.obj
 0001:00016338       _wcstoi64                  0000000180017338 f   LIBCMT:wcstoq.obj
 0001:00016368       _wcstoi64_l                0000000180017368 f   LIBCMT:wcstoq.obj
 0001:0001638c       _wcstoimax_l               000000018001738c f   LIBCMT:wcstoq.obj
 0001:000163b0       _wcstold_l                 00000001800173b0 f   LIBCMT:wcstoq.obj
 0001:000163b8       _wcstoll_l                 00000001800173b8 f   LIBCMT:wcstoq.obj
 0001:000163dc       _wcstoui64                 00000001800173dc f   LIBCMT:wcstoq.obj
 0001:00016410       _wcstoui64_l               0000000180017410 f   LIBCMT:wcstoq.obj
 0001:00016438       _wcstoull_l                0000000180017438 f   LIBCMT:wcstoq.obj
 0001:00016460       _wcstoumax_l               0000000180017460 f   LIBCMT:wcstoq.obj
 0001:00016488       wcstof                     0000000180017488 f   LIBCMT:wcstoq.obj
 0001:00016490       wcstoimax                  0000000180017490 f   LIBCMT:wcstoq.obj
 0001:00016498       wcstold                    0000000180017498 f   LIBCMT:wcstoq.obj
 0001:000164a0       wcstoll                    00000001800174a0 f   LIBCMT:wcstoq.obj
 0001:000164a8       wcstoull                   00000001800174a8 f   LIBCMT:wcstoq.obj
 0001:000164b0       wcstoumax                  00000001800174b0 f   LIBCMT:wcstoq.obj
 0001:000164b8       __addlocaleref             00000001800174b8 f   LIBCMT:localref.obj
 0001:00016544       __freetlocinfo             0000000180017544 f   LIBCMT:localref.obj
 0001:000166dc       __removelocaleref          00000001800176dc f   LIBCMT:localref.obj
 0001:00016780       __updatetlocinfo           0000000180017780 f   LIBCMT:localref.obj
 0001:000167f8       _updatetlocinfoEx_nolock   00000001800177f8 f   LIBCMT:localref.obj
 0001:0001685c       _iswctype_l                000000018001785c f   LIBCMT:iswctype.obj
 0001:00016864       is_wctype                  0000000180017864 f   LIBCMT:iswctype.obj
 0001:0001686c       iswctype                   000000018001786c f   LIBCMT:iswctype.obj
 0001:000168d4       _vfwprintf_l               00000001800178d4 f   LIBCMT:vfwprint.obj
 0001:000168f8       _vfwprintf_p               00000001800178f8 f   LIBCMT:vfwprint.obj
 0001:0001691c       _vfwprintf_p_l             000000018001791c f   LIBCMT:vfwprint.obj
 0001:00016940       _vfwprintf_s_l             0000000180017940 f   LIBCMT:vfwprint.obj
 0001:00016964       vfwprintf                  0000000180017964 f   LIBCMT:vfwprint.obj
 0001:00016988       vfwprintf_helper           0000000180017988 f   LIBCMT:vfwprint.obj
 0001:00016a28       vfwprintf_s                0000000180017a28 f   LIBCMT:vfwprint.obj
 0001:00016a4c       __initstdio                0000000180017a4c f   LIBCMT:_file.obj
 0001:00016ae4       __endstdio                 0000000180017ae4 f   LIBCMT:_file.obj
 0001:00016b14       __iob_func                 0000000180017b14 f   LIBCMT:_file.obj
 0001:00016b1c       _lock_file                 0000000180017b1c f   LIBCMT:_file.obj
 0001:00016b84       _lock_file2                0000000180017b84 f   LIBCMT:_file.obj
 0001:00016bb8       _unlock_file               0000000180017bb8 f   LIBCMT:_file.obj
 0001:00016c08       _unlock_file2              0000000180017c08 f   LIBCMT:_file.obj
 0001:00016c28       _woutput_l                 0000000180017c28 f   LIBCMT:woutput.obj
 0001:000176c0       get_int64_arg              00000001800186c0 f i LIBCMT:woutput.obj
 0001:000176cc       get_int_arg                00000001800186cc f i LIBCMT:woutput.obj
 0001:00017800       _vwprintf_l                0000000180018800 f   LIBCMT:vwprintf.obj
 0001:00017818       _vwprintf_p                0000000180018818 f   LIBCMT:vwprintf.obj
 0001:00017830       _vwprintf_p_l              0000000180018830 f   LIBCMT:vwprintf.obj
 0001:00017848       _vwprintf_s_l              0000000180018848 f   LIBCMT:vwprintf.obj
 0001:00017860       vwprintf                   0000000180018860 f   LIBCMT:vwprintf.obj
 0001:00017878       vwprintf_helper            0000000180018878 f   LIBCMT:vwprintf.obj
 0001:00017920       vwprintf_s                 0000000180018920 f   LIBCMT:vwprintf.obj
 0001:00017938       _flsbuf                    0000000180018938 f   LIBCMT:_flsbuf.obj
 0001:00017ac4       __vswprintf_l              0000000180018ac4 f   LIBCMT:vswprint.obj
 0001:00017acc       _vscwprintf                0000000180018acc f   LIBCMT:vswprint.obj
 0001:00017ae4       _vscwprintf_helper         0000000180018ae4 f   LIBCMT:vswprint.obj
 0001:00017b74       _vscwprintf_l              0000000180018b74 f   LIBCMT:vswprint.obj
 0001:00017b8c       _vscwprintf_p              0000000180018b8c f   LIBCMT:vswprint.obj
 0001:00017ba4       _vscwprintf_p_l            0000000180018ba4 f   LIBCMT:vswprint.obj
 0001:00017bbc       _vswprintf                 0000000180018bbc f   LIBCMT:vswprint.obj
 0001:00017bc8       _vswprintf_l               0000000180018bc8 f   LIBCMT:vswprint.obj
 0001:00017ca8       _vsnwprintf_s              0000000180018ca8 f   LIBCMT:vswprnc.obj
 0001:00017cc8       _vsnwprintf_s_l            0000000180018cc8 f   LIBCMT:vswprnc.obj
 0001:00017e18       _vswprintf_c               0000000180018e18 f   LIBCMT:vswprnc.obj
 0001:00017e4c       _vswprintf_c_l             0000000180018e4c f   LIBCMT:vswprnc.obj
 0001:00017e84       _vswprintf_helper          0000000180018e84 f   LIBCMT:vswprnc.obj
 0001:00017fa0       _vswprintf_p               0000000180018fa0 f   LIBCMT:vswprnc.obj
 0001:00017fd4       _vswprintf_p_l             0000000180018fd4 f   LIBCMT:vswprnc.obj
 0001:0001800c       _vswprintf_s_l             000000018001900c f   LIBCMT:vswprnc.obj
 0001:00018088       vswprintf_s                0000000180019088 f   LIBCMT:vswprnc.obj
 0001:000180a0       _getstream                 00000001800190a0 f   LIBCMT:stream.obj
 0001:000181d8       _wopenfile                 00000001800191d8 f   LIBCMT:_wopen.obj
 0001:000184d0       _local_unwind              00000001800194d0 f   LIBCMT:jmpuwind.obj
 0001:00018500       _NLG_Notify                0000000180019500 f   LIBCMT:jmpuwind.obj
 0001:00018520       __NLG_Dispatch2            0000000180019520 f   LIBCMT:jmpuwind.obj
 0001:00018530       __NLG_Return2              0000000180019530 f   LIBCMT:jmpuwind.obj
 0001:00018534       strcpy_s                   0000000180019534 f   LIBCMT:strcpy_s.obj
 0001:00018598       _wcsicmp                   0000000180019598 f   LIBCMT:wcsicmp.obj
 0001:0001861c       _wcsicmp_l                 000000018001961c f   LIBCMT:wcsicmp.obj
 0001:0001870c       __tzset                    000000018001970c f   LIBCMT:tzset.obj
 0001:00018748       _isindst                   0000000180019748 f   LIBCMT:tzset.obj
 0001:00018a28       _set_daylight              0000000180019a28 f i LIBCMT:tzset.obj
 0001:00018a40       _set_dstbias               0000000180019a40 f i LIBCMT:tzset.obj
 0001:00018a58       _set_timezone              0000000180019a58 f i LIBCMT:tzset.obj
 0001:00018a70       _tzset                     0000000180019a70 f   LIBCMT:tzset.obj
 0001:000191c4       _mbstowcs_l                000000018001a1c4 f   LIBCMT:mbstowcs.obj
 0001:000191cc       _mbstowcs_l_helper         000000018001a1cc f   LIBCMT:mbstowcs.obj
 0001:000193a8       _mbstowcs_s_l              000000018001a3a8 f   LIBCMT:mbstowcs.obj
 0001:000194d8       mbstowcs                   000000018001a4d8 f   LIBCMT:mbstowcs.obj
 0001:000194f4       mbstowcs_s                 000000018001a4f4 f   LIBCMT:mbstowcs.obj
 0001:00019514       __daylight                 000000018001a514 f   LIBCMT:timeset.obj
 0001:0001951c       __dstbias                  000000018001a51c f   LIBCMT:timeset.obj
 0001:00019524       __timezone                 000000018001a524 f   LIBCMT:timeset.obj
 0001:0001952c       __tzname                   000000018001a52c f   LIBCMT:timeset.obj
 0001:00019534       _get_daylight              000000018001a534 f   LIBCMT:timeset.obj
 0001:00019564       _get_dstbias               000000018001a564 f   LIBCMT:timeset.obj
 0001:00019594       _get_timezone              000000018001a594 f   LIBCMT:timeset.obj
 0001:000195c4       _get_tzname                000000018001a5c4 f   LIBCMT:timeset.obj
 0001:00019678       GetTableIndexFromLcid      000000018001a678 f   LIBCMT:winapinls.obj
 0001:000196bc       GetTableIndexFromLocaleName 000000018001a6bc f   LIBCMT:winapinls.obj
 0001:00019748       __crtCompareStringEx       000000018001a748 f   LIBCMT:winapinls.obj
 0001:000197d8       __crtDownlevelLCIDToLocaleName 000000018001a7d8 f   LIBCMT:winapinls.obj
 0001:00019888       __crtDownlevelLocaleNameToLCID 000000018001a888 f   LIBCMT:winapinls.obj
 0001:000198c8       __crtEnumSystemLocalesEx   000000018001a8c8 f   LIBCMT:winapinls.obj
 0001:0001990c       __crtGetDateFormatEx       000000018001a90c f   LIBCMT:winapinls.obj
 0001:00019988       __crtGetLocaleInfoEx       000000018001a988 f   LIBCMT:winapinls.obj
 0001:000199d8       __crtGetTimeFormatEx       000000018001a9d8 f   LIBCMT:winapinls.obj
 0001:00019a50       __crtGetUserDefaultLocaleName 000000018001aa50 f   LIBCMT:winapinls.obj
 0001:00019a94       __crtIsValidLocaleName     000000018001aa94 f   LIBCMT:winapinls.obj
 0001:00019ac8       __crtLCMapStringEx         000000018001aac8 f   LIBCMT:winapinls.obj
 0001:00019b58       __wcsnicmp_ascii           000000018001ab58 f   LIBCMT:winapinls.obj
 0001:00019bb0       _fileno                    000000018001abb0 f   LIBCMT:fileno.obj
 0001:00019bd8       _close                     000000018001abd8 f   LIBCMT:close.obj
 0001:00019c9c       _close_nolock              000000018001ac9c f   LIBCMT:close.obj
 0001:00019d58       _freebuf                   000000018001ad58 f   LIBCMT:_freebuf.obj
 0001:00019d90       _fflush_nolock             000000018001ad90 f   LIBCMT:fflush.obj
 0001:00019ddc       _flush                     000000018001addc f   LIBCMT:fflush.obj
 0001:00019e58       _flushall                  000000018001ae58 f   LIBCMT:fflush.obj
 0001:00019e64       fflush                     000000018001ae64 f   LIBCMT:fflush.obj
 0001:00019f90       _XcptFilter                000000018001af90 f   LIBCMT:winxfltr.obj
 0001:0001a15c       __CppXcptFilter            000000018001b15c f   LIBCMT:winxfltr.obj
 0001:0001a1a0       _gmtime64                  000000018001b1a0 f   LIBCMT:gmtime64.obj
 0001:0001a1e8       _gmtime64_s                000000018001b1e8 f   LIBCMT:gmtime64.obj
 0001:0001a4b8       __getgmtimebuf             000000018001b4b8 f   LIBCMT:gmtime.obj
 0001:0001a500       _gmtime32                  000000018001b500 f   LIBCMT:gmtime.obj
 0001:0001a548       _gmtime32_s                000000018001b548 f   LIBCMT:gmtime.obj
 0001:0001a6ec       _clrfp                     000000018001b6ec f   LIBCMT:fpctrl.obj
 0001:0001a70c       _ctrlfp                    000000018001b70c f   LIBCMT:fpctrl.obj
 0001:0001a788       _set_statfp                000000018001b788 f   LIBCMT:fpctrl.obj
 0001:0001a7a8       _statfp                    000000018001b7a8 f   LIBCMT:fpctrl.obj
 0001:0001a8e0       _handle_error              000000018001b8e0 f   LIBCMT:libm_error.obj
 0001:0001aa08       _handle_errorf             000000018001ba08 f   LIBCMT:libm_error.obj
 0001:0001ab3c       ?strrchr@@YAPEADPEADH@Z    000000018001bb3c f i LIBCMT:cvt.obj
 0001:0001ab44       _cfltcvt                   000000018001bb44 f   LIBCMT:cvt.obj
 0001:0001ab68       _cfltcvt_l                 000000018001bb68 f   LIBCMT:cvt.obj
 0001:0001abe8       _cftoa                     000000018001bbe8 f   LIBCMT:cvt.obj
 0001:0001ac04       _cftoa_l                   000000018001bc04 f   LIBCMT:cvt.obj
 0001:0001afb4       _cftoe                     000000018001bfb4 f   LIBCMT:cvt.obj
 0001:0001b1cc       _cftoe_l                   000000018001c1cc f   LIBCMT:cvt.obj
 0001:0001b2c4       _cftof                     000000018001c2c4 f   LIBCMT:cvt.obj
 0001:0001b43c       _cftof_l                   000000018001c43c f   LIBCMT:cvt.obj
 0001:0001b510       _cftog                     000000018001c510 f   LIBCMT:cvt.obj
 0001:0001b52c       _cftog_l                   000000018001c52c f   LIBCMT:cvt.obj
 0001:0001b660       _cropzeros                 000000018001c660 f   LIBCMT:cvt.obj
 0001:0001b668       _cropzeros_l               000000018001c668 f   LIBCMT:cvt.obj
 0001:0001b700       _fassign                   000000018001c700 f   LIBCMT:cvt.obj
 0001:0001b708       _fassign_l                 000000018001c708 f   LIBCMT:cvt.obj
 0001:0001b748       _forcdecpt                 000000018001c748 f   LIBCMT:cvt.obj
 0001:0001b750       _forcdecpt_l               000000018001c750 f   LIBCMT:cvt.obj
 0001:0001b7d0       _positive                  000000018001c7d0 f   LIBCMT:cvt.obj
 0001:0001b818       _get_heap_handle           000000018001c818 f   LIBCMT:heapinit.obj
 0001:0001b820       _heap_init                 000000018001c820 f   LIBCMT:heapinit.obj
 0001:0001b840       _heap_term                 000000018001c840 f   LIBCMT:heapinit.obj
 0001:0001b84c       realloc                    000000018001c84c f   LIBCMT:realloc.obj
 0001:0001b920       ??2@YAPEAX_KAEBUnothrow_t@std@@@Z 000000018001c920 f   LIBCMT:newopnt.obj
 0001:0001b940       _ioinit                    000000018001c940 f   LIBCMT:ioinit.obj
 0001:0001bc70       _ioterm                    000000018001cc70 f   LIBCMT:ioinit.obj
 0001:0001bce4       _set_pgmptr                000000018001cce4 f i LIBCMT:stdargv.obj
 0001:0001bcec       _setargv                   000000018001ccec f   LIBCMT:stdargv.obj
 0001:0001bfa8       _setenvp                   000000018001cfa8 f   LIBCMT:stdenvp.obj
 0001:0001c0dc       __security_init_cookie     000000018001d0dc f   LIBCMT:gs_support.obj
 0001:0001c188       __crtGetEnvironmentStringsA 000000018001d188 f   LIBCMT:a_env.obj
 0001:0001c27c       wcscat_s                   000000018001d27c f   LIBCMT:wcscat_s.obj
 0001:0001c304       __set_app_type             000000018001d304 f   LIBCMT:errmode.obj
 0001:0001c30c       _set_error_mode            000000018001d30c f   LIBCMT:errmode.obj
 0001:0001c34c       __crtMessageBoxW           000000018001d34c f   LIBCMT:crtmboxw.obj
 0001:0001c5c0       __crtMessageBoxWaitThreadW 000000018001d5c0 f   LIBCMT:crtmboxw.obj
 0001:0001c5e4       _calloc_impl               000000018001d5e4 f   LIBCMT:calloc_impl.obj
 0001:0001c680       _fptrap                    000000018001d680 f   LIBCMT:crt0fp.obj
 0001:0001c68c       strncpy_s                  000000018001d68c f   LIBCMT:strncpy_s.obj
 0001:0001c8b4       __crtGetLocaleInfoA        000000018001d8b4 f   LIBCMT:a_loc.obj
 0001:0001cc24       __crtLCMapStringA          000000018001dc24 f   LIBCMT:a_map.obj
 0001:0001ce34       __crtGetStringTypeA        000000018001de34 f   LIBCMT:a_str.obj
 0001:0001ceb0       _isatty                    000000018001deb0 f   LIBCMT:isatty.obj
 0001:0001cf10       ?_ValidateExecute@@YAHP6A_JXZ@Z 000000018001df10 f   LIBCMT:validate.obj
 0001:0001cf1c       ?_ValidateRead@@YAHPEBXI@Z 000000018001df1c f   LIBCMT:validate.obj
 0001:0001cf28       ?_ValidateWrite@@YAHPEAXI@Z 000000018001df28 f   LIBCMT:validate.obj
 0001:0001cf50       _CallSettingFrame          000000018001df50 f   LIBCMT:handlers.obj
 0001:0001cf90       _GetNextInstrOffset        000000018001df90 f   LIBCMT:handlers.obj
 0001:0001cf98       ??0Block@_HeapManager@@QEAA@XZ 000000018001df98 f i LIBCMT:undname.obj
 0001:0001cfa0       ??0DName@@QEAA@AEAPEBDD@Z  000000018001dfa0 f   LIBCMT:undname.obj
 0001:0001d080       ??0DName@@QEAA@AEBV0@@Z    000000018001e080 f i LIBCMT:undname.obj
 0001:0001d08c       ??0DName@@QEAA@D@Z         000000018001e08c f   LIBCMT:undname.obj
 0001:0001d0c4       ??0DName@@QEAA@PEAV0@@Z    000000018001e0c4 f   LIBCMT:undname.obj
 0001:0001d14c       ??0DName@@QEAA@PEBD@Z      000000018001e14c f   LIBCMT:undname.obj
 0001:0001d194       ??0DName@@QEAA@W4DNameStatus@@@Z 000000018001e194 f   LIBCMT:undname.obj
 0001:0001d1e4       ??0DName@@QEAA@XZ          000000018001e1e4 f i LIBCMT:undname.obj
 0001:0001d1f8       ??0DName@@QEAA@_J@Z        000000018001e1f8 f   LIBCMT:undname.obj
 0001:0001d2a4       ??0DName@@QEAA@_K@Z        000000018001e2a4 f   LIBCMT:undname.obj
 0001:0001d334       ??0DNameNode@@IEAA@XZ      000000018001e334 f   LIBCMT:undname.obj
 0001:0001d344       ??0DNameStatusNode@@AEAA@W4DNameStatus@@@Z 000000018001e344 f   LIBCMT:undname.obj
 0001:0001d368       ??0Replicator@@QEAA@XZ     000000018001e368 f i LIBCMT:undname.obj
 0001:0001d370       ??0UnDecorator@@QEAA@PEADPEBDHP6APEADJ@ZK@Z 000000018001e370 f i LIBCMT:undname.obj
 0001:0001d3e4       ??0charNode@@QEAA@D@Z      000000018001e3e4 f   LIBCMT:undname.obj
 0001:0001d3f8       ??0pDNameNode@@QEAA@PEAVDName@@@Z 000000018001e3f8 f   LIBCMT:undname.obj
 0001:0001d420       ??0pairNode@@QEAA@PEAVDNameNode@@0@Z 000000018001e420 f   LIBCMT:undname.obj
 0001:0001d43c       ??0pcharNode@@QEAA@PEBDH@Z 000000018001e43c f   LIBCMT:undname.obj
 0001:0001d4c4       ??2@YAPEAX_KAEAV_HeapManager@@H@Z 000000018001e4c4 f i LIBCMT:undname.obj
 0001:0001d4d4       ??4DName@@QEAAAEAV0@AEBV0@@Z 000000018001e4d4 f   LIBCMT:undname.obj
 0001:0001d4e0       ??4DName@@QEAAAEAV0@D@Z    000000018001e4e0 f i LIBCMT:undname.obj
 0001:0001d518       ??4DName@@QEAAAEAV0@PEAV0@@Z 000000018001e518 f   LIBCMT:undname.obj
 0001:0001d5a0       ??4DName@@QEAAAEAV0@PEBD@Z 000000018001e5a0 f   LIBCMT:undname.obj
 0001:0001d5e0       ??4DName@@QEAAAEAV0@W4DNameStatus@@@Z 000000018001e5e0 f   LIBCMT:undname.obj
 0001:0001d61c       ??AReplicator@@QEBA?AVDName@@H@Z 000000018001e61c f   LIBCMT:undname.obj
 0001:0001d664       ??BUnDecorator@@QEAAPEADXZ 000000018001e664 f i LIBCMT:undname.obj
 0001:0001d858       ??H@YA?AVDName@@DAEBV0@@Z  000000018001e858 f i LIBCMT:undname.obj
 0001:0001d894       ??H@YA?AVDName@@PEBDAEBV0@@Z 000000018001e894 f i LIBCMT:undname.obj
 0001:0001d8d0       ??H@YA?AVDName@@W4DNameStatus@@AEBV0@@Z 000000018001e8d0 f i LIBCMT:undname.obj
 0001:0001d90c       ??HDName@@QEBA?AV0@AEBV0@@Z 000000018001e90c f   LIBCMT:undname.obj
 0001:0001d930       ??HDName@@QEBA?AV0@D@Z     000000018001e930 f   LIBCMT:undname.obj
 0001:0001d954       ??HDName@@QEBA?AV0@PEAV0@@Z 000000018001e954 f   LIBCMT:undname.obj
 0001:0001d978       ??HDName@@QEBA?AV0@PEBD@Z  000000018001e978 f   LIBCMT:undname.obj
 0001:0001d99c       ??HDName@@QEBA?AV0@W4DNameStatus@@@Z 000000018001e99c f   LIBCMT:undname.obj
 0001:0001d9c0       ??YDName@@QEAAAEAV0@AEBV0@@Z 000000018001e9c0 f   LIBCMT:undname.obj
 0001:0001da00       ??YDName@@QEAAAEAV0@D@Z    000000018001ea00 f   LIBCMT:undname.obj
 0001:0001da84       ??YDName@@QEAAAEAV0@PEAV0@@Z 000000018001ea84 f   LIBCMT:undname.obj
 0001:0001db1c       ??YDName@@QEAAAEAV0@PEBD@Z 000000018001eb1c f   LIBCMT:undname.obj
 0001:0001dba8       ??YDName@@QEAAAEAV0@W4DNameStatus@@@Z 000000018001eba8 f   LIBCMT:undname.obj
 0001:0001dbec       ??YReplicator@@QEAAAEAV0@AEBVDName@@@Z 000000018001ebec f   LIBCMT:undname.obj
 0001:0001dc4c       ??_5DName@@QEAAAEAV0@AEBV0@@Z 000000018001ec4c f   LIBCMT:undname.obj
 0001:0001dc60       ?Constructor@_HeapManager@@QEAAXP6APEAX_K@ZP6AXPEAX@Z@Z 000000018001ec60 f i LIBCMT:undname.obj
 0001:0001dc78       ?Destructor@_HeapManager@@QEAAXXZ 000000018001ec78 f i LIBCMT:undname.obj
 0001:0001dcb8       ?UScore@UnDecorator@@SAPEBDW4Tokens@@@Z 000000018001ecb8 f   LIBCMT:undname.obj
 0001:0001dcd8       ?append@DName@@AEAAXPEAVDNameNode@@@Z 000000018001ecd8 f   LIBCMT:undname.obj
 0001:0001dd3c       ?composeDeclaration@UnDecorator@@CA?AVDName@@AEBV2@@Z 000000018001ed3c f i LIBCMT:undname.obj
 0001:0001eac0       ?doAccessSpecifiers@UnDecorator@@SAHXZ 000000018001fac0 f i LIBCMT:undname.obj
 0001:0001ead0       ?doAllocationLanguage@UnDecorator@@SAHXZ 000000018001fad0 f i LIBCMT:undname.obj
 0001:0001eae0       ?doAllocationModel@UnDecorator@@SAHXZ 000000018001fae0 f i LIBCMT:undname.obj
 0001:0001eaf0       ?doEcsu@UnDecorator@@SAHXZ 000000018001faf0 f i LIBCMT:undname.obj
 0001:0001eb00       ?doEllipsis@UnDecorator@@SAHXZ 000000018001fb00 f i LIBCMT:undname.obj
 0001:0001eb10       ?doFunctionReturns@UnDecorator@@SAHXZ 000000018001fb10 f i LIBCMT:undname.obj
 0001:0001eb20       ?doMSKeywords@UnDecorator@@SAHXZ 000000018001fb20 f i LIBCMT:undname.obj
 0001:0001eb30       ?doMemberTypes@UnDecorator@@SAHXZ 000000018001fb30 f i LIBCMT:undname.obj
 0001:0001eb40       ?doNameOnly@UnDecorator@@SAHXZ 000000018001fb40 f i LIBCMT:undname.obj
 0001:0001eb4c       ?doNoIdentCharCheck@UnDecorator@@SAHXZ 000000018001fb4c f i LIBCMT:undname.obj
 0001:0001eb58       ?doPchar@DName@@AEAAXPEBDH@Z 000000018001fb58 f   LIBCMT:undname.obj
 0001:0001ec04       ?doPtr64@UnDecorator@@SAHXZ 000000018001fc04 f i LIBCMT:undname.obj
 0001:0001ec14       ?doRestrictionSpec@UnDecorator@@SAHXZ 000000018001fc14 f i LIBCMT:undname.obj
 0001:0001ec24       ?doThisTypes@UnDecorator@@SAHXZ 000000018001fc24 f i LIBCMT:undname.obj
 0001:0001ec38       ?doThrowTypes@UnDecorator@@SAHXZ 000000018001fc38 f i LIBCMT:undname.obj
 0001:0001ec48       ?doTypeOnly@UnDecorator@@SAHXZ 000000018001fc48 f i LIBCMT:undname.obj
 0001:0001ec54       ?doUnderScore@UnDecorator@@SAHXZ 000000018001fc54 f i LIBCMT:undname.obj
 0001:0001ec60       ?getArgumentList@UnDecorator@@CA?AVDName@@XZ 000000018001fc60 f   LIBCMT:undname.obj
 0001:0001eda4       ?getArgumentTypes@UnDecorator@@CA?AVDName@@XZ 000000018001fda4 f   LIBCMT:undname.obj
 0001:0001eea0       ?getArrayType@UnDecorator@@CA?AVDName@@AEBV2@@Z 000000018001fea0 f i LIBCMT:undname.obj
 0001:0001f0e4       ?getBasedType@UnDecorator@@CA?AVDName@@XZ 00000001800200e4 f   LIBCMT:undname.obj
 0001:0001f1a4       ?getBasicDataType@UnDecorator@@CA?AVDName@@AEBV2@@Z 00000001800201a4 f   LIBCMT:undname.obj
 0001:0001f5b4       ?getCallIndex@UnDecorator@@CA?AVDName@@XZ 00000001800205b4 f i LIBCMT:undname.obj
 0001:0001f5d0       ?getCallingConvention@UnDecorator@@CA?AVDName@@XZ 00000001800205d0 f   LIBCMT:undname.obj
 0001:0001f6d0       ?getDataIndirectType@UnDecorator@@CA?AVDName@@AEBV2@PEBD0H@Z 00000001800206d0 f   LIBCMT:undname.obj
 0001:0001fdc4       ?getDataIndirectType@UnDecorator@@CA?AVDName@@XZ 0000000180020dc4 f i LIBCMT:undname.obj
 0001:0001fe0c       ?getDataType@UnDecorator@@CA?AVDName@@PEAV2@@Z 0000000180020e0c f   LIBCMT:undname.obj
 0001:0001fef0       ?getDecoratedName@UnDecorator@@CA?AVDName@@XZ 0000000180020ef0 f   LIBCMT:undname.obj
 0001:00020164       ?getDimension@UnDecorator@@CA?AVDName@@_N@Z 0000000180021164 f   LIBCMT:undname.obj
 0001:000202c0       ?getDispatchTarget@UnDecorator@@CA?AVDName@@XZ 00000001800212c0 f   LIBCMT:undname.obj
 0001:00020324       ?getDisplacement@UnDecorator@@CA?AVDName@@XZ 0000000180021324 f i LIBCMT:undname.obj
 0001:00020340       ?getECSUDataType@UnDecorator@@CA?AVDName@@XZ 0000000180021340 f   LIBCMT:undname.obj
 0001:000204a0       ?getECSUName@UnDecorator@@CA?AVDName@@XZ 00000001800214a0 f i LIBCMT:undname.obj
 0001:000204b8       ?getEnumType@UnDecorator@@CA?AVDName@@XZ 00000001800214b8 f i LIBCMT:undname.obj
 0001:000205a0       ?getExtendedDataIndirectType@UnDecorator@@CA?AVDName@@AEAPEBDAEA_NH@Z 00000001800215a0 f   LIBCMT:undname.obj
 0001:000207ec       ?getExternalDataType@UnDecorator@@CA?AVDName@@AEBV2@@Z 00000001800217ec f i LIBCMT:undname.obj
 0001:000208c0       ?getFunctionIndirectType@UnDecorator@@CA?AVDName@@AEBV2@@Z 00000001800218c0 f   LIBCMT:undname.obj
 0001:00020dc8       ?getGuardNumber@UnDecorator@@CA?AVDName@@XZ 0000000180021dc8 f i LIBCMT:undname.obj
 0001:00020de4       ?getLastChar@DName@@QEBADXZ 0000000180021de4 f i LIBCMT:undname.obj
 0001:00020df8       ?getLastChar@DNameStatusNode@@UEBADXZ 0000000180021df8 f i LIBCMT:undname.obj
 0001:00020e04       ?getLastChar@charNode@@UEBADXZ 0000000180021e04 f i LIBCMT:undname.obj
 0001:00020e08       ?getLastChar@pDNameNode@@UEBADXZ 0000000180021e08 f i LIBCMT:undname.obj
 0001:00020e2c       ?getLastChar@pairNode@@UEBADXZ 0000000180021e2c f i LIBCMT:undname.obj
 0001:00020e54       ?getLastChar@pcharNode@@UEBADXZ 0000000180021e54 f i LIBCMT:undname.obj
 0001:00020e68       ?getLexicalFrame@UnDecorator@@CA?AVDName@@XZ 0000000180021e68 f i LIBCMT:undname.obj
 0001:00020ec8       ?getMemory@_HeapManager@@QEAAPEAX_KH@Z 0000000180021ec8 f   LIBCMT:undname.obj
 0001:00020f78       ?getNumberOfDimensions@UnDecorator@@CAHXZ 0000000180021f78 f   LIBCMT:undname.obj
 0001:00020fec       ?getOperatorName@UnDecorator@@CA?AVDName@@_NPEA_N@Z 0000000180021fec f i LIBCMT:undname.obj
 0001:000216c8       ?getPointerType@UnDecorator@@CA?AVDName@@AEBV2@0@Z 00000001800226c8 f i LIBCMT:undname.obj
 0001:000216e8       ?getPointerTypeArray@UnDecorator@@CA?AVDName@@AEBV2@0@Z 00000001800226e8 f i LIBCMT:undname.obj
 0001:00021708       ?getPrimaryDataType@UnDecorator@@CA?AVDName@@AEBV2@@Z 0000000180022708 f   LIBCMT:undname.obj
 0001:00021920       ?getPtrRefDataType@UnDecorator@@CA?AVDName@@AEBV2@H@Z 0000000180022920 f i LIBCMT:undname.obj
 0001:00021a28       ?getPtrRefType@UnDecorator@@CA?AVDName@@AEBV2@0PEBD@Z 0000000180022a28 f   LIBCMT:undname.obj
 0001:00021b5c       ?getReferenceType@UnDecorator@@CA?AVDName@@AEBV2@0PEBD@Z 0000000180022b5c f i LIBCMT:undname.obj
 0001:00021b74       ?getRestrictionSpec@UnDecorator@@CA?AVDName@@XZ 0000000180022b74 f   LIBCMT:undname.obj
 0001:00021c9c       ?getReturnType@UnDecorator@@CA?AVDName@@PEAV2@@Z 0000000180022c9c f   LIBCMT:undname.obj
 0001:00021cd0       ?getScope@UnDecorator@@CA?AVDName@@XZ 0000000180022cd0 f   LIBCMT:undname.obj
 0001:000221c4       ?getScopedName@UnDecorator@@CA?AVDName@@XZ 00000001800231c4 f   LIBCMT:undname.obj
 0001:000222dc       ?getSignedDimension@UnDecorator@@CA?AVDName@@XZ 00000001800232dc f   LIBCMT:undname.obj
 0001:00022358       ?getStorageConvention@UnDecorator@@CA?AVDName@@XZ 0000000180023358 f i LIBCMT:undname.obj
 0001:000223a0       ?getString@DName@@QEBAPEADPEAD0@Z 00000001800233a0 f i LIBCMT:undname.obj
 0001:000223b4       ?getString@DName@@QEBAPEADPEADH@Z 00000001800233b4 f i LIBCMT:undname.obj
 0001:0002243c       ?getString@DNameStatusNode@@UEBAPEADPEAD0@Z 000000018002343c f i LIBCMT:undname.obj
 0001:00022480       ?getString@charNode@@UEBAPEADPEAD0@Z 0000000180023480 f i LIBCMT:undname.obj
 0001:00022494       ?getString@pDNameNode@@UEBAPEADPEAD0@Z 0000000180023494 f i LIBCMT:undname.obj
 0001:000224bc       ?getString@pairNode@@UEBAPEADPEAD0@Z 00000001800234bc f i LIBCMT:undname.obj
 0001:000224f8       ?getString@pcharNode@@UEBAPEADPEAD0@Z 00000001800234f8 f i LIBCMT:undname.obj
 0001:00022530       ?getStringEncoding@UnDecorator@@CA?AVDName@@PEADH@Z 0000000180023530 f   LIBCMT:undname.obj
 0001:000225f0       ?getStringHelper@@YAPEADPEAD00H@Z 00000001800235f0 f i LIBCMT:undname.obj
 0001:0002261c       ?getSymbolName@UnDecorator@@CA?AVDName@@XZ 000000018002361c f i LIBCMT:undname.obj
 0001:00022668       ?getTemplateArgumentList@UnDecorator@@CA?AVDName@@XZ 0000000180023668 f   LIBCMT:undname.obj
 0001:00022954       ?getTemplateConstant@UnDecorator@@CA?AVDName@@XZ 0000000180023954 f   LIBCMT:undname.obj
 0001:00022cd0       ?getTemplateName@UnDecorator@@CA?AVDName@@_N@Z 0000000180023cd0 f   LIBCMT:undname.obj
 0001:00022ea0       ?getThisType@UnDecorator@@CA?AVDName@@XZ 0000000180023ea0 f i LIBCMT:undname.obj
 0001:00022ee8       ?getThrowTypes@UnDecorator@@CA?AVDName@@XZ 0000000180023ee8 f   LIBCMT:undname.obj
 0001:00022fac       ?getTypeEncoding@UnDecorator@@CAHXZ 0000000180023fac f i LIBCMT:undname.obj
 0001:0002348c       ?getVCallThunkType@UnDecorator@@CA?AVDName@@XZ 000000018002448c f i LIBCMT:undname.obj
 0001:000234d8       ?getVbTableType@UnDecorator@@CA?AVDName@@AEBV2@@Z 00000001800244d8 f i LIBCMT:undname.obj
 0001:000234f0       ?getVdispMapType@UnDecorator@@CA?AVDName@@AEBV2@@Z 00000001800244f0 f i LIBCMT:undname.obj
 0001:0002354c       ?getVfTableType@UnDecorator@@CA?AVDName@@AEBV2@@Z 000000018002454c f i LIBCMT:undname.obj
 0001:0002371c       ?getZName@UnDecorator@@CA?AVDName@@_N0@Z 000000018002471c f   LIBCMT:undname.obj
 0001:00023994       ?haveTemplateParameters@UnDecorator@@SAHXZ 0000000180024994 f i LIBCMT:undname.obj
 0001:000239a0       ?isArray@DName@@QEBAHXZ    00000001800249a0 f i LIBCMT:undname.obj
 0001:000239ac       ?isComArray@DName@@QEBAHXZ 00000001800249ac f i LIBCMT:undname.obj
 0001:000239b8       ?isEmpty@DName@@QEBAHXZ    00000001800249b8 f i LIBCMT:undname.obj
 0001:000239c4       ?isFull@Replicator@@QEBAHXZ 00000001800249c4 f i LIBCMT:undname.obj
 0001:000239d0       ?isNoTE@DName@@QEBAHXZ     00000001800249d0 f i LIBCMT:undname.obj
 0001:000239dc       ?isPinPtr@DName@@QEBAHXZ   00000001800249dc f i LIBCMT:undname.obj
 0001:000239e8       ?isPtrRef@DName@@QEBAHXZ   00000001800249e8 f i LIBCMT:undname.obj
 0001:000239f4       ?isUDC@DName@@QEBAHXZ      00000001800249f4 f i LIBCMT:undname.obj
 0001:00023a0c       ?isUDTThunk@DName@@QEBAHXZ 0000000180024a0c f i LIBCMT:undname.obj
 0001:00023a24       ?isVCallThunk@DName@@QEBAHXZ 0000000180024a24 f i LIBCMT:undname.obj
 0001:00023a30       ?isValid@DName@@QEBAHXZ    0000000180024a30 f i LIBCMT:undname.obj
 0001:00023a3c       ?length@DName@@QEBAHXZ     0000000180024a3c f i LIBCMT:undname.obj
 0001:00023a50       ?length@DNameStatusNode@@UEBAHXZ 0000000180024a50 f i LIBCMT:undname.obj
 0001:00023a54       ?length@charNode@@UEBAHXZ  0000000180024a54 f i LIBCMT:undname.obj
 0001:00023a5c       ?length@pDNameNode@@UEBAHXZ 0000000180024a5c f i LIBCMT:undname.obj
 0001:00023a80       ?length@pairNode@@UEBAHXZ  0000000180024a80 f i LIBCMT:undname.obj
 0001:00023ac8       ?length@pcharNode@@UEBAHXZ 0000000180024ac8 f i LIBCMT:undname.obj
 0001:00023acc       ?make@DNameStatusNode@@SAPEAV1@W4DNameStatus@@@Z 0000000180024acc f i LIBCMT:undname.obj
 0001:00023b54       ?setIsArray@DName@@QEAAXXZ 0000000180024b54 f i LIBCMT:undname.obj
 0001:00023b5c       ?setIsComArray@DName@@QEAAXXZ 0000000180024b5c f i LIBCMT:undname.obj
 0001:00023b64       ?setIsNoTE@DName@@QEAAXXZ  0000000180024b64 f i LIBCMT:undname.obj
 0001:00023b6c       ?setIsPinPtr@DName@@QEAAXXZ 0000000180024b6c f i LIBCMT:undname.obj
 0001:00023b74       ?setIsUDC@DName@@QEAAXXZ   0000000180024b74 f i LIBCMT:undname.obj
 0001:00023b80       ?setIsVCallThunk@DName@@QEAAXXZ 0000000180024b80 f i LIBCMT:undname.obj
 0001:00023b88       ?setPtrRef@DName@@QEAAAEAV1@XZ 0000000180024b88 f i LIBCMT:undname.obj
 0001:00023b94       ?status@DName@@QEBA?AW4DNameStatus@@XZ 0000000180024b94 f i LIBCMT:undname.obj
 0001:00023bf8       __unDName                  0000000180024bf8 f   LIBCMT:undname.obj
 0001:00023cf8       __unDNameEx                0000000180024cf8 f   LIBCMT:undname.obj
 0001:00023e00       _wchartodigit              0000000180024e00 f   LIBCMT:wchtodig.obj
 0001:00023f98       _wcstod_l                  0000000180024f98 f   LIBCMT:wcstod.obj
 0001:000240c8       wcstod                     00000001800250c8 f   LIBCMT:wcstod.obj
 0001:000240d0       __crt_atoflt_l             00000001800250d0 f   LIBCMT:atodbl.obj
 0001:000241a0       _atodbl                    00000001800251a0 f   LIBCMT:atodbl.obj
 0001:000241a8       _atodbl_l                  00000001800251a8 f   LIBCMT:atodbl.obj
 0001:00024270       _atoflt                    0000000180025270 f   LIBCMT:atodbl.obj
 0001:0002427c       _atoflt_l                  000000018002527c f   LIBCMT:atodbl.obj
 0001:00024284       _atoldbl                   0000000180025284 f   LIBCMT:atodbl.obj
 0001:0002428c       _atoldbl_l                 000000018002528c f   LIBCMT:atodbl.obj
 0001:00024358       __init_dummy               0000000180025358 f   LIBCMT:wsetloca.obj
 0001:0002435c       _locterm                   000000018002535c f   LIBCMT:wsetloca.obj
 0001:000243a4       ___setlc_active_func       00000001800253a4 f   LIBCMT:wsetloca.obj
 0001:000243ac       ___unguarded_readlc_active_add_func 00000001800253ac f   LIBCMT:wsetloca.obj
 0001:000243b4       __copy_locale_name         00000001800253b4 f   LIBCMT:wsetloca.obj
 0001:00024438       __create_locale            0000000180025438 f   LIBCMT:wsetloca.obj
 0001:00024440       __free_locale              0000000180025440 f   LIBCMT:wsetloca.obj
 0001:00024448       __get_current_locale       0000000180025448 f   LIBCMT:wsetloca.obj
 0001:00024450       __lc_lctowcs               0000000180025450 f   LIBCMT:wsetloca.obj
 0001:000244f4       __lc_wcstolc               00000001800254f4 f   LIBCMT:wsetloca.obj
 0001:000246ac       _configthreadlocale        00000001800256ac f   LIBCMT:wsetloca.obj
 0001:000247d4       _create_locale             00000001800257d4 f   LIBCMT:wsetloca.obj
 0001:0002484c       _expandlocale              000000018002584c f   LIBCMT:wsetloca.obj
 0001:00024c20       _free_locale               0000000180025c20 f   LIBCMT:wsetloca.obj
 0001:00024cbc       _get_current_locale        0000000180025cbc f   LIBCMT:wsetloca.obj
 0001:00024d58       _wcreate_locale            0000000180025d58 f   LIBCMT:wsetloca.obj
 0001:00024e58       _wcscats                   0000000180025e58 f   LIBCMT:wsetloca.obj
 0001:00024ec0       _wsetlocale                0000000180025ec0 f   LIBCMT:wsetloca.obj
 0001:000257dc       __free_lconv_mon           00000001800267dc f   LIBCMT:initmon.obj
 0001:000258e8       __init_monetary            00000001800268e8 f   LIBCMT:initmon.obj
 0001:00025e24       __free_lconv_num           0000000180026e24 f   LIBCMT:initnum.obj
 0001:00025e90       __init_numeric             0000000180026e90 f   LIBCMT:initnum.obj
 0001:00026194       __free_lc_time             0000000180027194 f   LIBCMT:inittime.obj
 0001:00026590       __init_time                0000000180027590 f   LIBCMT:inittime.obj
 0001:000271ac       localeconv                 00000001800281ac f   LIBCMT:lconv.obj
 0001:000271e4       __pctype_func              00000001800281e4 f   LIBCMT:ctype.obj
 0001:00027220       __pwctype_func             0000000180028220 f   LIBCMT:ctype.obj
 0001:00027228       _woutput_s_l               0000000180028228 f   LIBCMT:woutputs.obj
 0001:00027e3c       _validate_param_reuseW     0000000180028e3c f   LIBCMT:woutputp.obj
 0001:00027f6c       _woutput_p_l               0000000180028f6c f   LIBCMT:woutputp.obj
 0001:00029268       _fcloseall                 000000018002a268 f   LIBCMT:closeall.obj
 0001:00029310       _get_printf_count_output   000000018002a310 f   LIBCMT:printf.obj
 0001:00029328       _printf_l                  000000018002a328 f   LIBCMT:printf.obj
 0001:0002934c       _printf_p                  000000018002a34c f   LIBCMT:printf.obj
 0001:00029374       _printf_p_l                000000018002a374 f   LIBCMT:printf.obj
 0001:00029398       _printf_s_l                000000018002a398 f   LIBCMT:printf.obj
 0001:000293bc       _set_printf_count_output   000000018002a3bc f   LIBCMT:printf.obj
 0001:000293e4       printf                     000000018002a3e4 f   LIBCMT:printf.obj
 0001:00029490       printf_s                   000000018002a490 f   LIBCMT:printf.obj
 0001:000294b8       _fputwc_nolock             000000018002a4b8 f   LIBCMT:fputwc.obj
 0001:000296ac       fputwc                     000000018002a6ac f   LIBCMT:fputwc.obj
 0001:00029714       putwc                      000000018002a714 f   LIBCMT:fputwc.obj
 0001:0002971c       _mbtowc_l                  000000018002a71c f   LIBCMT:mbtowc.obj
 0001:00029870       mbtowc                     000000018002a870 f   LIBCMT:mbtowc.obj
 0001:00029878       _output_l                  000000018002a878 f   LIBCMT:output.obj
 0001:0002a288       get_short_arg              000000018002b288 f i LIBCMT:output.obj
 0001:0002a3c4       _write                     000000018002b3c4 f   LIBCMT:write.obj
 0001:0002a4a8       _write_nolock              000000018002b4a8 f   LIBCMT:write.obj
 0001:0002ac9c       _lseeki64                  000000018002bc9c f   LIBCMT:lseeki64.obj
 0001:0002ad84       _lseeki64_nolock           000000018002bd84 f   LIBCMT:lseeki64.obj
 0001:0002ae18       _getbuf                    000000018002be18 f   LIBCMT:_getbuf.obj
 0001:0002af5c       _wopen                     000000018002bf5c f   LIBCMT:wopen.obj
 0001:0002b030       _wsopen                    000000018002c030 f   LIBCMT:wopen.obj
 0001:0002b074       _wsopen_helper             000000018002c074 f   LIBCMT:wopen.obj
 0001:0002b154       _wsopen_nolock             000000018002c154 f   LIBCMT:wopen.obj
 0001:0002b90c       _wsopen_s                  000000018002c90c f   LIBCMT:wopen.obj
 0001:0002b940       wcsncmp                    000000018002c940 f   LIBCMT:wcsncmp.obj
 0001:0002b96c       _wcsnicmp                  000000018002c96c f   LIBCMT:wcsnicmp.obj
 0001:0002ba04       _wcsnicmp_l                000000018002ca04 f   LIBCMT:wcsnicmp.obj
 0001:0002bb1c       _towlower_l                000000018002cb1c f   LIBCMT:towlower.obj
 0001:0002bbe8       towlower                   000000018002cbe8 f   LIBCMT:towlower.obj
 0001:0002bbf0       _atoi64                    000000018002cbf0 f   LIBCMT:atox.obj
 0001:0002bbfc       _atoi64_l                  000000018002cbfc f   LIBCMT:atox.obj
 0001:0002bc0c       _atoi_l                    000000018002cc0c f   LIBCMT:atox.obj
 0001:0002bc1c       _atol_l                    000000018002cc1c f   LIBCMT:atox.obj
 0001:0002bc2c       _atoll_l                   000000018002cc2c f   LIBCMT:atox.obj
 0001:0002bc3c       atoi                       000000018002cc3c f   LIBCMT:atox.obj
 0001:0002bc48       atol                       000000018002cc48 f   LIBCMT:atox.obj
 0001:0002bc54       atoll                      000000018002cc54 f   LIBCMT:atox.obj
 0001:0002bc60       _dupenv_s                  000000018002cc60 f   LIBCMT:getenv.obj
 0001:0002be38       _getenv_helper_nolock      000000018002ce38 f   LIBCMT:getenv.obj
 0001:0002bfa0       getenv                     000000018002cfa0 f   LIBCMT:getenv.obj
 0001:0002c00c       getenv_s                   000000018002d00c f   LIBCMT:getenv.obj
 0001:0002c108       ___lc_codepage_func        000000018002d108 f   LIBCMT:initctyp.obj
 0001:0002c140       ___lc_collate_cp_func      000000018002d140 f   LIBCMT:initctyp.obj
 0001:0002c178       ___lc_locale_name_func     000000018002d178 f   LIBCMT:initctyp.obj
 0001:0002c1b4       ___mb_cur_max_func         000000018002d1b4 f   LIBCMT:initctyp.obj
 0001:0002c1f0       ___mb_cur_max_l_func       000000018002d1f0 f   LIBCMT:initctyp.obj
 0001:0002c204       __init_ctype               000000018002d204 f   LIBCMT:initctyp.obj
 0001:0002c628       wcsnlen                    000000018002d628 f   LIBCMT:wcslen_s.obj
 0001:0002c648       __lock_fhandle             000000018002d648 f   LIBCMT:osfinfo.obj
 0001:0002c6e0       _alloc_osfhnd              000000018002d6e0 f   LIBCMT:osfinfo.obj
 0001:0002c8d8       _free_osfhnd               000000018002d8d8 f   LIBCMT:osfinfo.obj
 0001:0002c984       _get_osfhandle             000000018002d984 f   LIBCMT:osfinfo.obj
 0001:0002c9f8       _open_osfhandle            000000018002d9f8 f   LIBCMT:osfinfo.obj
 0001:0002caf4       _set_osfhnd                000000018002daf4 f   LIBCMT:osfinfo.obj
 0001:0002cba4       _unlock_fhandle            000000018002dba4 f   LIBCMT:osfinfo.obj
 0001:0002cbd0       _commit                    000000018002dbd0 f   LIBCMT:commit.obj
 0001:0002ccc0       _get_fpsr                  000000018002dcc0 f   LIBCMT:fpsr.obj
 0001:0002ccd0       _set_fpsr                  000000018002dcd0 f   LIBCMT:fpsr.obj
 0001:0002ccda       _fclrf                     000000018002dcda f   LIBCMT:fpsr.obj
 0001:0002ccee       _frnd                      000000018002dcee f   LIBCMT:fpsr.obj
 0001:0002cd10       _errcode                   000000018002dd10 f   LIBCMT:fpexcept.obj
 0001:0002cd54       _except1                   000000018002dd54 f   LIBCMT:fpexcept.obj
 0001:0002ce44       _except2                   000000018002de44 f   LIBCMT:fpexcept.obj
 0001:0002cf7c       _handle_exc                000000018002df7c f   LIBCMT:fpexcept.obj
 0001:0002d1e0       _handle_qnan1              000000018002e1e0 f   LIBCMT:fpexcept.obj
 0001:0002d240       _handle_qnan2              000000018002e240 f   LIBCMT:fpexcept.obj
 0001:0002d2a4       _raise_exc                 000000018002e2a4 f   LIBCMT:fpexcept.obj
 0001:0002d2cc       _raise_exc_ex              000000018002e2cc f   LIBCMT:fpexcept.obj
 0001:0002d5d0       _raise_excf                000000018002e5d0 f   LIBCMT:fpexcept.obj
 0001:0002d5fc       _set_errno_from_matherr    000000018002e5fc f   LIBCMT:fpexcept.obj
 0001:0002d62c       _umatherr                  000000018002e62c f   LIBCMT:fpexcept.obj
 0001:0002d700       _matherr                   000000018002e700 f   LIBCMT:matherr.obj
 0001:0002d704       __isascii                  000000018002e704 f i LIBCMT:_ctype.obj
 0001:0002d710       __iscsym                   000000018002e710 f i LIBCMT:_ctype.obj
 0001:0002d738       __iscsymf                  000000018002e738 f i LIBCMT:_ctype.obj
 0001:0002d760       __toascii                  000000018002e760 f i LIBCMT:_ctype.obj
 0001:0002d768       _isalnum_l                 000000018002e768 f i LIBCMT:_ctype.obj
 0001:0002d7cc       _isalpha_l                 000000018002e7cc f i LIBCMT:_ctype.obj
 0001:0002d830       _isblank_l                 000000018002e830 f i LIBCMT:_ctype.obj
 0001:0002d8a0       _iscntrl_l                 000000018002e8a0 f i LIBCMT:_ctype.obj
 0001:0002d900       _iscsym_l                  000000018002e900 f i LIBCMT:_ctype.obj
 0001:0002d974       _iscsymf_l                 000000018002e974 f i LIBCMT:_ctype.obj
 0001:0002d9e8       _isdigit_l                 000000018002e9e8 f i LIBCMT:_ctype.obj
 0001:0002da48       _isgraph_l                 000000018002ea48 f i LIBCMT:_ctype.obj
 0001:0002daac       _islower_l                 000000018002eaac f i LIBCMT:_ctype.obj
 0001:0002db0c       _isprint_l                 000000018002eb0c f i LIBCMT:_ctype.obj
 0001:0002db70       _ispunct_l                 000000018002eb70 f i LIBCMT:_ctype.obj
 0001:0002dbd0       _isspace_l                 000000018002ebd0 f i LIBCMT:_ctype.obj
 0001:0002dc30       _isupper_l                 000000018002ec30 f i LIBCMT:_ctype.obj
 0001:0002dc90       _isxdigit_l                000000018002ec90 f i LIBCMT:_ctype.obj
 0001:0002dcf4       isalnum                    000000018002ecf4 f i LIBCMT:_ctype.obj
 0001:0002dd74       isalpha                    000000018002ed74 f i LIBCMT:_ctype.obj
 0001:0002ddf4       isblank                    000000018002edf4 f i LIBCMT:_ctype.obj
 0001:0002de24       iscntrl                    000000018002ee24 f i LIBCMT:_ctype.obj
 0001:0002dea0       isdigit                    000000018002eea0 f i LIBCMT:_ctype.obj
 0001:0002df1c       isgraph                    000000018002ef1c f i LIBCMT:_ctype.obj
 0001:0002df9c       islower                    000000018002ef9c f i LIBCMT:_ctype.obj
 0001:0002e018       isprint                    000000018002f018 f i LIBCMT:_ctype.obj
 0001:0002e098       ispunct                    000000018002f098 f i LIBCMT:_ctype.obj
 0001:0002e114       isspace                    000000018002f114 f i LIBCMT:_ctype.obj
 0001:0002e190       isupper                    000000018002f190 f i LIBCMT:_ctype.obj
 0001:0002e20c       isxdigit                   000000018002f20c f i LIBCMT:_ctype.obj
 0001:0002e28c       _tolower                   000000018002f28c f   LIBCMT:tolower.obj
 0001:0002e290       _tolower_l                 000000018002f290 f   LIBCMT:tolower.obj
 0001:0002e3e4       tolower                    000000018002f3e4 f   LIBCMT:tolower.obj
 0001:0002e404       strrchr                    000000018002f404 f   LIBCMT:strrchr.obj
 0001:0002e548       _fptostr                   000000018002f548 f   LIBCMT:_fptostr.obj
 0001:0002e614       __dtold                    000000018002f614 f   LIBCMT:cfout.obj
 0001:0002e6e4       _fltout2                   000000018002f6e4 f   LIBCMT:cfout.obj
 0001:0002e79c       _get_output_format         000000018002f79c f   LIBCMT:outputformat.obj
 0001:0002e7a4       _set_output_format         000000018002f7a4 f   LIBCMT:outputformat.obj
 0001:0002e854       _ismbbalnum                000000018002f854 f   LIBCMT:ismbbyte.obj
 0001:0002e86c       _ismbbalnum_l              000000018002f86c f   LIBCMT:ismbbyte.obj
 0001:0002e888       _ismbbalpha                000000018002f888 f   LIBCMT:ismbbyte.obj
 0001:0002e8a0       _ismbbalpha_l              000000018002f8a0 f   LIBCMT:ismbbyte.obj
 0001:0002e8bc       _ismbbblank                000000018002f8bc f   LIBCMT:ismbbyte.obj
 0001:0002e8d8       _ismbbblank_l              000000018002f8d8 f   LIBCMT:ismbbyte.obj
 0001:0002e8f8       _ismbbgraph                000000018002f8f8 f   LIBCMT:ismbbyte.obj
 0001:0002e910       _ismbbgraph_l              000000018002f910 f   LIBCMT:ismbbyte.obj
 0001:0002e92c       _ismbbkalnum               000000018002f92c f   LIBCMT:ismbbyte.obj
 0001:0002e940       _ismbbkalnum_l             000000018002f940 f   LIBCMT:ismbbyte.obj
 0001:0002e958       _ismbbkana                 000000018002f958 f   LIBCMT:ismbbyte.obj
 0001:0002e960       _ismbbkana_l               000000018002f960 f   LIBCMT:ismbbyte.obj
 0001:0002e9c8       _ismbbkprint               000000018002f9c8 f   LIBCMT:ismbbyte.obj
 0001:0002e9dc       _ismbbkprint_l             000000018002f9dc f   LIBCMT:ismbbyte.obj
 0001:0002e9f4       _ismbbkpunct               000000018002f9f4 f   LIBCMT:ismbbyte.obj
 0001:0002ea08       _ismbbkpunct_l             000000018002fa08 f   LIBCMT:ismbbyte.obj
 0001:0002ea20       _ismbblead                 000000018002fa20 f   LIBCMT:ismbbyte.obj
 0001:0002ea34       _ismbblead_l               000000018002fa34 f   LIBCMT:ismbbyte.obj
 0001:0002ea4c       _ismbbprint                000000018002fa4c f   LIBCMT:ismbbyte.obj
 0001:0002ea64       _ismbbprint_l              000000018002fa64 f   LIBCMT:ismbbyte.obj
 0001:0002ea80       _ismbbpunct                000000018002fa80 f   LIBCMT:ismbbyte.obj
 0001:0002ea94       _ismbbpunct_l              000000018002fa94 f   LIBCMT:ismbbyte.obj
 0001:0002eaac       _ismbbtrail                000000018002faac f   LIBCMT:ismbbyte.obj
 0001:0002eac0       _ismbbtrail_l              000000018002fac0 f   LIBCMT:ismbbyte.obj
 0001:0002ead8       _wfltin2                   000000018002fad8 f   LIBCMT:wcfin.obj
 0001:0002eba0       _CopyMan                   000000018002fba0 f i LIBCMT:intrncvt.obj
 0001:0002ebb8       _FillZeroMan               000000018002fbb8 f i LIBCMT:intrncvt.obj
 0001:0002ebc4       _IncMan                    000000018002fbc4 f i LIBCMT:intrncvt.obj
 0001:0002ec40       _IsZeroMan                 000000018002fc40 f i LIBCMT:intrncvt.obj
 0001:0002ec5c       _RoundMan                  000000018002fc5c f i LIBCMT:intrncvt.obj
 0001:0002ed94       _ShrMan                    000000018002fd94 f i LIBCMT:intrncvt.obj
 0001:0002ee40       _ZeroTail                  000000018002fe40 f i LIBCMT:intrncvt.obj
 0001:0002ee90       __addl                     000000018002fe90 f i LIBCMT:intrncvt.obj
 0001:0002eeac       _ld12cvt                   000000018002feac f i LIBCMT:intrncvt.obj
 0001:0002f450       _ld12tod                   0000000180030450 f   LIBCMT:intrncvt.obj
 0001:0002fa08       _ld12tof                   0000000180030a08 f   LIBCMT:intrncvt.obj
 0001:0002ffc0       _ld12told                  0000000180030fc0 f   LIBCMT:intrncvt.obj
 0001:000300ac       __STRINGTOLD_L             00000001800310ac f   LIBCMT:strgtold.obj
 0001:00030124       __ld12mul                  0000000180031124 f i LIBCMT:strgtold.obj
 0001:00030454       __multtenpow12             0000000180031454 f i LIBCMT:strgtold.obj
 0001:00030808       __shl_12                   0000000180031808 f i LIBCMT:strgtold.obj
 0001:00030834       __shr_12                   0000000180031834 f i LIBCMT:strgtold.obj
 0001:00030860       __strgtold12_l             0000000180031860 f   LIBCMT:strgtold.obj
 0001:000310c4       __init_collate             00000001800320c4 f   LIBCMT:initcoll.obj
 0001:000310e0       memcmp                     00000001800320e0 f   LIBCMT:memcmp.obj
 0001:000311a8       wcscspn                    00000001800321a8 f   LIBCMT:wcscspn.obj
 0001:000311e8       wcspbrk                    00000001800321e8 f   LIBCMT:wcspbrk.obj
 0001:00031aac       __get_qualified_locale     0000000180032aac f   LIBCMT:getqloc.obj
 0001:000325a8       __get_qualified_locale_downlevel 00000001800335a8 f   LIBCMT:getqloc_downlevel.obj
 0001:00032840       _output_s_l                0000000180033840 f   LIBCMT:outputs.obj
 0001:00033398       _cprintf_p                 0000000180034398 f   LIBCMT:cprintfp.obj
 0001:000333c0       _cprintf_p_l               00000001800343c0 f   LIBCMT:cprintfp.obj
 0001:000333e4       _vcprintf_p                00000001800343e4 f   LIBCMT:cprintfp.obj
 0001:000333f0       _vcprintf_p_l              00000001800343f0 f   LIBCMT:cprintfp.obj
 0001:0003446c       get_crtdouble_arg          000000018003546c f i LIBCMT:cprintfp.obj
 0001:00034578       _vprintf_l                 0000000180035578 f   LIBCMT:vprintf.obj
 0001:00034590       _vprintf_p                 0000000180035590 f   LIBCMT:vprintf.obj
 0001:000345a8       _vprintf_p_l               00000001800355a8 f   LIBCMT:vprintf.obj
 0001:000345c0       _vprintf_s_l               00000001800355c0 f   LIBCMT:vprintf.obj
 0001:000345d8       vprintf                    00000001800355d8 f   LIBCMT:vprintf.obj
 0001:000345f0       vprintf_helper             00000001800355f0 f   LIBCMT:vprintf.obj
 0001:00034698       vprintf_s                  0000000180035698 f   LIBCMT:vprintf.obj
 0001:000346b0       _wctomb_l                  00000001800356b0 f   LIBCMT:wctomb.obj
 0001:0003472c       _wctomb_s_l                000000018003572c f   LIBCMT:wctomb.obj
 0001:000348b8       wctomb                     00000001800358b8 f   LIBCMT:wctomb.obj
 0001:0003490c       wctomb_s                   000000018003590c f   LIBCMT:wctomb.obj
 0001:00034920       _flswbuf                   0000000180035920 f   LIBCMT:_flswbuf.obj
 0001:00034ab0       _putwch                    0000000180035ab0 f   LIBCMT:putwch.obj
 0001:00034ae4       _putwch_nolock             0000000180035ae4 f   LIBCMT:putwch.obj
 0001:00034b40       _chsize                    0000000180035b40 f   LIBCMT:chsize.obj
 0001:00034b58       _chsize_nolock             0000000180035b58 f   LIBCMT:chsize.obj
 0001:00034cf0       _chsize_s                  0000000180035cf0 f   LIBCMT:chsize.obj
 0001:00034de0       _read                      0000000180035de0 f   LIBCMT:read.obj
 0001:00034efc       _read_nolock               0000000180035efc f   LIBCMT:read.obj
 0001:0003576c       _get_fmode                 000000018003676c f   LIBCMT:setmode.obj
 0001:0003579c       _set_fmode                 000000018003679c f   LIBCMT:setmode.obj
 0001:000357dc       _setmode                   00000001800367dc f   LIBCMT:setmode.obj
 0001:000358d8       _setmode_nolock            00000001800368d8 f   LIBCMT:setmode.obj
 0001:000359b4       __crtLCMapStringW          00000001800369b4 f   LIBCMT:w_map.obj
 0001:00035c50       _strtof_l                  0000000180036c50 f   LIBCMT:strtoq.obj
 0001:00035c70       _strtoi64                  0000000180036c70 f   LIBCMT:strtoq.obj
 0001:00035ca0       _strtoi64_l                0000000180036ca0 f   LIBCMT:strtoq.obj
 0001:00035cc4       _strtoimax_l               0000000180036cc4 f   LIBCMT:strtoq.obj
 0001:00035ce8       _strtold_l                 0000000180036ce8 f   LIBCMT:strtoq.obj
 0001:00035cf0       _strtoll_l                 0000000180036cf0 f   LIBCMT:strtoq.obj
 0001:00035d14       _strtoui64                 0000000180036d14 f   LIBCMT:strtoq.obj
 0001:00035d48       _strtoui64_l               0000000180036d48 f   LIBCMT:strtoq.obj
 0001:00035d70       _strtoull_l                0000000180036d70 f   LIBCMT:strtoq.obj
 0001:00035d98       _strtoumax_l               0000000180036d98 f   LIBCMT:strtoq.obj
 0001:00035dc0       strtof                     0000000180036dc0 f   LIBCMT:strtoq.obj
 0001:00035de4       strtoimax                  0000000180036de4 f   LIBCMT:strtoq.obj
 0001:00035dec       strtold                    0000000180036dec f   LIBCMT:strtoq.obj
 0001:00035df4       strtoll                    0000000180036df4 f   LIBCMT:strtoq.obj
 0001:00035dfc       strtoull                   0000000180036dfc f   LIBCMT:strtoq.obj
 0001:00035e04       strtoumax                  0000000180036e04 f   LIBCMT:strtoq.obj
 0001:00036048       _strtol_l                  0000000180037048 f   LIBCMT:strtol.obj
 0001:0003606c       _strtoul_l                 000000018003706c f   LIBCMT:strtol.obj
 0001:00036094       strtol                     0000000180037094 f   LIBCMT:strtol.obj
 0001:000360c4       strtoul                    00000001800370c4 f   LIBCMT:strtol.obj
 0001:000360f8       strnlen                    00000001800370f8 f   LIBCMT:strlen_s.obj
 0001:00036110       __wtomb_environ            0000000180037110 f   LIBCMT:wtombenv.obj
 0001:00036204       calloc                     0000000180037204 f   LIBCMT:calloc.obj
 0001:00036248       _mbsnbicoll                0000000180037248 f   LIBCMT:mbsnbico.obj
 0001:00036250       _mbsnbicoll_l              0000000180037250 f   LIBCMT:mbsnbico.obj
 0001:00036350       _add_exp                   0000000180037350 f   LIBCMT:util.obj
 0001:000363a0       _decomp                    00000001800373a0 f   LIBCMT:util.obj
 0001:000364d4       _get_exp                   00000001800374d4 f   LIBCMT:util.obj
 0001:000364fc       _set_bexp                  00000001800374fc f   LIBCMT:util.obj
 0001:0003652c       _set_exp                   000000018003752c f   LIBCMT:util.obj
 0001:00036564       _sptype                    0000000180037564 f   LIBCMT:util.obj
 0001:000365d8       _isctype                   00000001800375d8 f   LIBCMT:isctype.obj
 0001:000365fc       _isctype_l                 00000001800375fc f   LIBCMT:isctype.obj
 0001:000366d8       $I10_OUTPUT                00000001800376d8 f   LIBCMT:x10fout.obj
 0001:000371b0       __add_12                   00000001800381b0 f i LIBCMT:x10fout.obj
 0001:0003722c       __WSTRINGTOLD_L            000000018003822c f   LIBCMT:wstrgtold.obj
 0001:000372a4       __wstrgtold12_l            00000001800382a4 f   LIBCMT:wstrgtold.obj
 0001:00037c20       __mtold12                  0000000180038c20 f   LIBCMT:mantold.obj
 0001:00037e44       _i64tow_s                  0000000180038e44 f   LIBCMT:xtows.obj
 0001:00037e68       _itow_s                    0000000180038e68 f   LIBCMT:xtows.obj
 0001:00037e90       _ltow_s                    0000000180038e90 f   LIBCMT:xtows.obj
 0001:00037eb4       _ui64tow_s                 0000000180038eb4 f   LIBCMT:xtows.obj
 0001:00037ec8       _ultow_s                   0000000180038ec8 f   LIBCMT:xtows.obj
 0001:00038100       wcschr                     0000000180039100 f   LIBCMT:wcschr.obj
 0001:0003818c       _putch                     000000018003918c f   LIBCMT:putch.obj
 0001:000381bc       _putch_nolock              00000001800391bc f   LIBCMT:putch.obj
 0001:00038270       _output_p_l                0000000180039270 f   LIBCMT:outputp.obj
 0001:00039344       _validate_param_reuseA     000000018003a344 f   LIBCMT:outputp.obj
 0001:00039598       __termconout               000000018003a598 f   LIBCMT:initcon.obj
 0001:000395b8       __initconout               000000018003a5b8 f   LIBCMT:initcon.obj
 0001:000395f4       _strtod_l                  000000018003a5f4 f   LIBCMT:strtod.obj
 0001:00039748       strtod                     000000018003a748 f   LIBCMT:strtod.obj
 0001:00039750       __crtsetenv                000000018003a750 f   LIBCMT:setenv.obj
 0001:00039c10       _strnicoll                 000000018003ac10 f   LIBCMT:strnicol.obj
 0001:00039c28       _strnicoll_l               000000018003ac28 f   LIBCMT:strnicol.obj
 0001:0003a0ac       __crtCompareStringA        000000018003b0ac f   LIBCMT:a_cmp.obj
 0001:0003a138       _fltin2                    000000018003b138 f   LIBCMT:cfin.obj
 0001:0003a1fc       _strdup                    000000018003b1fc f   LIBCMT:strdup.obj
 0001:0003a26c       _mbschr                    000000018003b26c f   LIBCMT:mbschr.obj
 0001:0003a274       _mbschr_l                  000000018003b274 f   LIBCMT:mbschr.obj
 0001:0003a334       __ascii_strnicmp           000000018003b334 f   LIBCMT:strnicmp.obj
 0001:0003a37c       _strnicmp                  000000018003b37c f   LIBCMT:strnicmp.obj
 0001:0003a3cc       _strnicmp_l                000000018003b3cc f   LIBCMT:strnicmp.obj
 0001:0003a4a8       strchr                     000000018003b4a8 f   LIBCMT:strchr.obj
 0001:0003a534       ??0_Ignore@std@@QEAA@XZ    000000018003b534 f i libcpmt:xthrow.obj
 0001:0003a538       ??0bad_function_call@std@@QEAA@AEBV01@@Z 000000018003b538 f i libcpmt:xthrow.obj
 0001:0003a55c       ??0bad_function_call@std@@QEAA@PEBD@Z 000000018003b55c f i libcpmt:xthrow.obj
 0001:0003a580       ??0invalid_argument@std@@QEAA@AEBV01@@Z 000000018003b580 f i libcpmt:xthrow.obj
 0001:0003a5a4       ??0invalid_argument@std@@QEAA@PEBD@Z 000000018003b5a4 f i libcpmt:xthrow.obj
 0001:0003a5d0       ??0length_error@std@@QEAA@AEBV01@@Z 000000018003b5d0 f i libcpmt:xthrow.obj
 0001:0003a5f4       ??0length_error@std@@QEAA@PEBD@Z 000000018003b5f4 f i libcpmt:xthrow.obj
 0001:0003a620       ??0logic_error@std@@QEAA@AEBV01@@Z 000000018003b620 f i libcpmt:xthrow.obj
 0001:0003a644       ??0logic_error@std@@QEAA@PEBD@Z 000000018003b644 f i libcpmt:xthrow.obj
 0001:0003a670       ??0out_of_range@std@@QEAA@AEBV01@@Z 000000018003b670 f i libcpmt:xthrow.obj
 0001:0003a694       ??0out_of_range@std@@QEAA@PEBD@Z 000000018003b694 f i libcpmt:xthrow.obj
 0001:0003a6c0       ??0overflow_error@std@@QEAA@AEBV01@@Z 000000018003b6c0 f i libcpmt:xthrow.obj
 0001:0003a6e4       ??0overflow_error@std@@QEAA@PEBD@Z 000000018003b6e4 f i libcpmt:xthrow.obj
 0001:0003a710       ??0regex_error@std@@QEAA@AEBV01@@Z 000000018003b710 f i libcpmt:xthrow.obj
 0001:0003a744       ??0regex_error@std@@QEAA@W4error_type@regex_constants@1@@Z 000000018003b744 f i libcpmt:xthrow.obj
 0001:0003a788       ??0runtime_error@std@@QEAA@AEBV01@@Z 000000018003b788 f i libcpmt:xthrow.obj
 0001:0003a7ac       ??0runtime_error@std@@QEAA@PEBD@Z 000000018003b7ac f i libcpmt:xthrow.obj
 0001:0003a7d8       ??1bad_function_call@std@@UEAA@XZ 000000018003b7d8 f i libcpmt:xthrow.obj
 0001:0003a7e0       ??1invalid_argument@std@@UEAA@XZ 000000018003b7e0 f i libcpmt:xthrow.obj
 0001:0003a7e8       ??1length_error@std@@UEAA@XZ 000000018003b7e8 f i libcpmt:xthrow.obj
 0001:0003a7f0       ??1logic_error@std@@UEAA@XZ 000000018003b7f0 f i libcpmt:xthrow.obj
 0001:0003a7f8       ??1out_of_range@std@@UEAA@XZ 000000018003b7f8 f i libcpmt:xthrow.obj
 0001:0003a800       ??1overflow_error@std@@UEAA@XZ 000000018003b800 f i libcpmt:xthrow.obj
 0001:0003a808       ??1regex_error@std@@UEAA@XZ 000000018003b808 f i libcpmt:xthrow.obj
 0001:0003a810       ??1runtime_error@std@@UEAA@XZ 000000018003b810 f i libcpmt:xthrow.obj
 0001:0003a818       ??_Gbad_function_call@std@@UEAAPEAXI@Z 000000018003b818 f i libcpmt:xthrow.obj
 0001:0003a818       ??_Ebad_function_call@std@@UEAAPEAXI@Z 000000018003b818 f i libcpmt:xthrow.obj
 0001:0003a848       ??_Einvalid_argument@std@@UEAAPEAXI@Z 000000018003b848 f i libcpmt:xthrow.obj
 0001:0003a848       ??_Ginvalid_argument@std@@UEAAPEAXI@Z 000000018003b848 f i libcpmt:xthrow.obj
 0001:0003a878       ??_Elength_error@std@@UEAAPEAXI@Z 000000018003b878 f i libcpmt:xthrow.obj
 0001:0003a878       ??_Glength_error@std@@UEAAPEAXI@Z 000000018003b878 f i libcpmt:xthrow.obj
 0001:0003a8a8       ??_Elogic_error@std@@UEAAPEAXI@Z 000000018003b8a8 f i libcpmt:xthrow.obj
 0001:0003a8a8       ??_Glogic_error@std@@UEAAPEAXI@Z 000000018003b8a8 f i libcpmt:xthrow.obj
 0001:0003a8d8       ??_Gout_of_range@std@@UEAAPEAXI@Z 000000018003b8d8 f i libcpmt:xthrow.obj
 0001:0003a8d8       ??_Eout_of_range@std@@UEAAPEAXI@Z 000000018003b8d8 f i libcpmt:xthrow.obj
 0001:0003a908       ??_Eoverflow_error@std@@UEAAPEAXI@Z 000000018003b908 f i libcpmt:xthrow.obj
 0001:0003a908       ??_Goverflow_error@std@@UEAAPEAXI@Z 000000018003b908 f i libcpmt:xthrow.obj
 0001:0003a938       ??_Eregex_error@std@@UEAAPEAXI@Z 000000018003b938 f i libcpmt:xthrow.obj
 0001:0003a938       ??_Gregex_error@std@@UEAAPEAXI@Z 000000018003b938 f i libcpmt:xthrow.obj
 0001:0003a968       ??_Eruntime_error@std@@UEAAPEAXI@Z 000000018003b968 f i libcpmt:xthrow.obj
 0001:0003a968       ??_Gruntime_error@std@@UEAAPEAXI@Z 000000018003b968 f i libcpmt:xthrow.obj
 0001:0003a998       ?_Stringify@regex_error@std@@CAPEBDW4error_type@regex_constants@2@@Z 000000018003b998 f i libcpmt:xthrow.obj
 0001:0003aa58       ?_Xbad_alloc@std@@YAXXZ    000000018003ba58 f   libcpmt:xthrow.obj
 0001:0003aa9c       ?_Xbad_function_call@std@@YAXXZ 000000018003ba9c f   libcpmt:xthrow.obj
 0001:0003aac8       ?_Xinvalid_argument@std@@YAXPEBD@Z 000000018003bac8 f   libcpmt:xthrow.obj
 0001:0003ab00       ?_Xlength_error@std@@YAXPEBD@Z 000000018003bb00 f   libcpmt:xthrow.obj
 0001:0003ab38       ?_Xout_of_range@std@@YAXPEBD@Z 000000018003bb38 f   libcpmt:xthrow.obj
 0001:0003ab70       ?_Xoverflow_error@std@@YAXPEBD@Z 000000018003bb70 f   libcpmt:xthrow.obj
 0001:0003aba8       ?_Xregex_error@std@@YAXW4error_type@regex_constants@1@@Z 000000018003bba8 f   libcpmt:xthrow.obj
 0001:0003abec       ?_Xruntime_error@std@@YAXPEBD@Z 000000018003bbec f   libcpmt:xthrow.obj
 0001:0003ac24       ?what@bad_function_call@std@@UEBAPEBDXZ 000000018003bc24 f i libcpmt:xthrow.obj
 0001:0003ac2c       ?_Syserror_map@std@@YAPEBDH@Z 000000018003bc2c f   libcpmt:syserror.obj
 0001:0003ac54       ?_Winerror_map@std@@YAPEBDH@Z 000000018003bc54 f   libcpmt:syserror.obj
 0001:0003ac7c       GetFileVersionInfoSizeW    000000018003bc7c f   version:VERSION.dll
 0001:0003ac82       GetFileVersionInfoW        000000018003bc82 f   version:VERSION.dll
 0001:0003ac88       RpcStringFreeW             000000018003bc88 f   Rpcrt4:RPCRT4.dll
 0001:0003ac8e       UuidCreate                 000000018003bc8e f   Rpcrt4:RPCRT4.dll
 0001:0003ac94       UuidToStringW              000000018003bc94 f   Rpcrt4:RPCRT4.dll
 0001:0003ac9a       IsDebuggerPresent          000000018003bc9a f   kernel32:KERNEL32.dll
 0001:0003aca0       EncodePointer              000000018003bca0 f   kernel32:KERNEL32.dll
 0001:0003aca6       ExitProcess                000000018003bca6 f   kernel32:KERNEL32.dll
 0001:0003acac       GetModuleHandleExW         000000018003bcac f   kernel32:KERNEL32.dll
 0001:0003acb2       AreFileApisANSI            000000018003bcb2 f   kernel32:KERNEL32.dll
 0001:0003acb8       WideCharToMultiByte        000000018003bcb8 f   kernel32:KERNEL32.dll
 0001:0003acbe       RtlPcToFileHeader          000000018003bcbe f   kernel32:KERNEL32.dll
 0001:0003acc4       RtlLookupFunctionEntry     000000018003bcc4 f   kernel32:KERNEL32.dll
 0001:0003acca       RtlUnwindEx                000000018003bcca f   kernel32:KERNEL32.dll
 0001:0003acd0       IsProcessorFeaturePresent  000000018003bcd0 f   kernel32:KERNEL32.dll
 0001:0003acd6       CreateThread               000000018003bcd6 f   kernel32:KERNEL32.dll
 0001:0003acdc       ExitThread                 000000018003bcdc f   kernel32:KERNEL32.dll
 0001:0003ace2       SetConsoleCtrlHandler      000000018003bce2 f   kernel32:KERNEL32.dll
 0001:0003ace8       GetSystemTimeAsFileTime    000000018003bce8 f   kernel32:KERNEL32.dll
 0001:0003acee       HeapFree                   000000018003bcee f   kernel32:KERNEL32.dll
 0001:0003acf4       HeapAlloc                  000000018003bcf4 f   kernel32:KERNEL32.dll
 0001:0003acfa       GetCommandLineA            000000018003bcfa f   kernel32:KERNEL32.dll
 0001:0003ad00       FatalAppExitA              000000018003bd00 f   kernel32:KERNEL32.dll
 0001:0003ad06       RtlCaptureContext          000000018003bd06 f   kernel32:KERNEL32.dll
 0001:0003ad0c       RtlVirtualUnwind           000000018003bd0c f   kernel32:KERNEL32.dll
 0001:0003ad12       UnhandledExceptionFilter   000000018003bd12 f   kernel32:KERNEL32.dll
 0001:0003ad18       SetLastError               000000018003bd18 f   kernel32:KERNEL32.dll
 0001:0003ad1e       CreateEventW               000000018003bd1e f   kernel32:KERNEL32.dll
 0001:0003ad24       Sleep                      000000018003bd24 f   kernel32:KERNEL32.dll
 0001:0003ad2a       TlsAlloc                   000000018003bd2a f   kernel32:KERNEL32.dll
 0001:0003ad30       TlsGetValue                000000018003bd30 f   kernel32:KERNEL32.dll
 0001:0003ad36       TlsSetValue                000000018003bd36 f   kernel32:KERNEL32.dll
 0001:0003ad3c       TlsFree                    000000018003bd3c f   kernel32:KERNEL32.dll
 0001:0003ad42       GetStartupInfoW            000000018003bd42 f   kernel32:KERNEL32.dll
 0001:0003ad48       GetTickCount               000000018003bd48 f   kernel32:KERNEL32.dll
 0001:0003ad4e       CreateSemaphoreW           000000018003bd4e f   kernel32:KERNEL32.dll
 0001:0003ad54       GetStdHandle               000000018003bd54 f   kernel32:KERNEL32.dll
 0001:0003ad5a       WriteFile                  000000018003bd5a f   kernel32:KERNEL32.dll
 0001:0003ad60       IsValidCodePage            000000018003bd60 f   kernel32:KERNEL32.dll
 0001:0003ad66       GetACP                     000000018003bd66 f   kernel32:KERNEL32.dll
 0001:0003ad6c       GetOEMCP                   000000018003bd6c f   kernel32:KERNEL32.dll
 0001:0003ad72       GetCPInfo                  000000018003bd72 f   kernel32:KERNEL32.dll
 0001:0003ad78       GetCurrentThread           000000018003bd78 f   kernel32:KERNEL32.dll
 0001:0003ad7e       HeapSize                   000000018003bd7e f   kernel32:KERNEL32.dll
 0001:0003ad84       GetStringTypeW             000000018003bd84 f   kernel32:KERNEL32.dll
 0001:0003ad8a       GetTimeZoneInformation     000000018003bd8a f   kernel32:KERNEL32.dll
 0001:0003ad90       GetDateFormatW             000000018003bd90 f   kernel32:KERNEL32.dll
 0001:0003ad96       GetTimeFormatW             000000018003bd96 f   kernel32:KERNEL32.dll
 0001:0003ad9c       CompareStringW             000000018003bd9c f   kernel32:KERNEL32.dll
 0001:0003ada2       LCMapStringW               000000018003bda2 f   kernel32:KERNEL32.dll
 0001:0003ada8       GetLocaleInfoW             000000018003bda8 f   kernel32:KERNEL32.dll
 0001:0003adae       IsValidLocale              000000018003bdae f   kernel32:KERNEL32.dll
 0001:0003adb4       GetUserDefaultLCID         000000018003bdb4 f   kernel32:KERNEL32.dll
 0001:0003adba       EnumSystemLocalesW         000000018003bdba f   kernel32:KERNEL32.dll
 0001:0003adc0       GetProcessHeap             000000018003bdc0 f   kernel32:KERNEL32.dll
 0001:0003adc6       HeapReAlloc                000000018003bdc6 f   kernel32:KERNEL32.dll
 0001:0003adcc       GetFileType                000000018003bdcc f   kernel32:KERNEL32.dll
 0001:0003add2       GetModuleFileNameA         000000018003bdd2 f   kernel32:KERNEL32.dll
 0001:0003add8       QueryPerformanceCounter    000000018003bdd8 f   kernel32:KERNEL32.dll
 0001:0003adde       GetEnvironmentStringsW     000000018003bdde f   kernel32:KERNEL32.dll
 0001:0003ade4       FreeEnvironmentStringsW    000000018003bde4 f   kernel32:KERNEL32.dll
 0001:0003adea       GetConsoleCP               000000018003bdea f   kernel32:KERNEL32.dll
 0001:0003adf0       GetConsoleMode             000000018003bdf0 f   kernel32:KERNEL32.dll
 0001:0003adf6       SetFilePointerEx           000000018003bdf6 f   kernel32:KERNEL32.dll
 0001:0003adfc       SetStdHandle               000000018003bdfc f   kernel32:KERNEL32.dll
 0001:0003ae02       FlushFileBuffers           000000018003be02 f   kernel32:KERNEL32.dll
 0001:0003ae08       WriteConsoleW              000000018003be08 f   kernel32:KERNEL32.dll
 0001:0003ae0e       SetEndOfFile               000000018003be0e f   kernel32:KERNEL32.dll
 0001:0003ae14       ReadFile                   000000018003be14 f   kernel32:KERNEL32.dll
 0001:0003ae1a       ReadConsoleW               000000018003be1a f   kernel32:KERNEL32.dll
 0001:0003ae20       SetEnvironmentVariableA    000000018003be20 f   kernel32:KERNEL32.dll
 0002:00000000       __imp_RegCreateKeyExW      000000018003e000     advapi32:ADVAPI32.dll
 0002:00000008       __imp_RegQueryInfoKeyW     000000018003e008     advapi32:ADVAPI32.dll
 0002:00000010       __imp_RegOpenKeyExW        000000018003e010     advapi32:ADVAPI32.dll
 0002:00000018       __imp_RegEnumKeyExW        000000018003e018     advapi32:ADVAPI32.dll
 0002:00000020       __imp_RegDeleteValueW      000000018003e020     advapi32:ADVAPI32.dll
 0002:00000028       __imp_RegDeleteKeyW        000000018003e028     advapi32:ADVAPI32.dll
 0002:00000030       __imp_RegSetValueExW       000000018003e030     advapi32:ADVAPI32.dll
 0002:00000038       __imp_RegQueryValueExW     000000018003e038     advapi32:ADVAPI32.dll
 0002:00000040       __imp_RegOpenKeyW          000000018003e040     advapi32:ADVAPI32.dll
 0002:00000048       __imp_RegCreateKeyW        000000018003e048     advapi32:ADVAPI32.dll
 0002:00000050       __imp_RegCloseKey          000000018003e050     advapi32:ADVAPI32.dll
 0002:00000058       \177ADVAPI32_NULL_THUNK_DATA 000000018003e058     advapi32:ADVAPI32.dll
 0002:00000060       __imp_CloseHandle          000000018003e060     kernel32:KERNEL32.dll
 0002:00000068       __imp_lstrlenW             000000018003e068     kernel32:KERNEL32.dll
 0002:00000070       __imp_LoadLibraryW         000000018003e070     kernel32:KERNEL32.dll
 0002:00000078       __imp_GetTempPathW         000000018003e078     kernel32:KERNEL32.dll
 0002:00000080       __imp_CreateFileW          000000018003e080     kernel32:KERNEL32.dll
 0002:00000088       __imp_DeleteFileW          000000018003e088     kernel32:KERNEL32.dll
 0002:00000090       __imp_CreateToolhelp32Snapshot 000000018003e090     kernel32:KERNEL32.dll
 0002:00000098       __imp_Thread32First        000000018003e098     kernel32:KERNEL32.dll
 0002:000000a0       __imp_Thread32Next         000000018003e0a0     kernel32:KERNEL32.dll
 0002:000000a8       __imp_FreeLibrary          000000018003e0a8     kernel32:KERNEL32.dll
 0002:000000b0       __imp_LocalFree            000000018003e0b0     kernel32:KERNEL32.dll
 0002:000000b8       __imp_FlushInstructionCache 000000018003e0b8     kernel32:KERNEL32.dll
 0002:000000c0       __imp_VirtualProtect       000000018003e0c0     kernel32:KERNEL32.dll
 0002:000000c8       __imp_VirtualQuery         000000018003e0c8     kernel32:KERNEL32.dll
 0002:000000d0       __imp_OpenProcess          000000018003e0d0     kernel32:KERNEL32.dll
 0002:000000d8       __imp_GetCurrentProcessId  000000018003e0d8     kernel32:KERNEL32.dll
 0002:000000e0       __imp_TerminateProcess     000000018003e0e0     kernel32:KERNEL32.dll
 0002:000000e8       __imp_SetUnhandledExceptionFilter 000000018003e0e8     kernel32:KERNEL32.dll
 0002:000000f0       __imp_GetLastError         000000018003e0f0     kernel32:KERNEL32.dll
 0002:000000f8       __imp_SetErrorMode         000000018003e0f8     kernel32:KERNEL32.dll
 0002:00000100       __imp_DebugBreak           000000018003e100     kernel32:KERNEL32.dll
 0002:00000108       __imp_WaitForSingleObject  000000018003e108     kernel32:KERNEL32.dll
 0002:00000110       __imp_GetSystemTime        000000018003e110     kernel32:KERNEL32.dll
 0002:00000118       __imp_SystemTimeToFileTime 000000018003e118     kernel32:KERNEL32.dll
 0002:00000120       __imp_FormatMessageW       000000018003e120     kernel32:KERNEL32.dll
 0002:00000128       __imp_lstrlenA             000000018003e128     kernel32:KERNEL32.dll
 0002:00000130       __imp_ResumeThread         000000018003e130     kernel32:KERNEL32.dll
 0002:00000138       __imp_GetModuleHandleW     000000018003e138     kernel32:KERNEL32.dll
 0002:00000140       __imp_CreateProcessW       000000018003e140     kernel32:KERNEL32.dll
 0002:00000148       __imp_OutputDebugStringW   000000018003e148     kernel32:KERNEL32.dll
 0002:00000150       __imp_WritePrivateProfileStringW 000000018003e150     kernel32:KERNEL32.dll
 0002:00000158       __imp_DecodePointer        000000018003e158     kernel32:KERNEL32.dll
 0002:00000160       __imp_RaiseException       000000018003e160     kernel32:KERNEL32.dll
 0002:00000168       __imp_EnterCriticalSection 000000018003e168     kernel32:KERNEL32.dll
 0002:00000170       __imp_LeaveCriticalSection 000000018003e170     kernel32:KERNEL32.dll
 0002:00000178       __imp_InitializeCriticalSectionAndSpinCount 000000018003e178     kernel32:KERNEL32.dll
 0002:00000180       __imp_DeleteCriticalSection 000000018003e180     kernel32:KERNEL32.dll
 0002:00000188       __imp_LoadResource         000000018003e188     kernel32:KERNEL32.dll
 0002:00000190       __imp_SizeofResource       000000018003e190     kernel32:KERNEL32.dll
 0002:00000198       __imp_lstrcmpiW            000000018003e198     kernel32:KERNEL32.dll
 0002:000001a0       __imp_LoadLibraryExW       000000018003e1a0     kernel32:KERNEL32.dll
 0002:000001a8       __imp_FindResourceW        000000018003e1a8     kernel32:KERNEL32.dll
 0002:000001b0       __imp_MultiByteToWideChar  000000018003e1b0     kernel32:KERNEL32.dll
 0002:000001b8       __imp_ReadConsoleW         000000018003e1b8     kernel32:KERNEL32.dll
 0002:000001c0       __imp_ReadFile             000000018003e1c0     kernel32:KERNEL32.dll
 0002:000001c8       __imp_SetEndOfFile         000000018003e1c8     kernel32:KERNEL32.dll
 0002:000001d0       __imp_WriteConsoleW        000000018003e1d0     kernel32:KERNEL32.dll
 0002:000001d8       __imp_FlushFileBuffers     000000018003e1d8     kernel32:KERNEL32.dll
 0002:000001e0       __imp_SetStdHandle         000000018003e1e0     kernel32:KERNEL32.dll
 0002:000001e8       __imp_SetFilePointerEx     000000018003e1e8     kernel32:KERNEL32.dll
 0002:000001f0       __imp_GetConsoleMode       000000018003e1f0     kernel32:KERNEL32.dll
 0002:000001f8       __imp_GetConsoleCP         000000018003e1f8     kernel32:KERNEL32.dll
 0002:00000200       __imp_SuspendThread        000000018003e200     kernel32:KERNEL32.dll
 0002:00000208       __imp_OpenThread           000000018003e208     kernel32:KERNEL32.dll
 0002:00000210       __imp_GetProcessId         000000018003e210     kernel32:KERNEL32.dll
 0002:00000218       __imp_GetCurrentThreadId   000000018003e218     kernel32:KERNEL32.dll
 0002:00000220       __imp_GetCurrentProcess    000000018003e220     kernel32:KERNEL32.dll
 0002:00000228       __imp_SetEnvironmentVariableA 000000018003e228     kernel32:KERNEL32.dll
 0002:00000230       __imp_GetProcAddress       000000018003e230     kernel32:KERNEL32.dll
 0002:00000238       __imp_LCMapStringW         000000018003e238     kernel32:KERNEL32.dll
 0002:00000240       __imp_GetLocaleInfoW       000000018003e240     kernel32:KERNEL32.dll
 0002:00000248       __imp_IsValidLocale        000000018003e248     kernel32:KERNEL32.dll
 0002:00000250       __imp_GetUserDefaultLCID   000000018003e250     kernel32:KERNEL32.dll
 0002:00000258       __imp_GetModuleFileNameW   000000018003e258     kernel32:KERNEL32.dll
 0002:00000260       __imp_FreeEnvironmentStringsW 000000018003e260     kernel32:KERNEL32.dll
 0002:00000268       __imp_GetEnvironmentStringsW 000000018003e268     kernel32:KERNEL32.dll
 0002:00000270       __imp_CompareStringW       000000018003e270     kernel32:KERNEL32.dll
 0002:00000278       __imp_QueryPerformanceCounter 000000018003e278     kernel32:KERNEL32.dll
 0002:00000280       __imp_GetModuleFileNameA   000000018003e280     kernel32:KERNEL32.dll
 0002:00000288       __imp_GetTimeFormatW       000000018003e288     kernel32:KERNEL32.dll
 0002:00000290       __imp_GetDateFormatW       000000018003e290     kernel32:KERNEL32.dll
 0002:00000298       __imp_GetTimeZoneInformation 000000018003e298     kernel32:KERNEL32.dll
 0002:000002a0       __imp_GetFileType          000000018003e2a0     kernel32:KERNEL32.dll
 0002:000002a8       __imp_HeapReAlloc          000000018003e2a8     kernel32:KERNEL32.dll
 0002:000002b0       __imp_GetProcessHeap       000000018003e2b0     kernel32:KERNEL32.dll
 0002:000002b8       __imp_GetStringTypeW       000000018003e2b8     kernel32:KERNEL32.dll
 0002:000002c0       __imp_HeapSize             000000018003e2c0     kernel32:KERNEL32.dll
 0002:000002c8       __imp_GetCurrentThread     000000018003e2c8     kernel32:KERNEL32.dll
 0002:000002d0       __imp_GetCPInfo            000000018003e2d0     kernel32:KERNEL32.dll
 0002:000002d8       __imp_IsDebuggerPresent    000000018003e2d8     kernel32:KERNEL32.dll
 0002:000002e0       __imp_EncodePointer        000000018003e2e0     kernel32:KERNEL32.dll
 0002:000002e8       __imp_ExitProcess          000000018003e2e8     kernel32:KERNEL32.dll
 0002:000002f0       __imp_GetModuleHandleExW   000000018003e2f0     kernel32:KERNEL32.dll
 0002:000002f8       __imp_AreFileApisANSI      000000018003e2f8     kernel32:KERNEL32.dll
 0002:00000300       __imp_WideCharToMultiByte  000000018003e300     kernel32:KERNEL32.dll
 0002:00000308       __imp_RtlPcToFileHeader    000000018003e308     kernel32:KERNEL32.dll
 0002:00000310       __imp_RtlLookupFunctionEntry 000000018003e310     kernel32:KERNEL32.dll
 0002:00000318       __imp_RtlUnwindEx          000000018003e318     kernel32:KERNEL32.dll
 0002:00000320       __imp_IsProcessorFeaturePresent 000000018003e320     kernel32:KERNEL32.dll
 0002:00000328       __imp_CreateThread         000000018003e328     kernel32:KERNEL32.dll
 0002:00000330       __imp_ExitThread           000000018003e330     kernel32:KERNEL32.dll
 0002:00000338       __imp_SetConsoleCtrlHandler 000000018003e338     kernel32:KERNEL32.dll
 0002:00000340       __imp_GetSystemTimeAsFileTime 000000018003e340     kernel32:KERNEL32.dll
 0002:00000348       __imp_HeapFree             000000018003e348     kernel32:KERNEL32.dll
 0002:00000350       __imp_HeapAlloc            000000018003e350     kernel32:KERNEL32.dll
 0002:00000358       __imp_GetCommandLineA      000000018003e358     kernel32:KERNEL32.dll
 0002:00000360       __imp_FatalAppExitA        000000018003e360     kernel32:KERNEL32.dll
 0002:00000368       __imp_RtlCaptureContext    000000018003e368     kernel32:KERNEL32.dll
 0002:00000370       __imp_RtlVirtualUnwind     000000018003e370     kernel32:KERNEL32.dll
 0002:00000378       __imp_UnhandledExceptionFilter 000000018003e378     kernel32:KERNEL32.dll
 0002:00000380       __imp_SetLastError         000000018003e380     kernel32:KERNEL32.dll
 0002:00000388       __imp_CreateEventW         000000018003e388     kernel32:KERNEL32.dll
 0002:00000390       __imp_Sleep                000000018003e390     kernel32:KERNEL32.dll
 0002:00000398       __imp_TlsAlloc             000000018003e398     kernel32:KERNEL32.dll
 0002:000003a0       __imp_TlsGetValue          000000018003e3a0     kernel32:KERNEL32.dll
 0002:000003a8       __imp_TlsSetValue          000000018003e3a8     kernel32:KERNEL32.dll
 0002:000003b0       __imp_TlsFree              000000018003e3b0     kernel32:KERNEL32.dll
 0002:000003b8       __imp_GetStartupInfoW      000000018003e3b8     kernel32:KERNEL32.dll
 0002:000003c0       __imp_GetTickCount         000000018003e3c0     kernel32:KERNEL32.dll
 0002:000003c8       __imp_CreateSemaphoreW     000000018003e3c8     kernel32:KERNEL32.dll
 0002:000003d0       __imp_GetStdHandle         000000018003e3d0     kernel32:KERNEL32.dll
 0002:000003d8       __imp_WriteFile            000000018003e3d8     kernel32:KERNEL32.dll
 0002:000003e0       __imp_IsValidCodePage      000000018003e3e0     kernel32:KERNEL32.dll
 0002:000003e8       __imp_GetACP               000000018003e3e8     kernel32:KERNEL32.dll
 0002:000003f0       __imp_GetOEMCP             000000018003e3f0     kernel32:KERNEL32.dll
 0002:000003f8       __imp_EnumSystemLocalesW   000000018003e3f8     kernel32:KERNEL32.dll
 0002:00000400       \177KERNEL32_NULL_THUNK_DATA 000000018003e400     kernel32:KERNEL32.dll
 0002:00000408       __imp_VarUI4FromStr        000000018003e408     oleaut32:OLEAUT32.dll
 0002:00000410       __imp_SysFreeString        000000018003e410     oleaut32:OLEAUT32.dll
 0002:00000418       \177OLEAUT32_NULL_THUNK_DATA 000000018003e418     oleaut32:OLEAUT32.dll
 0002:00000420       __imp_RpcStringFreeW       000000018003e420     Rpcrt4:RPCRT4.dll
 0002:00000428       __imp_UuidCreate           000000018003e428     Rpcrt4:RPCRT4.dll
 0002:00000430       __imp_UuidToStringW        000000018003e430     Rpcrt4:RPCRT4.dll
 0002:00000438       \177RPCRT4_NULL_THUNK_DATA 000000018003e438     Rpcrt4:RPCRT4.dll
 0002:00000440       __imp_PathStripPathW       000000018003e440     shlwapi:SHLWAPI.dll
 0002:00000448       __imp_PathRemoveExtensionW 000000018003e448     shlwapi:SHLWAPI.dll
 0002:00000450       __imp_PathAppendW          000000018003e450     shlwapi:SHLWAPI.dll
 0002:00000458       __imp_PathFileExistsW      000000018003e458     shlwapi:SHLWAPI.dll
 0002:00000460       \177SHLWAPI_NULL_THUNK_DATA 000000018003e460     shlwapi:SHLWAPI.dll
 0002:00000468       __imp_UnregisterClassW     000000018003e468     user32:USER32.dll
 0002:00000470       __imp_CharNextW            000000018003e470     user32:USER32.dll
 0002:00000478       __imp_DestroyWindow        000000018003e478     user32:USER32.dll
 0002:00000480       __imp_CharUpperW           000000018003e480     user32:USER32.dll
 0002:00000488       __imp_MessageBoxW          000000018003e488     user32:USER32.dll
 0002:00000490       __imp_LoadStringW          000000018003e490     user32:USER32.dll
 0002:00000498       __imp_wvsprintfW           000000018003e498     user32:USER32.dll
 0002:000004a0       __imp_CharLowerW           000000018003e4a0     user32:USER32.dll
 0002:000004a8       \177USER32_NULL_THUNK_DATA 000000018003e4a8     user32:USER32.dll
 0002:000004b0       __imp_GetFileVersionInfoW  000000018003e4b0     version:VERSION.dll
 0002:000004b8       __imp_GetFileVersionInfoSizeW 000000018003e4b8     version:VERSION.dll
 0002:000004c0       \177VERSION_NULL_THUNK_DATA 000000018003e4c0     version:VERSION.dll
 0002:000004c8       __imp_CoTaskMemAlloc       000000018003e4c8     ole32:ole32.dll
 0002:000004d0       __imp_CoTaskMemFree        000000018003e4d0     ole32:ole32.dll
 0002:000004d8       __imp_CoTaskMemRealloc     000000018003e4d8     ole32:ole32.dll
 0002:000004e0       __imp_CoCreateInstance     000000018003e4e0     ole32:ole32.dll
 0002:000004e8       \177ole32_NULL_THUNK_DATA  000000018003e4e8     ole32:ole32.dll
 0002:000004f0       __xc_a                     000000018003e4f0     LIBCMT:crt0init.obj
 0002:00000538       __xc_z                     000000018003e538     LIBCMT:crt0init.obj
 0002:00000540       __xi_a                     000000018003e540     LIBCMT:crt0init.obj
 0002:00000568       __xi_z                     000000018003e568     LIBCMT:crt0init.obj
 0002:00000570       __xp_a                     000000018003e570     LIBCMT:crt0init.obj
 0002:00000590       __xp_z                     000000018003e590     LIBCMT:crt0init.obj
 0002:00000598       __xt_a                     000000018003e598     LIBCMT:crt0init.obj
 0002:000005a0       __xt_z                     000000018003e5a0     LIBCMT:crt0init.obj
 0002:00000700       ??_C@_11LOCGONAA@?$AA?$AA@ 000000018003e700     BugSplatImp.obj
 0002:00000710       ??_7MiniDmpSender@@6B@     000000018003e710     BugSplatImp.obj
 0002:00000718       ??_C@_1BI@NIJBKGEB@?$AAD?$AAB?$AAG?$AAH?$AAE?$AAL?$AAP?$AA?4?$AAD?$AAL?$AAL?$AA?$AA@ 000000018003e718     BugSplatImp.obj
 0002:00000730       ??_C@_0BC@MNIKNFKD@MiniDumpWriteDump?$AA@ 000000018003e730     BugSplatImp.obj
 0002:00000748       ??_C@_1BC@BBCPEFMB@?$AAC?$AA?3?$AA?2?$AAt?$AAe?$AAm?$AAp?$AA?2?$AA?$AA@ 000000018003e748     BugSplatImp.obj
 0002:00000760       ??_C@_19MGBFLGLD@?$AA?4?$AAd?$AAm?$AAp?$AA?$AA@ 000000018003e760     BugSplatImp.obj
 0002:00000770       ??_C@_1DC@BCFFPHMD@?$AAF?$AAu?$AAl?$AAl?$AA?5?$AAM?$AAe?$AAm?$AAo?$AAr?$AAy?$AA?5?$AAD?$AAu?$AAm?$AAp?$AA?5?$AAC?$AAr?$AAe?$AAa?$AAt?$AAe?$AAd?$AA?$AA@ 000000018003e770     BugSplatImp.obj
 0002:000007a4       ??_C@_13IMODFHAA@?$AA?9?$AA?$AA@ 000000018003e7a4     BugSplatImp.obj
 0002:00000aa0       ??_C@_1BK@MGMFAEKH@?$AAk?$AAe?$AAr?$AAn?$AAe?$AAl?$AA3?$AA2?$AA?4?$AAd?$AAl?$AAl?$AA?$AA@ 000000018003eaa0     mdump.obj
 0002:00000ac0       ??_C@_1KI@GMMPKHFI@?$AAF?$AAl?$AAo?$AAa?$AAt?$AAi?$AAn?$AAg?$AA?5?$AAp?$AAo?$AAi?$AAn?$AAt?$AA?5?$AA?$CI?$AA?$CF?$AA?$CF?$AAe?$AA?0?$AA?5?$AA?$CF?$AA?$CF?$AAf?$AA?0?$AA?5?$AA?$CF?$AA?$CF?$AAg?$AA?0?$AA?5?$AAa@ 000000018003eac0     mdump.obj
 0002:00000b70       ??_7error_category@std@@6B@ 000000018003eb70     mdump.obj
 0002:00000ba8       ??_7_Generic_error_category@std@@6B@ 000000018003eba8     mdump.obj
 0002:00000bd8       ??_C@_07DCLBNMLN@generic?$AA@ 000000018003ebd8     mdump.obj
 0002:00000be0       ??_C@_0O@BFJCFAAK@unknown?5error?$AA@ 000000018003ebe0     mdump.obj
 0002:00000bf8       ??_7_Iostream_error_category@std@@6B@ 000000018003ebf8     mdump.obj
 0002:00000c28       ??_C@_08LLGCOLLL@iostream?$AA@ 000000018003ec28     mdump.obj
 0002:00000c38       ??_C@_0BG@PADBLCHM@iostream?5stream?5error?$AA@ 000000018003ec38     mdump.obj
 0002:00000c58       ??_7_System_error_category@std@@6B@ 000000018003ec58     mdump.obj
 0002:00000c88       ??_C@_06FHFOAHML@system?$AA@ 000000018003ec88     mdump.obj
 0002:00000c90       ??_C@_1BI@HELBLNDD@?$AAL?$AAa?$AAu?$AAn?$AAc?$AAh?$AAC?$AAo?$AAu?$AAn?$AAt?$AA?$AA@ 000000018003ec90     mdump.obj
 0002:00000ca8       ??_C@_1CM@NJBBPIEO@?$AAL?$AAa?$AAu?$AAn?$AAc?$AAh?$AAT?$AAo?$AAL?$AAa?$AAs?$AAt?$AAC?$AAr?$AAa?$AAs?$AAh?$AAT?$AAi?$AAm?$AAe?$AA?$AA@ 000000018003eca8     mdump.obj
 0002:00000cd8       ??_C@_1BI@OKGHLGBA@?$AAT?$AAo?$AAt?$AAa?$AAl?$AAU?$AAp?$AAt?$AAi?$AAm?$AAe?$AA?$AA@ 000000018003ecd8     mdump.obj
 0002:00000cf0       ??_C@_1BG@LFFNPJIB@?$AAC?$AAr?$AAa?$AAs?$AAh?$AAC?$AAo?$AAu?$AAn?$AAt?$AA?$AA@ 000000018003ecf0     mdump.obj
 0002:00000d10       ??_7MiniDumper@@6B@        000000018003ed10     mdump.obj
 0002:00000d18       ??_C@_1CE@IEOLOJPC@?$AA?$CF?$AAY?$AA?9?$AA?$CF?$AAm?$AA?9?$AA?$CF?$AAd?$AA?5?$AA?$CF?$AAH?$AA?3?$AA?$CF?$AAM?$AA?3?$AA?$CF?$AAS?$AA?$AA@ 000000018003ed18     mdump.obj
 0002:00000d40       ??_C@_1CO@MOGDADLF@?$AA?$AN?$AA?6?$AAB?$AAu?$AAg?$AAS?$AAp?$AAl?$AAa?$AAt?$AA?4?$AAd?$AAl?$AAl?$AA?3?$AA?5?$AA?$CF?$AAs?$AA?5?$AA?5?$AA?$CF?$AAs?$AA?$AA@ 000000018003ed40     mdump.obj
 0002:00000d70       ??_C@_1FI@MFMJIGAL@?$AA?$AN?$AA?6?$AAB?$AAu?$AAg?$AAS?$AAp?$AAl?$AAa?$AAt?$AA?4?$AAd?$AAl?$AAl?$AA?3?$AA?5?$AA?5?$AA?5?$AA?5?$AA?5?$AA?5?$AA?5?$AA?5?$AA?5?$AA?5?$AA?5?$AA?5?$AA?5?$AA?5?$AA?5?$AA?5?$AA?5@ 000000018003ed70     mdump.obj
 0002:00000dc8       ??_C@_13CIFDLIMG@?$AAw?$AA?$AA@ 000000018003edc8     mdump.obj
 0002:00000dd0       ??_C@_1CC@OJBCKLND@?$AA?$AN?$AA?6?$AAB?$AAu?$AAg?$AAS?$AAp?$AAl?$AAa?$AAt?$AA?4?$AAd?$AAl?$AAl?$AA?3?$AA?5?$AA?$AA@ 000000018003edd0     mdump.obj
 0002:00000df4       ??_C@_15OJKDPEFE@?$AA?5?$AA?5?$AA?$AA@ 000000018003edf4     mdump.obj
 0002:00000e00       ??_C@_1FE@PLPGIOKG@?$AA?$AN?$AA?6?$AAB?$AAu?$AAg?$AAS?$AAp?$AAl?$AAa?$AAt?$AA?4?$AAd?$AAl?$AAl?$AA?3?$AA?5?$AA?5?$AA?5?$AA?5?$AA?5?$AA?5?$AA?5?$AA?5?$AA?5?$AA?5?$AA?5?$AA?5?$AA?5?$AA?5?$AA?5?$AA?5?$AA?5@ 000000018003ee00     mdump.obj
 0002:00000e58       ??_C@_1CE@PHFMIAMD@?$AAS?$AAo?$AAf?$AAt?$AAw?$AAa?$AAr?$AAe?$AA?2?$AAB?$AAu?$AAg?$AAS?$AAp?$AAl?$AAa?$AAt?$AA?$AA@ 000000018003ee58     mdump.obj
 0002:00000e80       ??_C@_1DG@NCHODJD@?$AAS?$AAo?$AAf?$AAt?$AAw?$AAa?$AAr?$AAe?$AA?2?$AAB?$AAu?$AAg?$AAS?$AAp?$AAl?$AAa?$AAt?$AA?2?$AA?$CF?$AAs?$AA?2?$AA?$CF?$AAs?$AA?2?$AA?$CF?$AAs?$AA?$AA@ 000000018003ee80     mdump.obj
 0002:00000eb8       ??_C@_1M@OPFBIOCF@?$AAD?$AAe?$AAb?$AAu?$AAg?$AA?$AA@ 000000018003eeb8     mdump.obj
 0002:00000ec8       ??_C@_1BK@OOGBCOHN@?$AAb?$AAu?$AAg?$AAs?$AAp?$AAl?$AAa?$AAt?$AA?4?$AAl?$AAo?$AAg?$AA?$AA@ 000000018003eec8     mdump.obj
 0002:00000ee8       ??_C@_19INNJIIDO@?$AAF?$AAr?$AAe?$AAd?$AA?$AA@ 000000018003eee8     mdump.obj
 0002:00000ef8       ??_C@_1BC@MPKNINKL@?$AAF?$AAr?$AAe?$AAd?$AAs?$AAA?$AAp?$AAp?$AA?$AA@ 000000018003eef8     mdump.obj
 0002:00000f10       ??_C@_17BODHOPJC@?$AA1?$AA?4?$AA0?$AA?$AA@ 000000018003ef10     mdump.obj
 0002:00000f18       ??_C@_1CC@FGLAJBGE@?$AAW?$AAa?$AAi?$AAt?$AAC?$AAr?$AAe?$AAa?$AAt?$AAe?$AAR?$AAe?$AAp?$AAo?$AAr?$AAt?$AA?$AA@ 000000018003ef18     mdump.obj
 0002:00000f40       ??_C@_1BO@CJKFEFGL@?$AAW?$AAa?$AAi?$AAt?$AAS?$AAe?$AAn?$AAd?$AAR?$AAe?$AAp?$AAo?$AAr?$AAt?$AA?$AA@ 000000018003ef40     mdump.obj
 0002:00000f60       ??_C@_0BM@EBDAABIF@SetUnhandledExceptionFilter?$AA@ 000000018003ef60     mdump.obj
 0002:00000f88       ??_C@_1CC@BDHINPMG@?$AAB?$AAu?$AAg?$AAS?$AAp?$AAl?$AAa?$AAt?$AAR?$AAc?$AA6?$AA4?$AA?4?$AAd?$AAl?$AAl?$AA?$AA@ 000000018003ef88     mdump.obj
 0002:00000fb0       ??_C@_1EE@DIICHLMF@?$AAB?$AAu?$AAg?$AAS?$AAp?$AAl?$AAa?$AAt?$AAR?$AAC?$AA?5?$AAr?$AAe?$AAs?$AAo?$AAu?$AAr?$AAc?$AAe?$AA?5?$AAD?$AAL?$AAL?$AA?5?$AAn?$AAo?$AAt?$AA?5?$AAf?$AAo?$AAu?$AAn@ 000000018003efb0     mdump.obj
 0002:00000ff8       ??_C@_1BE@IOCEGDOC@?$AAN?$AAo?$AAt?$AA?5?$AAf?$AAo?$AAu?$AAn?$AAd?$AA?$AA@ 000000018003eff8     mdump.obj
 0002:00001010       ??_C@_1BO@FOMNFLLD@?$AAB?$AAs?$AAS?$AAn?$AAd?$AAR?$AAp?$AAt?$AA6?$AA4?$AA?4?$AAe?$AAx?$AAe?$AA?$AA@ 000000018003f010     mdump.obj
 0002:00001030       ??_C@_1BK@JGJIGFCI@?$AAB?$AAs?$AAS?$AAn?$AAd?$AAR?$AAp?$AAt?$AA?4?$AAi?$AAn?$AAi?$AA?$AA@ 000000018003f030     mdump.obj
 0002:00001050       ??_C@_19GABABGMH@?$AA?1?$AAi?$AA?5?$AA?$CC?$AA?$AA@ 000000018003f050     mdump.obj
 0002:0000105c       ??_C@_15KEGLFFFP@?$AA?$CC?$AA?5?$AA?$AA@ 000000018003f05c     mdump.obj
 0002:00001068       ??_C@_1CA@EIMFAOLL@?$AAw?$AA?$CL?$AA?0?$AAc?$AAc?$AAs?$AA?$DN?$AAU?$AAT?$AAF?$AA?9?$AA1?$AA6?$AAL?$AAE?$AA?$AA@ 000000018003f068     mdump.obj
 0002:00001088       ??_C@_1O@OCGHFCBB@?$AAV?$AAe?$AAn?$AAd?$AAo?$AAr?$AA?$AA@ 000000018003f088     mdump.obj
 0002:00001098       ??_C@_1BC@HGIPDDBD@?$AAB?$AAu?$AAg?$AAS?$AAp?$AAl?$AAa?$AAt?$AA?$AA@ 000000018003f098     mdump.obj
 0002:000010b0       ??_C@_1BI@JBDNBBGL@?$AAA?$AAp?$AAp?$AAl?$AAi?$AAc?$AAa?$AAt?$AAi?$AAo?$AAn?$AA?$AA@ 000000018003f0b0     mdump.obj
 0002:000010c8       ??_C@_1BA@LIACFDLB@?$AAV?$AAe?$AAr?$AAs?$AAi?$AAo?$AAn?$AA?$AA@ 000000018003f0c8     mdump.obj
 0002:000010d8       ??_C@_1BO@JJBEILLJ@?$AAW?$AAi?$AAn?$AAd?$AAo?$AAw?$AAs?$AA?4?$AAN?$AAa?$AAt?$AAi?$AAv?$AAe?$AA?$AA@ 000000018003f0d8     mdump.obj
 0002:000010f8       ??_C@_1BE@INIEEAGC@?$AAC?$AAr?$AAa?$AAs?$AAh?$AAT?$AAy?$AAp?$AAe?$AA?$AA@ 000000018003f0f8     mdump.obj
 0002:00001110       ??_C@_1BC@GLPBAEGG@?$AAM?$AAi?$AAn?$AAi?$AAD?$AAu?$AAm?$AAp?$AA?$AA@ 000000018003f110     mdump.obj
 0002:00001128       ??_C@_17NCOMCBID@?$AAM?$AAF?$AAA?$AA?$AA@ 000000018003f128     mdump.obj
 0002:00001130       ??_C@_1BI@DLMANABL@?$AAD?$AAe?$AAs?$AAc?$AAr?$AAi?$AAp?$AAt?$AAi?$AAo?$AAn?$AA?$AA@ 000000018003f130     mdump.obj
 0002:00001148       ??_C@_19PIJILKAI@?$AAU?$AAs?$AAe?$AAr?$AA?$AA@ 000000018003f148     mdump.obj
 0002:00001158       ??_C@_1M@EKLJMALM@?$AAE?$AAm?$AAa?$AAi?$AAl?$AA?$AA@ 000000018003f158     mdump.obj
 0002:00001168       ??_C@_1CA@MIGDIAA@?$AAU?$AAs?$AAe?$AAr?$AAD?$AAe?$AAs?$AAc?$AAr?$AAi?$AAp?$AAt?$AAi?$AAo?$AAn?$AA?$AA@ 000000018003f168     mdump.obj
 0002:00001188       ??_C@_1BI@BMIEGOLH@?$AAL?$AAo?$AAg?$AAF?$AAi?$AAl?$AAe?$AAP?$AAa?$AAt?$AAh?$AA?$AA@ 000000018003f188     mdump.obj
 0002:000011a0       ??_C@_1BI@GJJPHGA@?$AAU?$AAs?$AAe?$AAr?$AAZ?$AAi?$AAp?$AAP?$AAa?$AAt?$AAh?$AA?$AA@ 000000018003f1a0     mdump.obj
 0002:000011b8       ??_C@_1CA@LFLBLFPJ@?$AAR?$AAe?$AAs?$AAo?$AAu?$AAr?$AAc?$AAe?$AAD?$AAl?$AAl?$AAP?$AAa?$AAt?$AAh?$AA?$AA@ 000000018003f1b8     mdump.obj
 0002:000011d8       ??_C@_19GBMGDAIM@?$AA?$CC?$AA?$CF?$AAs?$AA?$CC?$AA?$AA@ 000000018003f1d8     mdump.obj
 0002:000011e8       ??_C@_1O@FDEGFBLE@?$AAD?$AAo?$AAt?$AAN?$AAe?$AAt?$AA?$AA@ 000000018003f1e8     mdump.obj
 0002:000011f8       ??_C@_1CC@KPBKAKMH@?$AAA?$AAd?$AAd?$AAi?$AAt?$AAi?$AAo?$AAn?$AAa?$AAl?$AAF?$AAi?$AAl?$AAe?$AA?$CF?$AAd?$AA?$AA@ 000000018003f1f8     mdump.obj
 0002:00001220       ??_C@_17EGNCDCNK@?$AA?5?$AA?1?$AAq?$AA?$AA@ 000000018003f220     mdump.obj
 0002:00001228       ??_C@_19JBOLOBFE@?$AA?5?$AA?1?$AAd?$AAl?$AA?$AA@ 000000018003f228     mdump.obj
 0002:00001238       ??_C@_19MJIIPBAC@?$AA?5?$AA?1?$AAd?$AAc?$AA?$AA@ 000000018003f238     mdump.obj
 0002:00001248       ??_C@_1BA@FPNIFEJ@?$AA?$CC?$AA?$CF?$AAs?$AA?$CC?$AA?5?$AA?$CF?$AAs?$AA?$AA@ 000000018003f248     mdump.obj
 0002:00001258       ??_C@_1BC@OIGJFGGK@?$AA?$CF?$AAs?$AA?$CB?$AA?$CF?$AA0?$AA8?$AAl?$AAx?$AA?$AA@ 000000018003f258     mdump.obj
 0002:0000126c       ??_C@_15GANGMFKL@?$AA?$CF?$AAs?$AA?$AA@ 000000018003f26c     mdump.obj
 0002:00001280       ??_C@_1GA@OHCHEFDH@?$AAB?$AAu?$AAg?$AAS?$AAp?$AAl?$AAa?$AAt?$AAH?$AAD?$AA6?$AA4?$AA?4?$AAe?$AAx?$AAe?$AA?5?$AA?1?$AAp?$AA?5?$AA?$CF?$AAl?$AAd?$AA?5?$AA?1?$AAc?$AA?5?$AA?$CC?$AA?$CF?$AAs?$AA?$CC?$AA?5@ 000000018003f280     mdump.obj
 0002:000012e0       ??_C@_1M@HLHLHGPH@?$AA?5?$AA?1?$AAd?$AA?5?$AA?$CC?$AA?$AA@ 000000018003f2e0     mdump.obj
 0002:000012ec       ??_C@_13NEIAEHFG@?$AA?$CC?$AA?$AA@ 000000018003f2ec     mdump.obj
 0002:000012f0       ??_C@_0BA@JFNIOLAK@string?5too?5long?$AA@ 000000018003f2f0     mdump.obj
 0002:00001300       ??_C@_0BI@CFPLBAOH@invalid?5string?5position?$AA@ 000000018003f300     mdump.obj
 0002:00001318       ??_C@_0BD@OLBABOEK@vector?$DMT?$DO?5too?5long?$AA@ 000000018003f318     mdump.obj
 0002:00001360       ?rgszNeverDelete@CRegParser@ATL@@1QBQEB_WB 000000018003f360     sbSenderApp.obj
 0002:000013c0       ??_C@_1CK@OEKPKBNA@?$AAC?$AAo?$AAm?$AAp?$AAo?$AAn?$AAe?$AAn?$AAt?$AA?5?$AAC?$AAa?$AAt?$AAe?$AAg?$AAo?$AAr?$AAi?$AAe?$AAs?$AA?$AA@ 000000018003f3c0     sbSenderApp.obj
 0002:000013f0       ??_C@_1BC@NKMMNMGL@?$AAF?$AAi?$AAl?$AAe?$AAT?$AAy?$AAp?$AAe?$AA?$AA@ 000000018003f3f0     sbSenderApp.obj
 0002:00001408       ??_C@_1BE@EKPAFMCP@?$AAI?$AAn?$AAt?$AAe?$AAr?$AAf?$AAa?$AAc?$AAe?$AA?$AA@ 000000018003f408     sbSenderApp.obj
 0002:00001420       ??_C@_1BC@MAICEHGI@?$AAH?$AAa?$AAr?$AAd?$AAw?$AAa?$AAr?$AAe?$AA?$AA@ 000000018003f420     sbSenderApp.obj
 0002:00001438       ??_C@_19HLLLM@?$AAM?$AAi?$AAm?$AAe?$AA?$AA@ 000000018003f438     sbSenderApp.obj
 0002:00001448       ??_C@_17OMAOINJK@?$AAS?$AAA?$AAM?$AA?$AA@ 000000018003f448     sbSenderApp.obj
 0002:00001450       ??_C@_1BC@IBECJAAI@?$AAS?$AAE?$AAC?$AAU?$AAR?$AAI?$AAT?$AAY?$AA?$AA@ 000000018003f450     sbSenderApp.obj
 0002:00001468       ??_C@_1O@GBFINDKL@?$AAS?$AAY?$AAS?$AAT?$AAE?$AAM?$AA?$AA@ 000000018003f468     sbSenderApp.obj
 0002:00001478       ??_C@_1BC@EAHCMADO@?$AAS?$AAo?$AAf?$AAt?$AAw?$AAa?$AAr?$AAe?$AA?$AA@ 000000018003f478     sbSenderApp.obj
 0002:00001490       ??_C@_1BA@JIHHIEDE@?$AAT?$AAy?$AAp?$AAe?$AAL?$AAi?$AAb?$AA?$AA@ 000000018003f490     sbSenderApp.obj
 0002:000014a0       ??_C@_1M@KANJNLFF@?$AAC?$AAL?$AAS?$AAI?$AAD?$AA?$AA@ 000000018003f4a0     sbSenderApp.obj
 0002:000014b0       ??_C@_1M@EJNEECMJ@?$AAA?$AAp?$AAp?$AAI?$AAD?$AA?$AA@ 000000018003f4b0     sbSenderApp.obj
 0002:000014c0       ?szStringVal@ATL@@3QEB_WEB 000000018003f4c0     sbSenderApp.obj
 0002:000014c8       ??_C@_13HADIAKP@?$AAS?$AA?$AA@ 000000018003f4c8     sbSenderApp.obj
 0002:000014d0       ?multiszStringVal@ATL@@3QEB_WEB 000000018003f4d0     sbSenderApp.obj
 0002:000014d8       ??_C@_13LHMFKAAD@?$AAM?$AA?$AA@ 000000018003f4d8     sbSenderApp.obj
 0002:000014e0       ?szDwordVal@ATL@@3QEB_WEB  000000018003f4e0     sbSenderApp.obj
 0002:000014e8       ??_C@_13MKMNOPIJ@?$AAD?$AA?$AA@ 000000018003f4e8     sbSenderApp.obj
 0002:000014f0       ?szBinaryVal@ATL@@3QEB_WEB 000000018003f4f0     sbSenderApp.obj
 0002:000014f8       ??_C@_13OPKGLAFF@?$AAB?$AA?$AA@ 000000018003f4f8     sbSenderApp.obj
 0002:00001500       ?szValToken@ATL@@3QEB_WEB  000000018003f500     sbSenderApp.obj
 0002:00001508       ??_C@_17LLMMEOJD@?$AAV?$AAa?$AAl?$AA?$AA@ 000000018003f508     sbSenderApp.obj
 0002:00001510       ?szForceRemove@ATL@@3QEB_WEB 000000018003f510     sbSenderApp.obj
 0002:00001518       ??_C@_1BI@JFAIJMHL@?$AAF?$AAo?$AAr?$AAc?$AAe?$AAR?$AAe?$AAm?$AAo?$AAv?$AAe?$AA?$AA@ 000000018003f518     sbSenderApp.obj
 0002:00001530       ?szNoRemove@ATL@@3QEB_WEB  000000018003f530     sbSenderApp.obj
 0002:00001538       ??_C@_1BC@GCKHIPE@?$AAN?$AAo?$AAR?$AAe?$AAm?$AAo?$AAv?$AAe?$AA?$AA@ 000000018003f538     sbSenderApp.obj
 0002:00001550       ?szDelete@ATL@@3QEB_WEB    000000018003f550     sbSenderApp.obj
 0002:00001558       ??_C@_1O@JDLOHAN@?$AAD?$AAe?$AAl?$AAe?$AAt?$AAe?$AA?$AA@ 000000018003f558     sbSenderApp.obj
 0002:00001798       ??_C@_1BK@BIGILECK@?$AAA?$AAd?$AAv?$AAa?$AAp?$AAi?$AA3?$AA2?$AA?4?$AAd?$AAl?$AAl?$AA?$AA@ 000000018003f798     sbSenderApp.obj
 0002:000017b8       ??_C@_0BG@EKFFMJIO@RegOpenKeyTransactedW?$AA@ 000000018003f7b8     sbSenderApp.obj
 0002:000017d0       ??_C@_0BI@MNCFCPFK@RegCreateKeyTransactedW?$AA@ 000000018003f7d0     sbSenderApp.obj
 0002:000017e8       ??_C@_0BI@HAKLOOGP@RegDeleteKeyTransactedW?$AA@ 000000018003f7e8     sbSenderApp.obj
 0002:00001800       _GUID_00000146_0000_0000_c000_000000000046 000000018003f800     sbSenderApp.obj
 0002:00001818       ??_7CComModule@ATL@@6B@    000000018003f818     sbSenderApp.obj
 0002:00001868       ??_C@_0BA@LILAPHGE@RegDeleteKeyExW?$AA@ 000000018003f868     sbSenderApp.obj
 0002:00001880       ??_7CRegObject@ATL@@6B@    000000018003f880     sbSenderApp.obj
 0002:000018b0       ?map@?1??HKeyFromString@CRegParser@ATL@@KAPEAUHKEY__@@PEA_W@Z@4QBUkeymap@?1??123@KAPEAU4@0@Z@B 000000018003f8b0     sbSenderApp.obj
 0002:00001990       ??_C@_19NCHLBIN@?$AAH?$AAK?$AAC?$AAR?$AA?$AA@ 000000018003f990     sbSenderApp.obj
 0002:000019a0       ??_C@_19JAPAIJDE@?$AAH?$AAK?$AAC?$AAU?$AA?$AA@ 000000018003f9a0     sbSenderApp.obj
 0002:000019b0       ??_C@_19PEALEEJB@?$AAH?$AAK?$AAL?$AAM?$AA?$AA@ 000000018003f9b0     sbSenderApp.obj
 0002:000019c0       ??_C@_17PJOJPMPB@?$AAH?$AAK?$AAU?$AA?$AA@ 000000018003f9c0     sbSenderApp.obj
 0002:000019c8       ??_C@_19PNBHMJPL@?$AAH?$AAK?$AAP?$AAD?$AA?$AA@ 000000018003f9c8     sbSenderApp.obj
 0002:000019d8       ??_C@_19GFFAIJHG@?$AAH?$AAK?$AAD?$AAD?$AA?$AA@ 000000018003f9d8     sbSenderApp.obj
 0002:000019e8       ??_C@_19OFICIBHH@?$AAH?$AAK?$AAC?$AAC?$AA?$AA@ 000000018003f9e8     sbSenderApp.obj
 0002:000019f8       ??_C@_1CE@PACHPJFI@?$AAH?$AAK?$AAE?$AAY?$AA_?$AAC?$AAL?$AAA?$AAS?$AAS?$AAE?$AAS?$AA_?$AAR?$AAO?$AAO?$AAT?$AA?$AA@ 000000018003f9f8     sbSenderApp.obj
 0002:00001a20       ??_C@_1CE@HLHNCBPM@?$AAH?$AAK?$AAE?$AAY?$AA_?$AAC?$AAU?$AAR?$AAR?$AAE?$AAN?$AAT?$AA_?$AAU?$AAS?$AAE?$AAR?$AA?$AA@ 000000018003fa20     sbSenderApp.obj
 0002:00001a48       ??_C@_1CG@GFBEANJL@?$AAH?$AAK?$AAE?$AAY?$AA_?$AAL?$AAO?$AAC?$AAA?$AAL?$AA_?$AAM?$AAA?$AAC?$AAH?$AAI?$AAN?$AAE?$AA?$AA@ 000000018003fa48     sbSenderApp.obj
 0002:00001a70       ??_C@_1BG@BGODANIO@?$AAH?$AAK?$AAE?$AAY?$AA_?$AAU?$AAS?$AAE?$AAR?$AAS?$AA?$AA@ 000000018003fa70     sbSenderApp.obj
 0002:00001a88       ??_C@_1CM@KHNNAOIC@?$AAH?$AAK?$AAE?$AAY?$AA_?$AAP?$AAE?$AAR?$AAF?$AAO?$AAR?$AAM?$AAA?$AAN?$AAC?$AAE?$AA_?$AAD?$AAA?$AAT?$AAA?$AA?$AA@ 000000018003fa88     sbSenderApp.obj
 0002:00001ab8       ??_C@_1BM@HAGMMHIA@?$AAH?$AAK?$AAE?$AAY?$AA_?$AAD?$AAY?$AAN?$AA_?$AAD?$AAA?$AAT?$AAA?$AA?$AA@ 000000018003fab8     sbSenderApp.obj
 0002:00001ad8       ??_C@_1CI@BBJOACGG@?$AAH?$AAK?$AAE?$AAY?$AA_?$AAC?$AAU?$AAR?$AAR?$AAE?$AAN?$AAT?$AA_?$AAC?$AAO?$AAN?$AAF?$AAI?$AAG?$AA?$AA@ 000000018003fad8     sbSenderApp.obj
 0002:00001b00       ??_C@_1EA@NHKLICFA@?$AAH?$AAK?$AAC?$AAU?$AA?$AN?$AA?6?$AA?$HL?$AA?7?$AAS?$AAo?$AAf?$AAt?$AAw?$AAa?$AAr?$AAe?$AA?$AN?$AA?6?$AA?7?$AA?$HL?$AA?$AN?$AA?6?$AA?7?$AA?7?$AAC?$AAl?$AAa?$AAs?$AAs?$AAe?$AAs?$AA?$AA@ 000000018003fb00     sbSenderApp.obj
 0002:00001b40       ??_C@_1BE@LJOLIMEM@?$AA?$AN?$AA?6?$AA?7?$AA?$HN?$AA?$AN?$AA?6?$AA?$HN?$AA?$AN?$AA?6?$AA?$AA@ 000000018003fb40     sbSenderApp.obj
 0002:00001b58       ??_C@_1O@MNLDABAF@?$AAM?$AAo?$AAd?$AAu?$AAl?$AAe?$AA?$AA@ 000000018003fb58     sbSenderApp.obj
 0002:00001b68       ??_C@_1BG@JBACFMF@?$AAM?$AAo?$AAd?$AAu?$AAl?$AAe?$AA_?$AAR?$AAa?$AAw?$AA?$AA@ 000000018003fb68     sbSenderApp.obj
 0002:00001b80       ??_C@_1BC@KAILKFFG@?$AAR?$AAE?$AAG?$AAI?$AAS?$AAT?$AAR?$AAY?$AA?$AA@ 000000018003fb80     sbSenderApp.obj
 0002:00001ba0       ??_7CAppModule@WTL@@6B@    000000018003fba0     sbSenderApp.obj
 0002:00001bf0       ??_C@_1M@PPPPCDEP@?$AAA?$AAP?$AAP?$AAI?$AAD?$AA?$AA@ 000000018003fbf0     sbSenderApp.obj
 0002:00001bfc       ?cbNeverDelete@CRegParser@ATL@@1HB 000000018003fbfc     StdAfx.obj
 0002:00001c00       IID_IAxWinAmbientDispatchEx 000000018003fc00     StdAfx.obj
 0002:00001c10       IID_IInternalConnection    000000018003fc10     StdAfx.obj
 0002:00001c20       CLSID_Registrar            000000018003fc20     StdAfx.obj
 0002:00001c30       LIBID_ATLLib               000000018003fc30     StdAfx.obj
 0002:00001c40       ?pmField@?$CVarTypeInfo@D@ATL@@2QEQtagVARIANT@@DEQ3@ 000000018003fc40     StdAfx.obj
 0002:00001c48       IID_IRegistrar             000000018003fc48     StdAfx.obj
 0002:00001c58       ?pmField@?$CVarTypeInfo@E@ATL@@2QEQtagVARIANT@@EEQ3@ 000000018003fc58     StdAfx.obj
 0002:00001c60       ?pmField@?$CVarTypeInfo@PEAD@ATL@@2QEQtagVARIANT@@PEADEQ3@ 000000018003fc60     StdAfx.obj
 0002:00001c68       ?pmField@?$CVarTypeInfo@PEAE@ATL@@2QEQtagVARIANT@@PEAEEQ3@ 000000018003fc68     StdAfx.obj
 0002:00001c70       ?pmField@?$CVarTypeInfo@F@ATL@@2QEQtagVARIANT@@FEQ3@ 000000018003fc70     StdAfx.obj
 0002:00001c78       ?pmField@?$CVarTypeInfo@PEAF@ATL@@2QEQtagVARIANT@@PEAFEQ3@ 000000018003fc78     StdAfx.obj
 0002:00001c80       ?pmField@?$CVarTypeInfo@G@ATL@@2QEQtagVARIANT@@GEQ3@ 000000018003fc80     StdAfx.obj
 0002:00001c88       ?pmField@?$CVarTypeInfo@PEAG@ATL@@2QEQtagVARIANT@@PEAGEQ3@ 000000018003fc88     StdAfx.obj
 0002:00001c90       ?pmField@?$CVarTypeInfo@H@ATL@@2QEQtagVARIANT@@HEQ3@ 000000018003fc90     StdAfx.obj
 0002:00001c98       ?pmField@?$CVarTypeInfo@PEAH@ATL@@2QEQtagVARIANT@@PEAHEQ3@ 000000018003fc98     StdAfx.obj
 0002:00001ca0       IID_IDocHostUIHandlerDispatch 000000018003fca0     StdAfx.obj
 0002:00001cb0       ?pmField@?$CVarTypeInfo@I@ATL@@2QEQtagVARIANT@@IEQ3@ 000000018003fcb0     StdAfx.obj
 0002:00001cb8       ?pmField@?$CVarTypeInfo@PEAI@ATL@@2QEQtagVARIANT@@PEAIEQ3@ 000000018003fcb8     StdAfx.obj
 0002:00001cc0       ?pmField@?$CVarTypeInfo@J@ATL@@2QEQtagVARIANT@@JEQ3@ 000000018003fcc0     StdAfx.obj
 0002:00001cc8       ?pmField@?$CVarTypeInfo@PEAJ@ATL@@2QEQtagVARIANT@@PEAJEQ3@ 000000018003fcc8     StdAfx.obj
 0002:00001cd0       ?pmField@?$CVarTypeInfo@K@ATL@@2QEQtagVARIANT@@KEQ3@ 000000018003fcd0     StdAfx.obj
 0002:00001cd8       ?pmField@?$CVarTypeInfo@PEAK@ATL@@2QEQtagVARIANT@@PEAKEQ3@ 000000018003fcd8     StdAfx.obj
 0002:00001ce0       ?pmField@?$CVarTypeInfo@_J@ATL@@2QEQtagVARIANT@@_JEQ3@ 000000018003fce0     StdAfx.obj
 0002:00001ce8       ?pmField@?$CVarTypeInfo@PEA_J@ATL@@2QEQtagVARIANT@@PEA_JEQ3@ 000000018003fce8     StdAfx.obj
 0002:00001cf0       ?pmField@?$CVarTypeInfo@_K@ATL@@2QEQtagVARIANT@@_KEQ3@ 000000018003fcf0     StdAfx.obj
 0002:00001cf8       ?pmField@?$CVarTypeInfo@PEA_K@ATL@@2QEQtagVARIANT@@PEA_KEQ3@ 000000018003fcf8     StdAfx.obj
 0002:00001d00       ?pmField@?$CVarTypeInfo@M@ATL@@2QEQtagVARIANT@@MEQ3@ 000000018003fd00     StdAfx.obj
 0002:00001d08       ?pmField@?$CVarTypeInfo@PEAM@ATL@@2QEQtagVARIANT@@PEAMEQ3@ 000000018003fd08     StdAfx.obj
 0002:00001d10       ?pmField@?$CVarTypeInfo@N@ATL@@2QEQtagVARIANT@@NEQ3@ 000000018003fd10     StdAfx.obj
 0002:00001d18       ?pmField@?$CVarTypeInfo@PEAN@ATL@@2QEQtagVARIANT@@PEANEQ3@ 000000018003fd18     StdAfx.obj
 0002:00001d20       ?pmField@?$CVarTypeInfo@PEA_W@ATL@@2QEQtagVARIANT@@PEA_WEQ3@ 000000018003fd20     StdAfx.obj
 0002:00001d28       IID_IAxWinHostWindow       000000018003fd28     StdAfx.obj
 0002:00001d38       ?pmField@?$CVarTypeInfo@PEAPEA_W@ATL@@2QEQtagVARIANT@@PEAPEA_WEQ3@ 000000018003fd38     StdAfx.obj
 0002:00001d3c       ?chDirSep@ATL@@3_WB        000000018003fd3c     StdAfx.obj
 0002:00001d40       ?chRightBracket@ATL@@3_WB  000000018003fd40     StdAfx.obj
 0002:00001d48       ?pmField@?$CVarTypeInfo@PEAUIUnknown@@@ATL@@2QEQtagVARIANT@@PEAUIUnknown@@EQ3@ 000000018003fd48     StdAfx.obj
 0002:00001d4c       ?chLeftBracket@ATL@@3_WB   000000018003fd4c     StdAfx.obj
 0002:00001d50       ?chQuote@ATL@@3_WB         000000018003fd50     StdAfx.obj
 0002:00001d54       ?chEquals@ATL@@3_WB        000000018003fd54     StdAfx.obj
 0002:00001d58       ?pmField@?$CVarTypeInfo@PEAPEAUIUnknown@@@ATL@@2QEQtagVARIANT@@PEAPEAUIUnknown@@EQ3@ 000000018003fd58     StdAfx.obj
 0002:00001d60       ?pmField@?$CVarTypeInfo@PEAUIDispatch@@@ATL@@2QEQtagVARIANT@@PEAUIDispatch@@EQ3@ 000000018003fd60     StdAfx.obj
 0002:00001d68       ?pmField@?$CVarTypeInfo@PEAPEAUIDispatch@@@ATL@@2QEQtagVARIANT@@PEAPEAUIDispatch@@EQ3@ 000000018003fd68     StdAfx.obj
 0002:00001d70       ?pmField@?$CVarTypeInfo@TtagCY@@@ATL@@2QEQtagVARIANT@@TtagCY@@EQ3@ 000000018003fd70     StdAfx.obj
 0002:00001d78       ?pmField@?$CVarTypeInfo@PEATtagCY@@@ATL@@2QEQtagVARIANT@@PEATtagCY@@EQ3@ 000000018003fd78     StdAfx.obj
 0002:00001d80       IID_IAxWinHostWindowLic    000000018003fd80     StdAfx.obj
 0002:00001d90       IID_IAxWinAmbientDispatch  000000018003fd90     StdAfx.obj
 0002:00001da0       GUID_NULL                  000000018003fda0     uuid:cguid_i.obj
 0002:00001db0       CATID_MARSHALER            000000018003fdb0     uuid:cguid_i.obj
 0002:00001dc0       IID_IRpcChannel            000000018003fdc0     uuid:cguid_i.obj
 0002:00001dd0       IID_IRpcStub               000000018003fdd0     uuid:cguid_i.obj
 0002:00001de0       IID_IStubManager           000000018003fde0     uuid:cguid_i.obj
 0002:00001df0       IID_IRpcProxy              000000018003fdf0     uuid:cguid_i.obj
 0002:00001e00       IID_IProxyManager          000000018003fe00     uuid:cguid_i.obj
 0002:00001e10       IID_IPSFactory             000000018003fe10     uuid:cguid_i.obj
 0002:00001e20       IID_IInternalMoniker       000000018003fe20     uuid:cguid_i.obj
 0002:00001e30       IID_IDfReserved1           000000018003fe30     uuid:cguid_i.obj
 0002:00001e40       IID_IDfReserved2           000000018003fe40     uuid:cguid_i.obj
 0002:00001e50       IID_IDfReserved3           000000018003fe50     uuid:cguid_i.obj
 0002:00001e60       CLSID_StdMarshal           000000018003fe60     uuid:cguid_i.obj
 0002:00001e70       IID_IStub                  000000018003fe70     uuid:cguid_i.obj
 0002:00001e80       IID_IProxy                 000000018003fe80     uuid:cguid_i.obj
 0002:00001e90       IID_IEnumGeneric           000000018003fe90     uuid:cguid_i.obj
 0002:00001ea0       IID_IEnumHolder            000000018003fea0     uuid:cguid_i.obj
 0002:00001eb0       IID_IEnumCallback          000000018003feb0     uuid:cguid_i.obj
 0002:00001ec0       IID_IOleManager            000000018003fec0     uuid:cguid_i.obj
 0002:00001ed0       IID_IOlePresObj            000000018003fed0     uuid:cguid_i.obj
 0002:00001ee0       IID_IDebug                 000000018003fee0     uuid:cguid_i.obj
 0002:00001ef0       IID_IDebugStream           000000018003fef0     uuid:cguid_i.obj
 0002:00001f00       CLSID_PSGenObject          000000018003ff00     uuid:cguid_i.obj
 0002:00001f10       CLSID_PSClientSite         000000018003ff10     uuid:cguid_i.obj
 0002:00001f20       CLSID_PSClassObject        000000018003ff20     uuid:cguid_i.obj
 0002:00001f30       CLSID_PSInPlaceActive      000000018003ff30     uuid:cguid_i.obj
 0002:00001f40       CLSID_PSInPlaceFrame       000000018003ff40     uuid:cguid_i.obj
 0002:00001f50       CLSID_PSDragDrop           000000018003ff50     uuid:cguid_i.obj
 0002:00001f60       CLSID_PSBindCtx            000000018003ff60     uuid:cguid_i.obj
 0002:00001f70       CLSID_PSEnumerators        000000018003ff70     uuid:cguid_i.obj
 0002:00001f80       CLSID_StaticMetafile       000000018003ff80     uuid:cguid_i.obj
 0002:00001f90       CLSID_StaticDib            000000018003ff90     uuid:cguid_i.obj
 0002:00001fa0       CLSID_Picture_Metafile     000000018003ffa0     uuid:cguid_i.obj
 0002:00001fb0       CLSID_Picture_EnhMetafile  000000018003ffb0     uuid:cguid_i.obj
 0002:00001fc0       CLSID_Picture_Dib          000000018003ffc0     uuid:cguid_i.obj
 0002:00001fd0       CLSID_DCOMAccessControl    000000018003ffd0     uuid:cguid_i.obj
 0002:00001fe0       CLSID_StdGlobalInterfaceTable 000000018003ffe0     uuid:cguid_i.obj
 0002:00001ff0       CLSID_ManualResetEvent     000000018003fff0     uuid:cguid_i.obj
 0002:00002000       CLSID_StdEvent             0000000180040000     uuid:cguid_i.obj
 0002:00002010       CLSID_SynchronizeContainer 0000000180040010     uuid:cguid_i.obj
 0002:00002020       CLSID_ComBinding           0000000180040020     uuid:cguid_i.obj
 0002:00002030       CLSID_StdAsyncActManager   0000000180040030     uuid:cguid_i.obj
 0002:00002040       CLSID_InProcFreeMarshaler  0000000180040040     uuid:cguid_i.obj
 0002:00002050       CLSID_RemoteUnknownPSFactory 0000000180040050     uuid:cguid_i.obj
 0002:00002060       IID_IRichEditOle           0000000180040060     uuid:cguid_i.obj
 0002:00002070       IID_IRichEditOleCallback   0000000180040070     uuid:cguid_i.obj
 0002:00002080       CLSID_AllClasses           0000000180040080     uuid:cguid_i.obj
 0002:00002090       CLSID_LocalMachineClasses  0000000180040090     uuid:cguid_i.obj
 0002:000020a0       CLSID_CurrentUserClasses   00000001800400a0     uuid:cguid_i.obj
 0002:000020b0       CLSID_AddrControl          00000001800400b0     uuid:cguid_i.obj
 0002:000020c0       CLSID_GlobalOptions        00000001800400c0     uuid:cguid_i.obj
 0002:000020d0       CLSID_SurrogateManager     00000001800400d0     uuid:cguid_i.obj
 0002:000020e0       CLSID_ContextSwitcher      00000001800400e0     uuid:cguid_i.obj
 0002:000020f0       IID_IPropertyFrame         00000001800400f0     uuid:cguid_i.obj
 0002:00002100       CLSID_CFontPropPage        0000000180040100     uuid:cguid_i.obj
 0002:00002110       CLSID_CColorPropPage       0000000180040110     uuid:cguid_i.obj
 0002:00002120       CLSID_CPicturePropPage     0000000180040120     uuid:cguid_i.obj
 0002:00002130       CLSID_StockFontPage        0000000180040130     uuid:cguid_i.obj
 0002:00002140       CLSID_StockColorPage       0000000180040140     uuid:cguid_i.obj
 0002:00002150       CLSID_StockPicturePage     0000000180040150     uuid:cguid_i.obj
 0002:00002160       CLSID_PersistPropset       0000000180040160     uuid:cguid_i.obj
 0002:00002170       CLSID_ConvertVBX           0000000180040170     uuid:cguid_i.obj
 0002:00002180       CLSID_StdFont              0000000180040180     uuid:cguid_i.obj
 0002:00002190       CLSID_StdPicture           0000000180040190     uuid:cguid_i.obj
 0002:000021a0       GUID_HIMETRIC              00000001800401a0     uuid:cguid_i.obj
 0002:000021b0       GUID_COLOR                 00000001800401b0     uuid:cguid_i.obj
 0002:000021c0       GUID_XPOSPIXEL             00000001800401c0     uuid:cguid_i.obj
 0002:000021d0       GUID_YPOSPIXEL             00000001800401d0     uuid:cguid_i.obj
 0002:000021e0       GUID_XSIZEPIXEL            00000001800401e0     uuid:cguid_i.obj
 0002:000021f0       GUID_YSIZEPIXEL            00000001800401f0     uuid:cguid_i.obj
 0002:00002200       GUID_XPOS                  0000000180040200     uuid:cguid_i.obj
 0002:00002210       GUID_YPOS                  0000000180040210     uuid:cguid_i.obj
 0002:00002220       GUID_XSIZE                 0000000180040220     uuid:cguid_i.obj
 0002:00002230       GUID_YSIZE                 0000000180040230     uuid:cguid_i.obj
 0002:00002240       GUID_TRISTATE              0000000180040240     uuid:cguid_i.obj
 0002:00002250       GUID_OPTIONVALUEEXCLUSIVE  0000000180040250     uuid:cguid_i.obj
 0002:00002260       GUID_CHECKVALUEEXCLUSIVE   0000000180040260     uuid:cguid_i.obj
 0002:00002270       GUID_FONTNAME              0000000180040270     uuid:cguid_i.obj
 0002:00002280       GUID_FONTSIZE              0000000180040280     uuid:cguid_i.obj
 0002:00002290       GUID_FONTBOLD              0000000180040290     uuid:cguid_i.obj
 0002:000022a0       GUID_FONTITALIC            00000001800402a0     uuid:cguid_i.obj
 0002:000022b0       GUID_FONTUNDERSCORE        00000001800402b0     uuid:cguid_i.obj
 0002:000022c0       GUID_FONTSTRIKETHROUGH     00000001800402c0     uuid:cguid_i.obj
 0002:000022d0       GUID_HANDLE                00000001800402d0     uuid:cguid_i.obj
 0002:000022e0       IID_StdOle                 00000001800402e0     uuid:cguid_i.obj
 0002:000022f0       IID_ICursor                00000001800402f0     uuid:cguid_i.obj
 0002:00002300       IID_ICursorMove            0000000180040300     uuid:cguid_i.obj
 0002:00002310       IID_ICursorScroll          0000000180040310     uuid:cguid_i.obj
 0002:00002320       IID_ICursorUpdateARow      0000000180040320     uuid:cguid_i.obj
 0002:00002330       IID_INotifyDBEvents        0000000180040330     uuid:cguid_i.obj
 0002:00002340       IID_ICursorFind            0000000180040340     uuid:cguid_i.obj
 0002:00002350       IID_IEntryID               0000000180040350     uuid:cguid_i.obj
 0002:00002360       _GUID_NAMEONLY             0000000180040360     uuid:cguid_i.obj
 0002:00002370       _DBBMKGUID                 0000000180040370     uuid:cguid_i.obj
 0002:00002380       _DBCIDGUID                 0000000180040380     uuid:cguid_i.obj
 0002:00002390       IID_IBoundObject           0000000180040390     uuid:cguid_i.obj
 0002:000023a0       IID_IBoundObjectSite       00000001800403a0     uuid:cguid_i.obj
 0002:000023b0       CLSID_GblComponentCategoriesMgr 00000001800403b0     uuid:cguid_i.obj
 0002:000023c0       CLSID_ThumbnailFCNHandler  00000001800403c0     uuid:cguid_i.obj
 0002:000023d0       CLSID_ThumbnailUpdater     00000001800403d0     uuid:cguid_i.obj
 0002:000023e0       GUID_DEVCLASS_1394         00000001800403e0     uuid:cguid_i.obj
 0002:000023f0       GUID_DEVCLASS_1394DEBUG    00000001800403f0     uuid:cguid_i.obj
 0002:00002400       GUID_DEVCLASS_61883        0000000180040400     uuid:cguid_i.obj
 0002:00002410       GUID_DEVCLASS_ADAPTER      0000000180040410     uuid:cguid_i.obj
 0002:00002420       GUID_DEVCLASS_APMSUPPORT   0000000180040420     uuid:cguid_i.obj
 0002:00002430       GUID_DEVCLASS_AVC          0000000180040430     uuid:cguid_i.obj
 0002:00002440       GUID_DEVCLASS_BATTERY      0000000180040440     uuid:cguid_i.obj
 0002:00002450       GUID_DEVCLASS_BIOMETRIC    0000000180040450     uuid:cguid_i.obj
 0002:00002460       GUID_DEVCLASS_BLUETOOTH    0000000180040460     uuid:cguid_i.obj
 0002:00002470       GUID_DEVCLASS_CDROM        0000000180040470     uuid:cguid_i.obj
 0002:00002480       GUID_DEVCLASS_COMPUTER     0000000180040480     uuid:cguid_i.obj
 0002:00002490       GUID_DEVCLASS_DECODER      0000000180040490     uuid:cguid_i.obj
 0002:000024a0       GUID_DEVCLASS_DISKDRIVE    00000001800404a0     uuid:cguid_i.obj
 0002:000024b0       GUID_DEVCLASS_DISPLAY      00000001800404b0     uuid:cguid_i.obj
 0002:000024c0       GUID_DEVCLASS_DOT4         00000001800404c0     uuid:cguid_i.obj
 0002:000024d0       GUID_DEVCLASS_DOT4PRINT    00000001800404d0     uuid:cguid_i.obj
 0002:000024e0       GUID_DEVCLASS_ENUM1394     00000001800404e0     uuid:cguid_i.obj
 0002:000024f0       GUID_DEVCLASS_FDC          00000001800404f0     uuid:cguid_i.obj
 0002:00002500       GUID_DEVCLASS_FLOPPYDISK   0000000180040500     uuid:cguid_i.obj
 0002:00002510       GUID_DEVCLASS_GPS          0000000180040510     uuid:cguid_i.obj
 0002:00002520       GUID_DEVCLASS_HDC          0000000180040520     uuid:cguid_i.obj
 0002:00002530       GUID_DEVCLASS_HIDCLASS     0000000180040530     uuid:cguid_i.obj
 0002:00002540       GUID_DEVCLASS_IMAGE        0000000180040540     uuid:cguid_i.obj
 0002:00002550       GUID_DEVCLASS_INFINIBAND   0000000180040550     uuid:cguid_i.obj
 0002:00002560       GUID_DEVCLASS_INFRARED     0000000180040560     uuid:cguid_i.obj
 0002:00002570       GUID_DEVCLASS_KEYBOARD     0000000180040570     uuid:cguid_i.obj
 0002:00002580       GUID_DEVCLASS_LEGACYDRIVER 0000000180040580     uuid:cguid_i.obj
 0002:00002590       GUID_DEVCLASS_MEDIA        0000000180040590     uuid:cguid_i.obj
 0002:000025a0       GUID_DEVCLASS_MEDIUM_CHANGER 00000001800405a0     uuid:cguid_i.obj
 0002:000025b0       GUID_DEVCLASS_MODEM        00000001800405b0     uuid:cguid_i.obj
 0002:000025c0       GUID_DEVCLASS_MONITOR      00000001800405c0     uuid:cguid_i.obj
 0002:000025d0       GUID_DEVCLASS_MOUSE        00000001800405d0     uuid:cguid_i.obj
 0002:000025e0       GUID_DEVCLASS_MTD          00000001800405e0     uuid:cguid_i.obj
 0002:000025f0       GUID_DEVCLASS_MULTIFUNCTION 00000001800405f0     uuid:cguid_i.obj
 0002:00002600       GUID_DEVCLASS_MULTIPORTSERIAL 0000000180040600     uuid:cguid_i.obj
 0002:00002610       GUID_DEVCLASS_NET          0000000180040610     uuid:cguid_i.obj
 0002:00002620       GUID_DEVCLASS_NETCLIENT    0000000180040620     uuid:cguid_i.obj
 0002:00002630       GUID_DEVCLASS_NETSERVICE   0000000180040630     uuid:cguid_i.obj
 0002:00002640       GUID_DEVCLASS_NETTRANS     0000000180040640     uuid:cguid_i.obj
 0002:00002650       GUID_DEVCLASS_NODRIVER     0000000180040650     uuid:cguid_i.obj
 0002:00002660       GUID_DEVCLASS_PCMCIA       0000000180040660     uuid:cguid_i.obj
 0002:00002670       GUID_DEVCLASS_PNPPRINTERS  0000000180040670     uuid:cguid_i.obj
 0002:00002680       GUID_DEVCLASS_PORTS        0000000180040680     uuid:cguid_i.obj
 0002:00002690       GUID_DEVCLASS_PRINTER      0000000180040690     uuid:cguid_i.obj
 0002:000026a0       GUID_DEVCLASS_PRINTERUPGRADE 00000001800406a0     uuid:cguid_i.obj
 0002:000026b0       GUID_DEVCLASS_PROCESSOR    00000001800406b0     uuid:cguid_i.obj
 0002:000026c0       GUID_DEVCLASS_SBP2         00000001800406c0     uuid:cguid_i.obj
 0002:000026d0       GUID_DEVCLASS_SCSIADAPTER  00000001800406d0     uuid:cguid_i.obj
 0002:000026e0       GUID_DEVCLASS_SECURITYACCELERATOR 00000001800406e0     uuid:cguid_i.obj
 0002:000026f0       GUID_DEVCLASS_SENSOR       00000001800406f0     uuid:cguid_i.obj
 0002:00002700       GUID_DEVCLASS_SIDESHOW     0000000180040700     uuid:cguid_i.obj
 0002:00002710       GUID_DEVCLASS_SMARTCARDREADER 0000000180040710     uuid:cguid_i.obj
 0002:00002720       GUID_DEVCLASS_SOUND        0000000180040720     uuid:cguid_i.obj
 0002:00002730       GUID_DEVCLASS_SYSTEM       0000000180040730     uuid:cguid_i.obj
 0002:00002740       GUID_DEVCLASS_TAPEDRIVE    0000000180040740     uuid:cguid_i.obj
 0002:00002750       GUID_DEVCLASS_UNKNOWN      0000000180040750     uuid:cguid_i.obj
 0002:00002760       GUID_DEVCLASS_USB          0000000180040760     uuid:cguid_i.obj
 0002:00002770       GUID_DEVCLASS_VOLUME       0000000180040770     uuid:cguid_i.obj
 0002:00002780       GUID_DEVCLASS_VOLUMESNAPSHOT 0000000180040780     uuid:cguid_i.obj
 0002:00002790       GUID_DEVCLASS_WCEUSBS      0000000180040790     uuid:cguid_i.obj
 0002:000027a0       GUID_DEVCLASS_WPD          00000001800407a0     uuid:cguid_i.obj
 0002:000027b0       GUID_DEVCLASS_FSFILTER_ACTIVITYMONITOR 00000001800407b0     uuid:cguid_i.obj
 0002:000027c0       GUID_DEVCLASS_FSFILTER_UNDELETE 00000001800407c0     uuid:cguid_i.obj
 0002:000027d0       GUID_DEVCLASS_FSFILTER_ANTIVIRUS 00000001800407d0     uuid:cguid_i.obj
 0002:000027e0       GUID_DEVCLASS_FSFILTER_REPLICATION 00000001800407e0     uuid:cguid_i.obj
 0002:000027f0       GUID_DEVCLASS_FSFILTER_CONTINUOUSBACKUP 00000001800407f0     uuid:cguid_i.obj
 0002:00002800       GUID_DEVCLASS_FSFILTER_CONTENTSCREENER 0000000180040800     uuid:cguid_i.obj
 0002:00002810       GUID_DEVCLASS_FSFILTER_QUOTAMANAGEMENT 0000000180040810     uuid:cguid_i.obj
 0002:00002820       GUID_DEVCLASS_FSFILTER_SYSTEMRECOVERY 0000000180040820     uuid:cguid_i.obj
 0002:00002830       GUID_DEVCLASS_FSFILTER_CFSMETADATASERVER 0000000180040830     uuid:cguid_i.obj
 0002:00002840       GUID_DEVCLASS_FSFILTER_HSM 0000000180040840     uuid:cguid_i.obj
 0002:00002850       GUID_DEVCLASS_FSFILTER_COMPRESSION 0000000180040850     uuid:cguid_i.obj
 0002:00002860       GUID_DEVCLASS_FSFILTER_ENCRYPTION 0000000180040860     uuid:cguid_i.obj
 0002:00002870       GUID_DEVCLASS_FSFILTER_PHYSICALQUOTAMANAGEMENT 0000000180040870     uuid:cguid_i.obj
 0002:00002880       GUID_DEVCLASS_FSFILTER_OPENFILEBACKUP 0000000180040880     uuid:cguid_i.obj
 0002:00002890       GUID_DEVCLASS_FSFILTER_SECURITYENHANCER 0000000180040890     uuid:cguid_i.obj
 0002:000028a0       GUID_DEVCLASS_FSFILTER_COPYPROTECTION 00000001800408a0     uuid:cguid_i.obj
 0002:000028b0       GUID_DEVCLASS_FSFILTER_SYSTEM 00000001800408b0     uuid:cguid_i.obj
 0002:000028c0       GUID_DEVCLASS_FSFILTER_INFRASTRUCTURE 00000001800408c0     uuid:cguid_i.obj
 0002:000028d0       GUID_DEVINTERFACE_DISK     00000001800408d0     uuid:cguid_i.obj
 0002:000028e0       GUID_DEVINTERFACE_CDROM    00000001800408e0     uuid:cguid_i.obj
 0002:000028f0       GUID_DEVINTERFACE_PARTITION 00000001800408f0     uuid:cguid_i.obj
 0002:00002900       GUID_DEVINTERFACE_TAPE     0000000180040900     uuid:cguid_i.obj
 0002:00002910       GUID_DEVINTERFACE_WRITEONCEDISK 0000000180040910     uuid:cguid_i.obj
 0002:00002920       GUID_DEVINTERFACE_VOLUME   0000000180040920     uuid:cguid_i.obj
 0002:00002930       GUID_DEVINTERFACE_MEDIUMCHANGER 0000000180040930     uuid:cguid_i.obj
 0002:00002940       GUID_DEVINTERFACE_FLOPPY   0000000180040940     uuid:cguid_i.obj
 0002:00002950       GUID_DEVINTERFACE_CDCHANGER 0000000180040950     uuid:cguid_i.obj
 0002:00002960       GUID_DEVINTERFACE_STORAGEPORT 0000000180040960     uuid:cguid_i.obj
 0002:00002970       GUID_DEVINTERFACE_HIDDEN_VOLUME 0000000180040970     uuid:cguid_i.obj
 0002:00002980       GUID_DEVINTERFACE_COMPORT  0000000180040980     uuid:cguid_i.obj
 0002:00002990       GUID_DEVINTERFACE_SERENUM_BUS_ENUMERATOR 0000000180040990     uuid:cguid_i.obj
 0002:000029a0       GUID_ATLVer30              00000001800409a0     atls:atlbase.obj
 0002:000029b0       GUID_ATLVer70              00000001800409b0     atls:atlbase.obj
 0002:000029c0       GUID_ATLVer100             00000001800409c0     atls:atlbase.obj
 0002:000029d0       GUID_ATLVer110             00000001800409d0     atls:atlbase.obj
 0002:000029e0       ??_C@_1IC@ONKHOIDK@?$AAE?$AAR?$AAR?$AAO?$AAR?$AA?5?$AA?3?$AA?5?$AAU?$AAn?$AAa?$AAb?$AAl?$AAe?$AA?5?$AAt?$AAo?$AA?5?$AAi?$AAn?$AAi?$AAt?$AAi?$AAa?$AAl?$AAi?$AAz?$AAe?$AA?5?$AAc?$AAr?$AAi@ 00000001800409e0     atls:atlbase.obj
 0002:00002a64       ?VT@?$CVarTypeInfo@PEAPEAUIDispatch@@@ATL@@2GB 0000000180040a64     atls:stdafx.obj
 0002:00002a68       ?VT@?$CVarTypeInfo@TtagCY@@@ATL@@2GB 0000000180040a68     atls:stdafx.obj
 0002:00002a70       _GUID_00000000_0000_0000_c000_000000000046 0000000180040a70     atls:stdafx.obj
 0002:00002a80       ?VT@?$CVarTypeInfo@PEATtagCY@@@ATL@@2GB 0000000180040a80     atls:stdafx.obj
 0002:00002a88       _GUID_00020400_0000_0000_c000_000000000046 0000000180040a88     atls:stdafx.obj
 0002:00002a98       ?MAX_VALUE@CRegParser@ATL@@1HB 0000000180040a98     atls:stdafx.obj
 0002:00002aa0       _GUID_1cf2b120_547d_101b_8e65_08002b2bd119 0000000180040aa0     atls:stdafx.obj
 0002:00002ab0       ?MAX_TYPE@CRegParser@ATL@@1HB 0000000180040ab0     atls:stdafx.obj
 0002:00002ab4       ?_Min@?$AtlLimits@H@ATL@@2HB 0000000180040ab4     atls:stdafx.obj
 0002:00002ab8       ?_Max@?$AtlLimits@H@ATL@@2HB 0000000180040ab8     atls:stdafx.obj
 0002:00002abc       ?_Min@?$AtlLimits@I@ATL@@2IB 0000000180040abc     atls:stdafx.obj
 0002:00002ac0       ?_Max@?$AtlLimits@I@ATL@@2IB 0000000180040ac0     atls:stdafx.obj
 0002:00002ac4       ?_Min@?$AtlLimits@J@ATL@@2JB 0000000180040ac4     atls:stdafx.obj
 0002:00002ac8       ?_Max@?$AtlLimits@J@ATL@@2JB 0000000180040ac8     atls:stdafx.obj
 0002:00002acc       ?_Min@?$AtlLimits@K@ATL@@2KB 0000000180040acc     atls:stdafx.obj
 0002:00002ad0       ?_Max@?$AtlLimits@K@ATL@@2KB 0000000180040ad0     atls:stdafx.obj
 0002:00002ad8       ?_Min@?$AtlLimits@_J@ATL@@2_JB 0000000180040ad8     atls:stdafx.obj
 0002:00002ae0       ?_Max@?$AtlLimits@_J@ATL@@2_JB 0000000180040ae0     atls:stdafx.obj
 0002:00002ae8       ?_Min@?$AtlLimits@_K@ATL@@2_KB 0000000180040ae8     atls:stdafx.obj
 0002:00002af0       ?_Max@?$AtlLimits@_K@ATL@@2_KB 0000000180040af0     atls:stdafx.obj
 0002:00002af8       _GUID_0002e012_0000_0000_c000_000000000046 0000000180040af8     atls:stdafx.obj
 0002:00002b08       _GUID_a6bc3ac0_dbaa_11ce_9de3_00aa004bb851 0000000180040b08     atls:stdafx.obj
 0002:00002b18       _GUID_fc4801a3_2ba9_11cf_a229_00aa003d7352 0000000180040b18     atls:stdafx.obj
 0002:00002b28       ?VT@?$CVarTypeInfo@D@ATL@@2GB 0000000180040b28     atls:stdafx.obj
 0002:00002b30       _GUID_0000010c_0000_0000_c000_000000000046 0000000180040b30     atls:stdafx.obj
 0002:00002b40       ?VT@?$CVarTypeInfo@E@ATL@@2GB 0000000180040b40     atls:stdafx.obj
 0002:00002b44       ?VT@?$CVarTypeInfo@PEAD@ATL@@2GB 0000000180040b44     atls:stdafx.obj
 0002:00002b48       ?VT@?$CVarTypeInfo@PEAE@ATL@@2GB 0000000180040b48     atls:stdafx.obj
 0002:00002b50       _GUID_00000109_0000_0000_c000_000000000046 0000000180040b50     atls:stdafx.obj
 0002:00002b60       _GUID_7fd52380_4e07_101b_ae2d_08002b2ec713 0000000180040b60     atls:stdafx.obj
 0002:00002b70       ?VT@?$CVarTypeInfo@F@ATL@@2GB 0000000180040b70     atls:stdafx.obj
 0002:00002b74       ?VT@?$CVarTypeInfo@PEAF@ATL@@2GB 0000000180040b74     atls:stdafx.obj
 0002:00002b78       ?VT@?$CVarTypeInfo@G@ATL@@2GB 0000000180040b78     atls:stdafx.obj
 0002:00002b7c       ?VT@?$CVarTypeInfo@PEAG@ATL@@2GB 0000000180040b7c     atls:stdafx.obj
 0002:00002b80       ?VT@?$CVarTypeInfo@H@ATL@@2GB 0000000180040b80     atls:stdafx.obj
 0002:00002b84       ?VT@?$CVarTypeInfo@PEAH@ATL@@2GB 0000000180040b84     atls:stdafx.obj
 0002:00002b88       ?VT@?$CVarTypeInfo@I@ATL@@2GB 0000000180040b88     atls:stdafx.obj
 0002:00002b8c       ?VT@?$CVarTypeInfo@PEAI@ATL@@2GB 0000000180040b8c     atls:stdafx.obj
 0002:00002b90       ?VT@?$CVarTypeInfo@J@ATL@@2GB 0000000180040b90     atls:stdafx.obj
 0002:00002b94       ?VT@?$CVarTypeInfo@PEAJ@ATL@@2GB 0000000180040b94     atls:stdafx.obj
 0002:00002b98       ?VT@?$CVarTypeInfo@K@ATL@@2GB 0000000180040b98     atls:stdafx.obj
 0002:00002b9c       ?VT@?$CVarTypeInfo@PEAK@ATL@@2GB 0000000180040b9c     atls:stdafx.obj
 0002:00002ba0       ?VT@?$CVarTypeInfo@_J@ATL@@2GB 0000000180040ba0     atls:stdafx.obj
 0002:00002ba4       ?VT@?$CVarTypeInfo@PEA_J@ATL@@2GB 0000000180040ba4     atls:stdafx.obj
 0002:00002ba8       ?VT@?$CVarTypeInfo@_K@ATL@@2GB 0000000180040ba8     atls:stdafx.obj
 0002:00002bac       ?VT@?$CVarTypeInfo@PEA_K@ATL@@2GB 0000000180040bac     atls:stdafx.obj
 0002:00002bb0       ?VT@?$CVarTypeInfo@M@ATL@@2GB 0000000180040bb0     atls:stdafx.obj
 0002:00002bb8       _GUID_b196b284_bab4_101a_b69c_00aa00341d07 0000000180040bb8     atls:stdafx.obj
 0002:00002bc8       ?VT@?$CVarTypeInfo@PEAM@ATL@@2GB 0000000180040bc8     atls:stdafx.obj
 0002:00002bcc       ?VT@?$CVarTypeInfo@N@ATL@@2GB 0000000180040bcc     atls:stdafx.obj
 0002:00002bd0       ?VT@?$CVarTypeInfo@PEAN@ATL@@2GB 0000000180040bd0     atls:stdafx.obj
 0002:00002bd4       ?VT@?$CVarTypeInfo@PEAUtagVARIANT@@@ATL@@2GB 0000000180040bd4     atls:stdafx.obj
 0002:00002bd8       ?VT@?$CVarTypeInfo@PEA_W@ATL@@2GB 0000000180040bd8     atls:stdafx.obj
 0002:00002bdc       ?VT@?$CVarTypeInfo@PEAPEA_W@ATL@@2GB 0000000180040bdc     atls:stdafx.obj
 0002:00002be0       ?VT@?$CVarTypeInfo@PEAUIUnknown@@@ATL@@2GB 0000000180040be0     atls:stdafx.obj
 0002:00002be4       ?VT@?$CVarTypeInfo@PEAPEAUIUnknown@@@ATL@@2GB 0000000180040be4     atls:stdafx.obj
 0002:00002be8       ?VT@?$CVarTypeInfo@PEAUIDispatch@@@ATL@@2GB 0000000180040be8     atls:stdafx.obj
 0002:00002bf0       ??_C@_1BI@BGOHAHKC@?$AAm?$AAs?$AAc?$AAo?$AAr?$AAe?$AAe?$AA?4?$AAd?$AAl?$AAl?$AA?$AA@ 0000000180040bf0     LIBCMT:crt0dat.obj
 0002:00002c08       ??_C@_0P@MIGLKIOC@CorExitProcess?$AA@ 0000000180040c08     LIBCMT:crt0dat.obj
 0002:00002c60       ?ProcessDetach@NativeDll@<CrtImplementationDetails>@@0IB 0000000180040c60     LIBCMT:trnsctrl.obj
 0002:00002c64       ?ProcessAttach@NativeDll@<CrtImplementationDetails>@@0IB 0000000180040c64     LIBCMT:trnsctrl.obj
 0002:00002c68       ?ThreadAttach@NativeDll@<CrtImplementationDetails>@@0IB 0000000180040c68     LIBCMT:trnsctrl.obj
 0002:00002c6c       ?ThreadDetach@NativeDll@<CrtImplementationDetails>@@0IB 0000000180040c6c     LIBCMT:trnsctrl.obj
 0002:00002c70       ?ProcessVerifier@NativeDll@<CrtImplementationDetails>@@0IB 0000000180040c70     LIBCMT:trnsctrl.obj
 0002:00002d18       ?value@?$integral_constant@_N$0A@@std@@2_NB 0000000180040d18     LIBCMT:typinfo.obj
 0002:00002d19       ?value@?$integral_constant@_N$00@std@@2_NB 0000000180040d19     LIBCMT:typinfo.obj
 0002:00002d28       ??_7type_info@@6B@         0000000180040d28     LIBCMT:typinfo.obj
 0002:00002d38       ??_7bad_alloc@std@@6B@     0000000180040d38     LIBCMT:new.obj
 0002:00002d48       ??_C@_0P@GHFPNOJB@bad?5allocation?$AA@ 0000000180040d48     LIBCMT:new.obj
 0002:00002d58       ??_C@_1M@PBPMMENC@?$AAa?$AAm?$AA?1?$AAp?$AAm?$AA?$AA@ 0000000180040d58     LIBCMT:wcsftime.obj
 0002:00002d68       ??_C@_17BLFJJHMM@?$AAa?$AA?1?$AAp?$AA?$AA@ 0000000180040d68     LIBCMT:wcsftime.obj
 0002:00002d70       ??_C@_0N@PPOMPGGK@RoInitialize?$AA@ 0000000180040d70     LIBCMT:threadex.obj
 0002:00002d80       ??_C@_1BI@IDAOOPDH@?$AAc?$AAo?$AAm?$AAb?$AAa?$AAs?$AAe?$AA?4?$AAd?$AAl?$AAl?$AA?$AA@ 0000000180040d80     LIBCMT:threadex.obj
 0002:00002d98       ??_C@_0P@LLFHBIJD@RoUninitialize?$AA@ 0000000180040d98     LIBCMT:threadex.obj
 0002:00002da8       ??_C@_06MEIMCGCF@_hypot?$AA@ 0000000180040da8     LIBCMT:hypot.obj
 0002:00002db0       __real@7fefffffffffffff    0000000180040db0     LIBCMT:hypot.obj
 0002:00002db8       __real@a590000000000000    0000000180040db8     LIBCMT:hypot.obj
 0002:00002dc0       _FPinit                    0000000180040dc0     LIBCMT:fpinit.obj
 0002:00002dd8       _pRawDllMain               0000000180040dd8     LIBCMT:dllcrt0.obj
 0002:00002dd8       _pDefaultRawDllMain        0000000180040dd8     LIBCMT:dllcrt0.obj
 0002:00002de0       ??_C@_08KNHFBNJ@FlsAlloc?$AA@ 0000000180040de0     LIBCMT:winapisupp.obj
 0002:00002df0       ??_C@_07PEJMOBNF@FlsFree?$AA@ 0000000180040df0     LIBCMT:winapisupp.obj
 0002:00002df8       ??_C@_0M@GDNOONDI@FlsGetValue?$AA@ 0000000180040df8     LIBCMT:winapisupp.obj
 0002:00002e08       ??_C@_0M@JCPCPOEF@FlsSetValue?$AA@ 0000000180040e08     LIBCMT:winapisupp.obj
 0002:00002e18       ??_C@_0BM@HCFOFFN@InitializeCriticalSectionEx?$AA@ 0000000180040e18     LIBCMT:winapisupp.obj
 0002:00002e38       ??_C@_0P@DLHPPCNH@CreateEventExW?$AA@ 0000000180040e38     LIBCMT:winapisupp.obj
 0002:00002e48       ??_C@_0BD@KIEEOEEH@CreateSemaphoreExW?$AA@ 0000000180040e48     LIBCMT:winapisupp.obj
 0002:00002e60       ??_C@_0BI@BKLFFAPO@SetThreadStackGuarantee?$AA@ 0000000180040e60     LIBCMT:winapisupp.obj
 0002:00002e78       ??_C@_0BG@OGFAJCKC@CreateThreadpoolTimer?$AA@ 0000000180040e78     LIBCMT:winapisupp.obj
 0002:00002e90       ??_C@_0BD@LPLEMMDI@SetThreadpoolTimer?$AA@ 0000000180040e90     LIBCMT:winapisupp.obj
 0002:00002ea8       ??_C@_0CA@FMNJENH@WaitForThreadpoolTimerCallbacks?$AA@ 0000000180040ea8     LIBCMT:winapisupp.obj
 0002:00002ec8       ??_C@_0BF@DCFCCNOC@CloseThreadpoolTimer?$AA@ 0000000180040ec8     LIBCMT:winapisupp.obj
 0002:00002ee0       ??_C@_0BF@FLABGKKM@CreateThreadpoolWait?$AA@ 0000000180040ee0     LIBCMT:winapisupp.obj
 0002:00002ef8       ??_C@_0BC@MGCOHNA@SetThreadpoolWait?$AA@ 0000000180040ef8     LIBCMT:winapisupp.obj
 0002:00002f10       ??_C@_0BE@OCIOMIMP@CloseThreadpoolWait?$AA@ 0000000180040f10     LIBCMT:winapisupp.obj
 0002:00002f28       ??_C@_0BJ@LKGHFHBO@FlushProcessWriteBuffers?$AA@ 0000000180040f28     LIBCMT:winapisupp.obj
 0002:00002f48       ??_C@_0BP@KALKKPMO@FreeLibraryWhenCallbackReturns?$AA@ 0000000180040f48     LIBCMT:winapisupp.obj
 0002:00002f68       ??_C@_0BK@DFNBACLA@GetCurrentProcessorNumber?$AA@ 0000000180040f68     LIBCMT:winapisupp.obj
 0002:00002f88       ??_C@_0BP@KHGALBC@GetLogicalProcessorInformation?$AA@ 0000000180040f88     LIBCMT:winapisupp.obj
 0002:00002fa8       ??_C@_0BE@FKKLLFLM@CreateSymbolicLinkW?$AA@ 0000000180040fa8     LIBCMT:winapisupp.obj
 0002:00002fc0       ??_C@_0BJ@OHNKDLIJ@SetDefaultDllDirectories?$AA@ 0000000180040fc0     LIBCMT:winapisupp.obj
 0002:00002fe0       ??_C@_0BE@LJANKFHF@EnumSystemLocalesEx?$AA@ 0000000180040fe0     LIBCMT:winapisupp.obj
 0002:00002ff8       ??_C@_0BA@IHGNDAEB@CompareStringEx?$AA@ 0000000180040ff8     LIBCMT:winapisupp.obj
 0002:00003008       ??_C@_0BA@EPCJIIPD@GetDateFormatEx?$AA@ 0000000180041008     LIBCMT:winapisupp.obj
 0002:00003018       ??_C@_0BA@ONOKGCMP@GetLocaleInfoEx?$AA@ 0000000180041018     LIBCMT:winapisupp.obj
 0002:00003028       ??_C@_0BA@CIJJKCJJ@GetTimeFormatEx?$AA@ 0000000180041028     LIBCMT:winapisupp.obj
 0002:00003038       ??_C@_0BJ@PBCCBIPI@GetUserDefaultLocaleName?$AA@ 0000000180041038     LIBCMT:winapisupp.obj
 0002:00003058       ??_C@_0BC@CELBKLLA@IsValidLocaleName?$AA@ 0000000180041058     LIBCMT:winapisupp.obj
 0002:00003070       ??_C@_0O@KKBNKAPF@LCMapStringEx?$AA@ 0000000180041070     LIBCMT:winapisupp.obj
 0002:00003080       ??_C@_0BE@JOGNEJCI@GetCurrentPackageId?$AA@ 0000000180041080     LIBCMT:winapisupp.obj
 0002:00003098       ??_C@_0P@CDHHOHKP@GetTickCount64?$AA@ 0000000180041098     LIBCMT:winapisupp.obj
 0002:000030a8       ??_C@_0BO@KPCLFDJJ@GetFileInformationByHandleExW?$AA@ 00000001800410a8     LIBCMT:winapisupp.obj
 0002:000030c8       ??_C@_0BM@MHIDLABK@SetFileInformationByHandleW?$AA@ 00000001800410c8     LIBCMT:winapisupp.obj
 0002:00003260       ??_C@_1FK@PGACCAFB@?$AAR?$AA6?$AA0?$AA0?$AA2?$AA?$AN?$AA?6?$AA?9?$AA?5?$AAf?$AAl?$AAo?$AAa?$AAt?$AAi?$AAn?$AAg?$AA?5?$AAp?$AAo?$AAi?$AAn?$AAt?$AA?5?$AAs?$AAu?$AAp?$AAp?$AAo?$AAr?$AAt?$AA?5@ 0000000180041260     LIBCMT:crt0msg.obj
 0002:000032c0       ??_C@_1FE@LLNEDJMD@?$AAR?$AA6?$AA0?$AA0?$AA8?$AA?$AN?$AA?6?$AA?9?$AA?5?$AAn?$AAo?$AAt?$AA?5?$AAe?$AAn?$AAo?$AAu?$AAg?$AAh?$AA?5?$AAs?$AAp?$AAa?$AAc?$AAe?$AA?5?$AAf?$AAo?$AAr?$AA?5?$AAa?$AAr@ 00000001800412c0     LIBCMT:crt0msg.obj
 0002:00003320       ??_C@_1FI@HONFMGBI@?$AAR?$AA6?$AA0?$AA0?$AA9?$AA?$AN?$AA?6?$AA?9?$AA?5?$AAn?$AAo?$AAt?$AA?5?$AAe?$AAn?$AAo?$AAu?$AAg?$AAh?$AA?5?$AAs?$AAp?$AAa?$AAc?$AAe?$AA?5?$AAf?$AAo?$AAr?$AA?5?$AAe?$AAn@ 0000000180041320     LIBCMT:crt0msg.obj
 0002:00003380       ??_C@_1EG@BEHAGFJD@?$AAR?$AA6?$AA0?$AA1?$AA0?$AA?$AN?$AA?6?$AA?9?$AA?5?$AAa?$AAb?$AAo?$AAr?$AAt?$AA?$CI?$AA?$CJ?$AA?5?$AAh?$AAa?$AAs?$AA?5?$AAb?$AAe?$AAe?$AAn?$AA?5?$AAc?$AAa?$AAl?$AAl?$AAe?$AAd@ 0000000180041380     LIBCMT:crt0msg.obj
 0002:000033d0       ??_C@_1FI@LOGNIKDM@?$AAR?$AA6?$AA0?$AA1?$AA6?$AA?$AN?$AA?6?$AA?9?$AA?5?$AAn?$AAo?$AAt?$AA?5?$AAe?$AAn?$AAo?$AAu?$AAg?$AAh?$AA?5?$AAs?$AAp?$AAa?$AAc?$AAe?$AA?5?$AAf?$AAo?$AAr?$AA?5?$AAt?$AAh@ 00000001800413d0     LIBCMT:crt0msg.obj
 0002:00003430       ??_C@_1FK@BEOGODMC@?$AAR?$AA6?$AA0?$AA1?$AA7?$AA?$AN?$AA?6?$AA?9?$AA?5?$AAu?$AAn?$AAe?$AAx?$AAp?$AAe?$AAc?$AAt?$AAe?$AAd?$AA?5?$AAm?$AAu?$AAl?$AAt?$AAi?$AAt?$AAh?$AAr?$AAe?$AAa?$AAd?$AA?5@ 0000000180041430     LIBCMT:crt0msg.obj
 0002:00003490       ??_C@_1EC@JIBHAOPH@?$AAR?$AA6?$AA0?$AA1?$AA8?$AA?$AN?$AA?6?$AA?9?$AA?5?$AAu?$AAn?$AAe?$AAx?$AAp?$AAe?$AAc?$AAt?$AAe?$AAd?$AA?5?$AAh?$AAe?$AAa?$AAp?$AA?5?$AAe?$AAr?$AAr?$AAo?$AAr?$AA?$AN?$AA?6@ 0000000180041490     LIBCMT:crt0msg.obj
 0002:000034e0       ??_C@_1FC@ECHBIFBC@?$AAR?$AA6?$AA0?$AA1?$AA9?$AA?$AN?$AA?6?$AA?9?$AA?5?$AAu?$AAn?$AAa?$AAb?$AAl?$AAe?$AA?5?$AAt?$AAo?$AA?5?$AAo?$AAp?$AAe?$AAn?$AA?5?$AAc?$AAo?$AAn?$AAs?$AAo?$AAl?$AAe?$AA?5@ 00000001800414e0     LIBCMT:crt0msg.obj
 0002:00003540       ??_C@_1GK@FHCKBEFA@?$AAR?$AA6?$AA0?$AA2?$AA4?$AA?$AN?$AA?6?$AA?9?$AA?5?$AAn?$AAo?$AAt?$AA?5?$AAe?$AAn?$AAo?$AAu?$AAg?$AAh?$AA?5?$AAs?$AAp?$AAa?$AAc?$AAe?$AA?5?$AAf?$AAo?$AAr?$AA?5?$AA_?$AAo@ 0000000180041540     LIBCMT:crt0msg.obj
 0002:000035b0       ??_C@_1EM@MAADIHMB@?$AAR?$AA6?$AA0?$AA2?$AA5?$AA?$AN?$AA?6?$AA?9?$AA?5?$AAp?$AAu?$AAr?$AAe?$AA?5?$AAv?$AAi?$AAr?$AAt?$AAu?$AAa?$AAl?$AA?5?$AAf?$AAu?$AAn?$AAc?$AAt?$AAi?$AAo?$AAn?$AA?5?$AAc@ 00000001800415b0     LIBCMT:crt0msg.obj
 0002:00003600       ??_C@_1GK@MCAAGJMO@?$AAR?$AA6?$AA0?$AA2?$AA6?$AA?$AN?$AA?6?$AA?9?$AA?5?$AAn?$AAo?$AAt?$AA?5?$AAe?$AAn?$AAo?$AAu?$AAg?$AAh?$AA?5?$AAs?$AAp?$AAa?$AAc?$AAe?$AA?5?$AAf?$AAo?$AAr?$AA?5?$AAs?$AAt@ 0000000180041600     LIBCMT:crt0msg.obj
 0002:00003670       ??_C@_1GK@MFGOKLAG@?$AAR?$AA6?$AA0?$AA2?$AA7?$AA?$AN?$AA?6?$AA?9?$AA?5?$AAn?$AAo?$AAt?$AA?5?$AAe?$AAn?$AAo?$AAu?$AAg?$AAh?$AA?5?$AAs?$AAp?$AAa?$AAc?$AAe?$AA?5?$AAf?$AAo?$AAr?$AA?5?$AAl?$AAo@ 0000000180041670     LIBCMT:crt0msg.obj
 0002:000036e0       ??_C@_1EK@HHFLMAOL@?$AAR?$AA6?$AA0?$AA2?$AA8?$AA?$AN?$AA?6?$AA?9?$AA?5?$AAu?$AAn?$AAa?$AAb?$AAl?$AAe?$AA?5?$AAt?$AAo?$AA?5?$AAi?$AAn?$AAi?$AAt?$AAi?$AAa?$AAl?$AAi?$AAz?$AAe?$AA?5?$AAh?$AAe@ 00000001800416e0     LIBCMT:crt0msg.obj
 0002:00003730       ??_C@_1DO@BMFCDCD@?$AAR?$AA6?$AA0?$AA3?$AA0?$AA?$AN?$AA?6?$AA?9?$AA?5?$AAC?$AAR?$AAT?$AA?5?$AAn?$AAo?$AAt?$AA?5?$AAi?$AAn?$AAi?$AAt?$AAi?$AAa?$AAl?$AAi?$AAz?$AAe?$AAd?$AA?$AN?$AA?6?$AA?$AA@ 0000000180041730     LIBCMT:crt0msg.obj
 0002:00003770       ??_C@_1MG@ENCOOIDF@?$AAR?$AA6?$AA0?$AA3?$AA1?$AA?$AN?$AA?6?$AA?9?$AA?5?$AAA?$AAt?$AAt?$AAe?$AAm?$AAp?$AAt?$AA?5?$AAt?$AAo?$AA?5?$AAi?$AAn?$AAi?$AAt?$AAi?$AAa?$AAl?$AAi?$AAz?$AAe?$AA?5?$AAt@ 0000000180041770     LIBCMT:crt0msg.obj
 0002:00003840       ??_C@_1GG@GOPILAJP@?$AAR?$AA6?$AA0?$AA3?$AA2?$AA?$AN?$AA?6?$AA?9?$AA?5?$AAn?$AAo?$AAt?$AA?5?$AAe?$AAn?$AAo?$AAu?$AAg?$AAh?$AA?5?$AAs?$AAp?$AAa?$AAc?$AAe?$AA?5?$AAf?$AAo?$AAr?$AA?5?$AAl?$AAo@ 0000000180041840     LIBCMT:crt0msg.obj
 0002:000038b0       ??_C@_1BOO@KGEDBGAJ@?$AAR?$AA6?$AA0?$AA3?$AA3?$AA?$AN?$AA?6?$AA?9?$AA?5?$AAA?$AAt?$AAt?$AAe?$AAm?$AAp?$AAt?$AA?5?$AAt?$AAo?$AA?5?$AAu?$AAs?$AAe?$AA?5?$AAM?$AAS?$AAI?$AAL?$AA?5?$AAc?$AAo?$AAd@ 00000001800418b0     LIBCMT:crt0msg.obj
 0002:00003aa0       ??_C@_1GG@MKFPEKFO@?$AAR?$AA6?$AA0?$AA3?$AA4?$AA?$AN?$AA?6?$AA?9?$AA?5?$AAi?$AAn?$AAc?$AAo?$AAn?$AAs?$AAi?$AAs?$AAt?$AAe?$AAn?$AAt?$AA?5?$AAo?$AAn?$AAe?$AAx?$AAi?$AAt?$AA?5?$AAb?$AAe?$AAg@ 0000000180041aa0     LIBCMT:crt0msg.obj
 0002:00003b08       ??_C@_1BO@BFCDCGC@?$AAD?$AAO?$AAM?$AAA?$AAI?$AAN?$AA?5?$AAe?$AAr?$AAr?$AAo?$AAr?$AA?$AN?$AA?6?$AA?$AA@ 0000000180041b08     LIBCMT:crt0msg.obj
 0002:00003b28       ??_C@_1BK@KMOMNAAI@?$AAS?$AAI?$AAN?$AAG?$AA?5?$AAe?$AAr?$AAr?$AAo?$AAr?$AA?$AN?$AA?6?$AA?$AA@ 0000000180041b28     LIBCMT:crt0msg.obj
 0002:00003b48       ??_C@_1BM@JBBEPPHI@?$AAT?$AAL?$AAO?$AAS?$AAS?$AA?5?$AAe?$AAr?$AAr?$AAo?$AAr?$AA?$AN?$AA?6?$AA?$AA@ 0000000180041b48     LIBCMT:crt0msg.obj
 0002:00003b64       ??_C@_15JNBOKNOG@?$AA?$AN?$AA?6?$AA?$AA@ 0000000180041b64     LIBCMT:crt0msg.obj
 0002:00003b70       ??_C@_1BO@BKOMIGKJ@?$AAr?$AAu?$AAn?$AAt?$AAi?$AAm?$AAe?$AA?5?$AAe?$AAr?$AAr?$AAo?$AAr?$AA?5?$AA?$AA@ 0000000180041b70     LIBCMT:crt0msg.obj
 0002:00003b90       ??_C@_1DE@JNGNBFGO@?$AAR?$AAu?$AAn?$AAt?$AAi?$AAm?$AAe?$AA?5?$AAE?$AAr?$AAr?$AAo?$AAr?$AA?$CB?$AA?6?$AA?6?$AAP?$AAr?$AAo?$AAg?$AAr?$AAa?$AAm?$AA?3?$AA?5?$AA?$AA@ 0000000180041b90     LIBCMT:crt0msg.obj
 0002:00003bc8       ??_C@_1CO@EAEJAADC@?$AA?$DM?$AAp?$AAr?$AAo?$AAg?$AAr?$AAa?$AAm?$AA?5?$AAn?$AAa?$AAm?$AAe?$AA?5?$AAu?$AAn?$AAk?$AAn?$AAo?$AAw?$AAn?$AA?$DO?$AA?$AA@ 0000000180041bc8     LIBCMT:crt0msg.obj
 0002:00003bf8       ??_C@_17LGKOMLJ@?$AA?4?$AA?4?$AA?4?$AA?$AA@ 0000000180041bf8     LIBCMT:crt0msg.obj
 0002:00003c00       ??_C@_15IABLJNFO@?$AA?6?$AA?6?$AA?$AA@ 0000000180041c00     LIBCMT:crt0msg.obj
 0002:00003c10       ??_C@_1EK@MBDPDCGA@?$AAM?$AAi?$AAc?$AAr?$AAo?$AAs?$AAo?$AAf?$AAt?$AA?5?$AAV?$AAi?$AAs?$AAu?$AAa?$AAl?$AA?5?$AAC?$AA?$CL?$AA?$CL?$AA?5?$AAR?$AAu?$AAn?$AAt?$AAi?$AAm?$AAe?$AA?5?$AAL?$AAi?$AAb@ 0000000180041c10     LIBCMT:crt0msg.obj
 0002:00003c60       ??_C@_1BK@GAEMIDIL@?$AAA?$AAD?$AAV?$AAA?$AAP?$AAI?$AA3?$AA2?$AA?4?$AAD?$AAL?$AAL?$AA?$AA@ 0000000180041c60     LIBCMT:rand_s.obj
 0002:00003c80       ??_C@_0BC@JEAENNKH@SystemFunction036?$AA@ 0000000180041c80     LIBCMT:rand_s.obj
 0002:00003cb8       ??_C@_1M@HPNHIDJI@?$AAj?$AAa?$AA?9?$AAJ?$AAP?$AA?$AA@ 0000000180041cb8     LIBCMT:mbctype.obj
 0002:00003cc8       ??_C@_1M@BIBDDEMK@?$AAz?$AAh?$AA?9?$AAC?$AAN?$AA?$AA@ 0000000180041cc8     LIBCMT:mbctype.obj
 0002:00003cd8       ??_C@_1M@JLOOOEGK@?$AAk?$AAo?$AA?9?$AAK?$AAR?$AA?$AA@ 0000000180041cd8     LIBCMT:mbctype.obj
 0002:00003ce8       ??_C@_1M@CLNBBOPM@?$AAz?$AAh?$AA?9?$AAT?$AAW?$AA?$AA@ 0000000180041ce8     LIBCMT:mbctype.obj
 0002:00003cf8       _pDestructExceptionObject  0000000180041cf8     LIBCMT:frame.obj
 0002:00003d08       ??_7bad_exception@std@@6B@ 0000000180041d08     LIBCMT:frame.obj
 0002:00003d18       ??_C@_0O@DPKOEFFH@bad?5exception?$AA@ 0000000180041d18     LIBCMT:frame.obj
 0002:00003d30       ??_7exception@std@@6B@     0000000180041d30     LIBCMT:stdexcpt.obj
 0002:00003d40       ??_C@_0BC@EOODALEL@Unknown?5exception?$AA@ 0000000180041d40     LIBCMT:stdexcpt.obj
 0002:00003d60       ??_7bad_cast@std@@6B@      0000000180041d60     LIBCMT:stdexcpt.obj
 0002:00003d78       ??_7bad_typeid@std@@6B@    0000000180041d78     LIBCMT:stdexcpt.obj
 0002:00003d90       ??_7__non_rtti_object@std@@6B@ 0000000180041d90     LIBCMT:stdexcpt.obj
 0002:00003da0       ??_C@_03KOEHGMDN@Sun?$AA@  0000000180041da0     LIBCMT:nlsdata.obj
 0002:00003da4       ??_C@_03PDAGKDH@Mon?$AA@   0000000180041da4     LIBCMT:nlsdata.obj
 0002:00003da8       ??_C@_03NAGEINEP@Tue?$AA@  0000000180041da8     LIBCMT:nlsdata.obj
 0002:00003dac       ??_C@_03MHOMLAJA@Wed?$AA@  0000000180041dac     LIBCMT:nlsdata.obj
 0002:00003db0       ??_C@_03IOFIKPDN@Thu?$AA@  0000000180041db0     LIBCMT:nlsdata.obj
 0002:00003db4       ??_C@_03IDIOELNC@Fri?$AA@  0000000180041db4     LIBCMT:nlsdata.obj
 0002:00003db8       ??_C@_03FEFJNEK@Sat?$AA@   0000000180041db8     LIBCMT:nlsdata.obj
 0002:00003dbc       ??_C@_06OOPIFAJ@Sunday?$AA@ 0000000180041dbc     LIBCMT:nlsdata.obj
 0002:00003dc4       ??_C@_06JLEDEDGH@Monday?$AA@ 0000000180041dc4     LIBCMT:nlsdata.obj
 0002:00003dd0       ??_C@_07BAAGCFCM@Tuesday?$AA@ 0000000180041dd0     LIBCMT:nlsdata.obj
 0002:00003dd8       ??_C@_09DLIGFAKA@Wednesday?$AA@ 0000000180041dd8     LIBCMT:nlsdata.obj
 0002:00003de8       ??_C@_08HACCIKIA@Thursday?$AA@ 0000000180041de8     LIBCMT:nlsdata.obj
 0002:00003df4       ??_C@_06JECMNKMI@Friday?$AA@ 0000000180041df4     LIBCMT:nlsdata.obj
 0002:00003e00       ??_C@_08INBOOONO@Saturday?$AA@ 0000000180041e00     LIBCMT:nlsdata.obj
 0002:00003e0c       ??_C@_03JIHJHPIE@Jan?$AA@  0000000180041e0c     LIBCMT:nlsdata.obj
 0002:00003e10       ??_C@_03HJBDCHOM@Feb?$AA@  0000000180041e10     LIBCMT:nlsdata.obj
 0002:00003e14       ??_C@_03ODNJBKGA@Mar?$AA@  0000000180041e14     LIBCMT:nlsdata.obj
 0002:00003e18       ??_C@_03LEOLGMJP@Apr?$AA@  0000000180041e18     LIBCMT:nlsdata.obj
 0002:00003e1c       ??_C@_03CNMDKL@May?$AA@    0000000180041e1c     LIBCMT:nlsdata.obj
 0002:00003e20       ??_C@_03IDFGHECI@Jun?$AA@  0000000180041e20     LIBCMT:nlsdata.obj
 0002:00003e24       ??_C@_03LBGABGKK@Jul?$AA@  0000000180041e24     LIBCMT:nlsdata.obj
 0002:00003e28       ??_C@_03IFJFEIGA@Aug?$AA@  0000000180041e28     LIBCMT:nlsdata.obj
 0002:00003e2c       ??_C@_03GGCAPAJC@Sep?$AA@  0000000180041e2c     LIBCMT:nlsdata.obj
 0002:00003e30       ??_C@_03BMAOKBAD@Oct?$AA@  0000000180041e30     LIBCMT:nlsdata.obj
 0002:00003e34       ??_C@_03JPJOFNIA@Nov?$AA@  0000000180041e34     LIBCMT:nlsdata.obj
 0002:00003e38       ??_C@_03MKABNOCG@Dec?$AA@  0000000180041e38     LIBCMT:nlsdata.obj
 0002:00003e40       ??_C@_07CGJPFGJA@January?$AA@ 0000000180041e40     LIBCMT:nlsdata.obj
 0002:00003e48       ??_C@_08GNJGEPFN@February?$AA@ 0000000180041e48     LIBCMT:nlsdata.obj
 0002:00003e54       ??_C@_05HPCKOFNC@March?$AA@ 0000000180041e54     LIBCMT:nlsdata.obj
 0002:00003e5c       ??_C@_05DMJDNLEJ@April?$AA@ 0000000180041e5c     LIBCMT:nlsdata.obj
 0002:00003e64       ??_C@_04CNLMGBGM@June?$AA@ 0000000180041e64     LIBCMT:nlsdata.obj
 0002:00003e6c       ??_C@_04MIEPOIFP@July?$AA@ 0000000180041e6c     LIBCMT:nlsdata.obj
 0002:00003e74       ??_C@_06LBBHFDDG@August?$AA@ 0000000180041e74     LIBCMT:nlsdata.obj
 0002:00003e80       ??_C@_09BHHEALKD@September?$AA@ 0000000180041e80     LIBCMT:nlsdata.obj
 0002:00003e90       ??_C@_07JJNFCEND@October?$AA@ 0000000180041e90     LIBCMT:nlsdata.obj
 0002:00003e98       ??_C@_08HCHEGEOA@November?$AA@ 0000000180041e98     LIBCMT:nlsdata.obj
 0002:00003ea8       ??_C@_08EDHMEBNP@December?$AA@ 0000000180041ea8     LIBCMT:nlsdata.obj
 0002:00003eb4       ??_C@_02DEDBPAFC@AM?$AA@   0000000180041eb4     LIBCMT:nlsdata.obj
 0002:00003eb8       ??_C@_02CJNFDJBF@PM?$AA@   0000000180041eb8     LIBCMT:nlsdata.obj
 0002:00003ec0       ??_C@_08BPBNCDIB@MM?1dd?1yy?$AA@ 0000000180041ec0     LIBCMT:nlsdata.obj
 0002:00003ed0       ??_C@_0BE@CKGJFCPC@dddd?0?5MMMM?5dd?0?5yyyy?$AA@ 0000000180041ed0     LIBCMT:nlsdata.obj
 0002:00003ee8       ??_C@_08JCCMCCIL@HH?3mm?3ss?$AA@ 0000000180041ee8     LIBCMT:nlsdata.obj
 0002:00003ef8       ??_C@_17MBGCMIPB@?$AAS?$AAu?$AAn?$AA?$AA@ 0000000180041ef8     LIBCMT:nlsdata.obj
 0002:00003f00       ??_C@_17KBOMKBF@?$AAM?$AAo?$AAn?$AA?$AA@ 0000000180041f00     LIBCMT:nlsdata.obj
 0002:00003f08       ??_C@_17BMKGEGOJ@?$AAT?$AAu?$AAe?$AA?$AA@ 0000000180041f08     LIBCMT:nlsdata.obj
 0002:00003f10       ??_C@_17CJEDCEPE@?$AAW?$AAe?$AAd?$AA?$AA@ 0000000180041f10     LIBCMT:nlsdata.obj
 0002:00003f18       ??_C@_17PDPHAADD@?$AAT?$AAh?$AAu?$AA?$AA@ 0000000180041f18     LIBCMT:nlsdata.obj
 0002:00003f20       ??_C@_17HFOLPPLP@?$AAF?$AAr?$AAi?$AA?$AA@ 0000000180041f20     LIBCMT:nlsdata.obj
 0002:00003f28       ??_C@_17GGIBDPIH@?$AAS?$AAa?$AAt?$AA?$AA@ 0000000180041f28     LIBCMT:nlsdata.obj
 0002:00003f30       ??_C@_1O@IHNHDHPB@?$AAS?$AAu?$AAn?$AAd?$AAa?$AAy?$AA?$AA@ 0000000180041f30     LIBCMT:nlsdata.obj
 0002:00003f40       ??_C@_1O@MMNBFLIA@?$AAM?$AAo?$AAn?$AAd?$AAa?$AAy?$AA?$AA@ 0000000180041f40     LIBCMT:nlsdata.obj
 0002:00003f50       ??_C@_1BA@ENFBFFEK@?$AAT?$AAu?$AAe?$AAs?$AAd?$AAa?$AAy?$AA?$AA@ 0000000180041f50     LIBCMT:nlsdata.obj
 0002:00003f60       ??_C@_1BE@EBOGMDOH@?$AAW?$AAe?$AAd?$AAn?$AAe?$AAs?$AAd?$AAa?$AAy?$AA?$AA@ 0000000180041f60     LIBCMT:nlsdata.obj
 0002:00003f78       ??_C@_1BC@HHMNLIHE@?$AAT?$AAh?$AAu?$AAr?$AAs?$AAd?$AAa?$AAy?$AA?$AA@ 0000000180041f78     LIBCMT:nlsdata.obj
 0002:00003f90       ??_C@_1O@PDICJHAG@?$AAF?$AAr?$AAi?$AAd?$AAa?$AAy?$AA?$AA@ 0000000180041f90     LIBCMT:nlsdata.obj
 0002:00003fa0       ??_C@_1BC@ENMNNPAJ@?$AAS?$AAa?$AAt?$AAu?$AAr?$AAd?$AAa?$AAy?$AA?$AA@ 0000000180041fa0     LIBCMT:nlsdata.obj
 0002:00003fb8       ??_C@_17DKNBKCHM@?$AAJ?$AAa?$AAn?$AA?$AA@ 0000000180041fb8     LIBCMT:nlsdata.obj
 0002:00003fc0       ??_C@_17LMDJEKJN@?$AAF?$AAe?$AAb?$AA?$AA@ 0000000180041fc0     LIBCMT:nlsdata.obj
 0002:00003fc8       ??_C@_17CKNLEDEC@?$AAM?$AAa?$AAr?$AA?$AA@ 0000000180041fc8     LIBCMT:nlsdata.obj
 0002:00003fd0       ??_C@_17LFPOIHDD@?$AAA?$AAp?$AAr?$AA?$AA@ 0000000180041fd0     LIBCMT:nlsdata.obj
 0002:00003fd8       ??_C@_17PNNKMEED@?$AAM?$AAa?$AAy?$AA?$AA@ 0000000180041fd8     LIBCMT:nlsdata.obj
 0002:00003fe0       ??_C@_17KCJGOCPB@?$AAJ?$AAu?$AAn?$AA?$AA@ 0000000180041fe0     LIBCMT:nlsdata.obj
 0002:00003fe8       ??_C@_17IJPCKHK@?$AAJ?$AAu?$AAl?$AA?$AA@ 0000000180041fe8     LIBCMT:nlsdata.obj
 0002:00003ff0       ??_C@_17ICPELBCN@?$AAA?$AAu?$AAg?$AA?$AA@ 0000000180041ff0     LIBCMT:nlsdata.obj
 0002:00003ff8       ??_C@_17HCHCOKMG@?$AAS?$AAe?$AAp?$AA?$AA@ 0000000180041ff8     LIBCMT:nlsdata.obj
 0002:00004000       ??_C@_17FNLKOI@?$AAO?$AAc?$AAt?$AA?$AA@ 0000000180042000     LIBCMT:nlsdata.obj
 0002:00004008       ??_C@_17BBDMLCIG@?$AAN?$AAo?$AAv?$AA?$AA@ 0000000180042008     LIBCMT:nlsdata.obj
 0002:00004010       ??_C@_17EGKACKIF@?$AAD?$AAe?$AAc?$AA?$AA@ 0000000180042010     LIBCMT:nlsdata.obj
 0002:00004018       ??_C@_1BA@EFMEIEBA@?$AAJ?$AAa?$AAn?$AAu?$AAa?$AAr?$AAy?$AA?$AA@ 0000000180042018     LIBCMT:nlsdata.obj
 0002:00004028       ??_C@_1BC@JGDDFFAM@?$AAF?$AAe?$AAb?$AAr?$AAu?$AAa?$AAr?$AAy?$AA?$AA@ 0000000180042028     LIBCMT:nlsdata.obj
 0002:00004040       ??_C@_1M@IKEENEDF@?$AAM?$AAa?$AAr?$AAc?$AAh?$AA?$AA@ 0000000180042040     LIBCMT:nlsdata.obj
 0002:00004050       ??_C@_1M@GJNLMHFD@?$AAA?$AAp?$AAr?$AAi?$AAl?$AA?$AA@ 0000000180042050     LIBCMT:nlsdata.obj
 0002:00004060       ??_C@_19EPFLPGAP@?$AAJ?$AAu?$AAn?$AAe?$AA?$AA@ 0000000180042060     LIBCMT:nlsdata.obj
 0002:00004070       ??_C@_19BIFMLPCD@?$AAJ?$AAu?$AAl?$AAy?$AA?$AA@ 0000000180042070     LIBCMT:nlsdata.obj
 0002:00004080       ??_C@_1O@PAHLKOAC@?$AAA?$AAu?$AAg?$AAu?$AAs?$AAt?$AA?$AA@ 0000000180042080     LIBCMT:nlsdata.obj
 0002:00004090       ??_C@_1BE@DKAAMBJL@?$AAS?$AAe?$AAp?$AAt?$AAe?$AAm?$AAb?$AAe?$AAr?$AA?$AA@ 0000000180042090     LIBCMT:nlsdata.obj
 0002:000040a8       ??_C@_1BA@EPANDLNG@?$AAO?$AAc?$AAt?$AAo?$AAb?$AAe?$AAr?$AA?$AA@ 00000001800420a8     LIBCMT:nlsdata.obj
 0002:000040b8       ??_C@_1BC@BGLIFPF@?$AAN?$AAo?$AAv?$AAe?$AAm?$AAb?$AAe?$AAr?$AA?$AA@ 00000001800420b8     LIBCMT:nlsdata.obj
 0002:000040d0       ??_C@_1BC@FEMKIFH@?$AAD?$AAe?$AAc?$AAe?$AAm?$AAb?$AAe?$AAr?$AA?$AA@ 00000001800420d0     LIBCMT:nlsdata.obj
 0002:000040e4       ??_C@_15ODEHAHHF@?$AAA?$AAM?$AA?$AA@ 00000001800420e4     LIBCMT:nlsdata.obj
 0002:000040ec       ??_C@_15CLMNNGEL@?$AAP?$AAM?$AA?$AA@ 00000001800420ec     LIBCMT:nlsdata.obj
 0002:000040f8       ??_C@_1BC@IEBCMHCM@?$AAM?$AAM?$AA?1?$AAd?$AAd?$AA?1?$AAy?$AAy?$AA?$AA@ 00000001800420f8     LIBCMT:nlsdata.obj
 0002:00004110       ??_C@_1CI@KNAKOEBC@?$AAd?$AAd?$AAd?$AAd?$AA?0?$AA?5?$AAM?$AAM?$AAM?$AAM?$AA?5?$AAd?$AAd?$AA?0?$AA?5?$AAy?$AAy?$AAy?$AAy?$AA?$AA@ 0000000180042110     LIBCMT:nlsdata.obj
 0002:00004138       ??_C@_1BC@GDGBMEMK@?$AAH?$AAH?$AA?3?$AAm?$AAm?$AA?3?$AAs?$AAs?$AA?$AA@ 0000000180042138     LIBCMT:nlsdata.obj
 0002:00004150       ??_C@_1M@BMHNFIME@?$AAe?$AAn?$AA?9?$AAU?$AAS?$AA?$AA@ 0000000180042150     LIBCMT:nlsdata.obj
 0002:000041a0       ??_C@_02CLFPBFFP@TZ?$AA@   00000001800421a0     LIBCMT:tzset.obj
 0002:000041a8       __dnames                   00000001800421a8     LIBCMT:timeset.obj
 0002:000041c0       __mnames                   00000001800421c0     LIBCMT:timeset.obj
 0002:000041f0       LcidToLocaleNameTable      00000001800421f0     LIBCMT:winapinls.obj
 0002:00005030       LocaleNameToIndexTable     0000000180043030     LIBCMT:winapinls.obj
 0002:00005e70       ??_C@_15EMKDOKLE@?$AAa?$AAr?$AA?$AA@ 0000000180043e70     LIBCMT:winapinls.obj
 0002:00005e78       ??_C@_15KNPADPLH@?$AAb?$AAg?$AA?$AA@ 0000000180043e78     LIBCMT:winapinls.obj
 0002:00005e80       ??_C@_15EDMHLDMO@?$AAc?$AAa?$AA?$AA@ 0000000180043e80     LIBCMT:winapinls.obj
 0002:00005e88       ??_C@_1O@BPEAJADD@?$AAz?$AAh?$AA?9?$AAC?$AAH?$AAS?$AA?$AA@ 0000000180043e88     LIBCMT:winapinls.obj
 0002:00005e98       ??_C@_15LJNHCMNK@?$AAc?$AAs?$AA?$AA@ 0000000180043e98     LIBCMT:winapinls.obj
 0002:00005ea0       ??_C@_15FOMCIDHG@?$AAd?$AAa?$AA?$AA@ 0000000180043ea0     LIBCMT:winapinls.obj
 0002:00005ea8       ??_C@_15NBKABECB@?$AAd?$AAe?$AA?$AA@ 0000000180043ea8     LIBCMT:winapinls.obj
 0002:00005eb0       ??_C@_15GHPEIIAO@?$AAe?$AAl?$AA?$AA@ 0000000180043eb0     LIBCMT:winapinls.obj
 0002:00005eb8       ??_C@_15MNPNEAIF@?$AAe?$AAn?$AA?$AA@ 0000000180043eb8     LIBCMT:winapinls.obj
 0002:00005ec0       ??_C@_15GPIOMPMH@?$AAe?$AAs?$AA?$AA@ 0000000180043ec0     LIBCMT:winapinls.obj
 0002:00005ec8       ??_C@_15NGLOAKJC@?$AAf?$AAi?$AA?$AA@ 0000000180043ec8     LIBCMT:winapinls.obj
 0002:00005ed0       ??_C@_15FBKGNKAM@?$AAf?$AAr?$AA?$AA@ 0000000180043ed0     LIBCMT:winapinls.obj
 0002:00005ed8       ??_C@_15KGGCNEFK@?$AAh?$AAe?$AA?$AA@ 0000000180043ed8     LIBCMT:winapinls.obj
 0002:00005ee0       ??_C@_15PGHLIDMF@?$AAh?$AAu?$AA?$AA@ 0000000180043ee0     LIBCMT:winapinls.obj
 0002:00005ee8       ??_C@_15BIEMAPLM@?$AAi?$AAs?$AA?$AA@ 0000000180043ee8     LIBCMT:winapinls.obj
 0002:00005ef0       ??_C@_15IFJLDHAF@?$AAi?$AAt?$AA?$AA@ 0000000180043ef0     LIBCMT:winapinls.obj
 0002:00005ef8       ??_C@_15GEMIOCAG@?$AAj?$AAa?$AA?$AA@ 0000000180043ef8     LIBCMT:winapinls.obj
 0002:00005f00       ??_C@_15EPELEGJA@?$AAk?$AAo?$AA?$AA@ 0000000180043f00     LIBCMT:winapinls.obj
 0002:00005f08       ??_C@_15NDDHIMN@?$AAn?$AAl?$AA?$AA@ 0000000180043f08     LIBCMT:winapinls.obj
 0002:00005f10       ??_C@_15BPIGNHCD@?$AAn?$AAo?$AA?$AA@ 0000000180043f10     LIBCMT:winapinls.obj
 0002:00005f18       ??_C@_15DEOPBLCG@?$AAp?$AAl?$AA?$AA@ 0000000180043f18     LIBCMT:winapinls.obj
 0002:00005f20       ??_C@_15KBECGEFG@?$AAp?$AAt?$AA?$AA@ 0000000180043f20     LIBCMT:winapinls.obj
 0002:00005f28       ??_C@_15GLJCBFMD@?$AAr?$AAo?$AA?$AA@ 0000000180043f28     LIBCMT:winapinls.obj
 0002:00005f30       ??_C@_15FEDGKCDI@?$AAr?$AAu?$AA?$AA@ 0000000180043f30     LIBCMT:winapinls.obj
 0002:00005f38       ??_C@_15GLKMLLHM@?$AAh?$AAr?$AA?$AA@ 0000000180043f38     LIBCMT:winapinls.obj
 0002:00005f40       ??_C@_15CPKMFBDB@?$AAs?$AAk?$AA?$AA@ 0000000180043f40     LIBCMT:winapinls.obj
 0002:00005f48       ??_C@_15BAAIOGMK@?$AAs?$AAq?$AA?$AA@ 0000000180043f48     LIBCMT:winapinls.obj
 0002:00005f50       ??_C@_15INNPNOHD@?$AAs?$AAv?$AA?$AA@ 0000000180043f50     LIBCMT:winapinls.obj
 0002:00005f58       ??_C@_15CABMMOGH@?$AAt?$AAh?$AA?$AA@ 0000000180043f58     LIBCMT:winapinls.obj
 0002:00005f60       ??_C@_15BPLIHJJM@?$AAt?$AAr?$AA?$AA@ 0000000180043f60     LIBCMT:winapinls.obj
 0002:00005f68       ??_C@_15NEOEKKDJ@?$AAu?$AAr?$AA?$AA@ 0000000180043f68     LIBCMT:winapinls.obj
 0002:00005f70       ??_C@_15NFICGAJK@?$AAi?$AAd?$AA?$AA@ 0000000180043f70     LIBCMT:winapinls.obj
 0002:00005f78       ??_C@_15PJPFLCCM@?$AAu?$AAk?$AA?$AA@ 0000000180043f78     LIBCMT:winapinls.obj
 0002:00005f80       ??_C@_15HPJPHDM@?$AAb?$AAe?$AA?$AA@ 0000000180043f80     LIBCMT:winapinls.obj
 0002:00005f88       ??_C@_15LCHLGJII@?$AAs?$AAl?$AA?$AA@ 0000000180043f88     LIBCMT:winapinls.obj
 0002:00005f90       ??_C@_15PCFJPHHO@?$AAe?$AAt?$AA?$AA@ 0000000180043f90     LIBCMT:winapinls.obj
 0002:00005f98       ??_C@_15HPFPGODN@?$AAl?$AAv?$AA?$AA@ 0000000180043f98     LIBCMT:winapinls.obj
 0002:00005fa0       ??_C@_15NFFGKGLG@?$AAl?$AAt?$AA?$AA@ 0000000180043fa0     LIBCMT:winapinls.obj
 0002:00005fa8       ??_C@_15BDAKCCHN@?$AAf?$AAa?$AA?$AA@ 0000000180043fa8     LIBCMT:winapinls.obj
 0002:00005fb0       ??_C@_15NFGIAIAJ@?$AAv?$AAi?$AA?$AA@ 0000000180043fb0     LIBCMT:winapinls.obj
 0002:00005fb8       ??_C@_15LMKNDMHN@?$AAh?$AAy?$AA?$AA@ 0000000180043fb8     LIBCMT:winapinls.obj
 0002:00005fc0       ??_C@_15IJBHMCFL@?$AAa?$AAz?$AA?$AA@ 0000000180043fc0     LIBCMT:winapinls.obj
 0002:00005fc8       ??_C@_15EKOFJABL@?$AAe?$AAu?$AA?$AA@ 0000000180043fc8     LIBCMT:winapinls.obj
 0002:00005fd0       ??_C@_15BGHADCNK@?$AAm?$AAk?$AA?$AA@ 0000000180043fd0     LIBCMT:winapinls.obj
 0002:00005fd8       ??_C@_15JDNICKHM@?$AAa?$AAf?$AA?$AA@ 0000000180043fd8     LIBCMT:winapinls.obj
 0002:00005fe0       ??_C@_15KPJEDBKD@?$AAk?$AAa?$AA?$AA@ 0000000180043fe0     LIBCMT:winapinls.obj
 0002:00005fe8       ??_C@_15PDNFFFEO@?$AAf?$AAo?$AA?$AA@ 0000000180043fe8     LIBCMT:winapinls.obj
 0002:00005ff0       ??_C@_15OMLEGLOC@?$AAh?$AAi?$AA?$AA@ 0000000180043ff0     LIBCMT:winapinls.obj
 0002:00005ff8       ??_C@_15IDNNENKK@?$AAm?$AAs?$AA?$AA@ 0000000180043ff8     LIBCMT:winapinls.obj
 0002:00006000       ??_C@_15MACJNBMH@?$AAk?$AAk?$AA?$AA@ 0000000180044000     LIBCMT:winapinls.obj
 0002:00006008       ??_C@_15DKDJEOND@?$AAk?$AAy?$AA?$AA@ 0000000180044008     LIBCMT:winapinls.obj
 0002:00006010       ??_C@_15DFGDLJBG@?$AAs?$AAw?$AA?$AA@ 0000000180044010     LIBCMT:winapinls.obj
 0002:00006018       ??_C@_15BBFAICNG@?$AAu?$AAz?$AA?$AA@ 0000000180044018     LIBCMT:winapinls.obj
 0002:00006020       ??_C@_15DKNDCGEA@?$AAt?$AAt?$AA?$AA@ 0000000180044020     LIBCMT:winapinls.obj
 0002:00006028       ??_C@_15MGIFMDPL@?$AAp?$AAa?$AA?$AA@ 0000000180044028     LIBCMT:winapinls.obj
 0002:00006030       ??_C@_15HCNDBBA@?$AAg?$AAu?$AA?$AA@ 0000000180044030     LIBCMT:winapinls.obj
 0002:00006038       ??_C@_15FNBEIBON@?$AAt?$AAa?$AA?$AA@ 0000000180044038     LIBCMT:winapinls.obj
 0002:00006040       ??_C@_15NCHGBGLK@?$AAt?$AAe?$AA?$AA@ 0000000180044040     LIBCMT:winapinls.obj
 0002:00006048       ??_C@_15PHPHCBPF@?$AAk?$AAn?$AA?$AA@ 0000000180044048     LIBCMT:winapinls.obj
 0002:00006050       ??_C@_15DLGBCKMP@?$AAm?$AAr?$AA?$AA@ 0000000180044050     LIBCMT:winapinls.obj
 0002:00006058       ??_C@_15EABBLBFF@?$AAs?$AAa?$AA?$AA@ 0000000180044058     LIBCMT:winapinls.obj
 0002:00006060       ??_C@_15CBKOMCOI@?$AAm?$AAn?$AA?$AA@ 0000000180044060     LIBCMT:winapinls.obj
 0002:00006068       ??_C@_15CKDMCJAF@?$AAg?$AAl?$AA?$AA@ 0000000180044068     LIBCMT:winapinls.obj
 0002:00006070       ??_C@_17CNJFBPG@?$AAk?$AAo?$AAk?$AA?$AA@ 0000000180044070     LIBCMT:winapinls.obj
 0002:00006078       ??_C@_17FFBJICPL@?$AAs?$AAy?$AAr?$AA?$AA@ 0000000180044078     LIBCMT:winapinls.obj
 0002:00006080       ??_C@_17KPNDCPAF@?$AAd?$AAi?$AAv?$AA?$AA@ 0000000180044080     LIBCMT:winapinls.obj
 0002:00006088       ??_C@_1M@OKAHONE@?$AAa?$AAr?$AA?9?$AAS?$AAA?$AA?$AA@ 0000000180044088     LIBCMT:winapinls.obj
 0002:00006098       ??_C@_1M@FFFIGIGK@?$AAb?$AAg?$AA?9?$AAB?$AAG?$AA?$AA@ 0000000180044098     LIBCMT:winapinls.obj
 0002:000060a8       ??_C@_1M@BJNKEDC@?$AAc?$AAa?$AA?9?$AAE?$AAS?$AA?$AA@ 00000001800440a8     LIBCMT:winapinls.obj
 0002:000060b8       ??_C@_1M@IJJHFJHA@?$AAc?$AAs?$AA?9?$AAC?$AAZ?$AA?$AA@ 00000001800440b8     LIBCMT:winapinls.obj
 0002:000060c8       ??_C@_1M@CLPEOBGI@?$AAd?$AAa?$AA?9?$AAD?$AAK?$AA?$AA@ 00000001800440c8     LIBCMT:winapinls.obj
 0002:000060d8       ??_C@_1M@MCMADGCB@?$AAd?$AAe?$AA?9?$AAD?$AAE?$AA?$AA@ 00000001800440d8     LIBCMT:winapinls.obj
 0002:000060e8       ??_C@_1M@OOCKEMAM@?$AAe?$AAl?$AA?9?$AAG?$AAR?$AA?$AA@ 00000001800440e8     LIBCMT:winapinls.obj
 0002:000060f8       ??_C@_1M@DDNJFGID@?$AAf?$AAi?$AA?9?$AAF?$AAI?$AA?$AA@ 00000001800440f8     LIBCMT:winapinls.obj
 0002:00006108       ??_C@_1M@GLIPPMAC@?$AAf?$AAr?$AA?9?$AAF?$AAR?$AA?$AA@ 0000000180044108     LIBCMT:winapinls.obj
 0002:00006118       ??_C@_1M@GFMCHPE@?$AAh?$AAe?$AA?9?$AAI?$AAL?$AA?$AA@ 0000000180044118     LIBCMT:winapinls.obj
 0002:00006128       ??_C@_1M@MHLPGNKM@?$AAh?$AAu?$AA?9?$AAH?$AAU?$AA?$AA@ 0000000180044128     LIBCMT:winapinls.obj
 0002:00006138       ??_C@_1M@LPDDNNPN@?$AAi?$AAs?$AA?9?$AAI?$AAS?$AA?$AA@ 0000000180044138     LIBCMT:winapinls.obj
 0002:00006148       ??_C@_1M@MADIPODN@?$AAi?$AAt?$AA?9?$AAI?$AAT?$AA?$AA@ 0000000180044148     LIBCMT:winapinls.obj
 0002:00006158       ??_C@_1M@IHBJJGG@?$AAn?$AAl?$AA?9?$AAN?$AAL?$AA?$AA@ 0000000180044158     LIBCMT:winapinls.obj
 0002:00006168       ??_C@_1M@EANAGDL@?$AAn?$AAb?$AA?9?$AAN?$AAO?$AA?$AA@ 0000000180044168     LIBCMT:winapinls.obj
 0002:00006178       ??_C@_1M@NEIEMEGP@?$AAp?$AAl?$AA?9?$AAP?$AAL?$AA?$AA@ 0000000180044178     LIBCMT:winapinls.obj
 0002:00006188       ??_C@_1M@BOCFIGEP@?$AAp?$AAt?$AA?9?$AAB?$AAR?$AA?$AA@ 0000000180044188     LIBCMT:winapinls.obj
 0002:00006198       ??_C@_1M@IMPFOPBG@?$AAr?$AAo?$AA?9?$AAR?$AAO?$AA?$AA@ 0000000180044198     LIBCMT:winapinls.obj
 0002:000061a8       ??_C@_1M@IDNNEJMM@?$AAr?$AAu?$AA?9?$AAR?$AAU?$AA?$AA@ 00000001800441a8     LIBCMT:winapinls.obj
 0002:000061b8       ??_C@_1M@LILEEOGM@?$AAh?$AAr?$AA?9?$AAH?$AAR?$AA?$AA@ 00000001800441b8     LIBCMT:winapinls.obj
 0002:000061c8       ??_C@_1M@FKIFEHPB@?$AAs?$AAk?$AA?9?$AAS?$AAK?$AA?$AA@ 00000001800441c8     LIBCMT:winapinls.obj
 0002:000061d8       ??_C@_1M@LJMAMNPJ@?$AAs?$AAq?$AA?9?$AAA?$AAL?$AA?$AA@ 00000001800441d8     LIBCMT:winapinls.obj
 0002:000061e8       ??_C@_1M@GIAKDKJK@?$AAs?$AAv?$AA?9?$AAS?$AAE?$AA?$AA@ 00000001800441e8     LIBCMT:winapinls.obj
 0002:000061f8       ??_C@_1M@MKJKIKCL@?$AAt?$AAh?$AA?9?$AAT?$AAH?$AA?$AA@ 00000001800441f8     LIBCMT:winapinls.obj
 0002:00006208       ??_C@_1M@MFLCCMPB@?$AAt?$AAr?$AA?9?$AAT?$AAR?$AA?$AA@ 0000000180044208     LIBCMT:winapinls.obj
 0002:00006218       ??_C@_1M@OIJHDKJN@?$AAu?$AAr?$AA?9?$AAP?$AAK?$AA?$AA@ 0000000180044218     LIBCMT:winapinls.obj
 0002:00006228       ??_C@_1M@LHIPCIEK@?$AAi?$AAd?$AA?9?$AAI?$AAD?$AA?$AA@ 0000000180044228     LIBCMT:winapinls.obj
 0002:00006238       ??_C@_1M@MFMOBGI@?$AAu?$AAk?$AA?9?$AAU?$AAA?$AA?$AA@ 0000000180044238     LIBCMT:winapinls.obj
 0002:00006248       ??_C@_1M@OBGLJIPL@?$AAb?$AAe?$AA?9?$AAB?$AAY?$AA?$AA@ 0000000180044248     LIBCMT:winapinls.obj
 0002:00006258       ??_C@_1M@BCFAJEAD@?$AAs?$AAl?$AA?9?$AAS?$AAI?$AA?$AA@ 0000000180044258     LIBCMT:winapinls.obj
 0002:00006268       ??_C@_1M@FKFFEDDN@?$AAe?$AAt?$AA?9?$AAE?$AAE?$AA?$AA@ 0000000180044268     LIBCMT:winapinls.obj
 0002:00006278       ??_C@_1M@KGKKAACI@?$AAl?$AAv?$AA?9?$AAL?$AAV?$AA?$AA@ 0000000180044278     LIBCMT:winapinls.obj
 0002:00006288       ??_C@_1M@IFGBIJO@?$AAl?$AAt?$AA?9?$AAL?$AAT?$AA?$AA@ 0000000180044288     LIBCMT:winapinls.obj
 0002:00006298       ??_C@_1M@FGEAHEDM@?$AAf?$AAa?$AA?9?$AAI?$AAR?$AA?$AA@ 0000000180044298     LIBCMT:winapinls.obj
 0002:000062a8       ??_C@_1M@KBMAIBFN@?$AAv?$AAi?$AA?9?$AAV?$AAN?$AA?$AA@ 00000001800442a8     LIBCMT:winapinls.obj
 0002:000062b8       ??_C@_1M@GPCBKDJK@?$AAh?$AAy?$AA?9?$AAA?$AAM?$AA?$AA@ 00000001800442b8     LIBCMT:winapinls.obj
 0002:000062c8       ??_C@_1BG@BECMDDJB@?$AAa?$AAz?$AA?9?$AAA?$AAZ?$AA?9?$AAL?$AAa?$AAt?$AAn?$AA?$AA@ 00000001800442c8     LIBCMT:winapinls.obj
 0002:000062e0       ??_C@_1M@MAOFCAEA@?$AAe?$AAu?$AA?9?$AAE?$AAS?$AA?$AA@ 00000001800442e0     LIBCMT:winapinls.obj
 0002:000062f0       ??_C@_1M@IGHABKPI@?$AAm?$AAk?$AA?9?$AAM?$AAK?$AA?$AA@ 00000001800442f0     LIBCMT:winapinls.obj
 0002:00006300       ??_C@_1M@IAIGNEJG@?$AAt?$AAn?$AA?9?$AAZ?$AAA?$AA?$AA@ 0000000180044300     LIBCMT:winapinls.obj
 0002:00006310       ??_C@_1M@IIJCOJFA@?$AAx?$AAh?$AA?9?$AAZ?$AAA?$AA?$AA@ 0000000180044310     LIBCMT:winapinls.obj
 0002:00006320       ??_C@_1M@LGPJHNJH@?$AAz?$AAu?$AA?9?$AAZ?$AAA?$AA?$AA@ 0000000180044320     LIBCMT:winapinls.obj
 0002:00006330       ??_C@_1M@HOKAOIO@?$AAa?$AAf?$AA?9?$AAZ?$AAA?$AA?$AA@ 0000000180044330     LIBCMT:winapinls.obj
 0002:00006340       ??_C@_1M@DPCLHLIE@?$AAk?$AAa?$AA?9?$AAG?$AAE?$AA?$AA@ 0000000180044340     LIBCMT:winapinls.obj
 0002:00006350       ??_C@_1M@BLKMHJBI@?$AAf?$AAo?$AA?9?$AAF?$AAO?$AA?$AA@ 0000000180044350     LIBCMT:winapinls.obj
 0002:00006360       ??_C@_1M@LGGJAPPB@?$AAh?$AAi?$AA?9?$AAI?$AAN?$AA?$AA@ 0000000180044360     LIBCMT:winapinls.obj
 0002:00006370       ??_C@_1M@FIKPIHFE@?$AAm?$AAt?$AA?9?$AAM?$AAT?$AA?$AA@ 0000000180044370     LIBCMT:winapinls.obj
 0002:00006380       ??_C@_1M@HEGGPBFA@?$AAs?$AAe?$AA?9?$AAN?$AAO?$AA?$AA@ 0000000180044380     LIBCMT:winapinls.obj
 0002:00006390       ??_C@_1M@EIBJEEPA@?$AAm?$AAs?$AA?9?$AAM?$AAY?$AA?$AA@ 0000000180044390     LIBCMT:winapinls.obj
 0002:000063a0       ??_C@_1M@FHLBGMPP@?$AAk?$AAk?$AA?9?$AAK?$AAZ?$AA?$AA@ 00000001800443a0     LIBCMT:winapinls.obj
 0002:000063b0       ??_C@_1M@NGJJLCGI@?$AAk?$AAy?$AA?9?$AAK?$AAG?$AA?$AA@ 00000001800443b0     LIBCMT:winapinls.obj
 0002:000063c0       ??_C@_1M@GIENNBFC@?$AAs?$AAw?$AA?9?$AAK?$AAE?$AA?$AA@ 00000001800443c0     LIBCMT:winapinls.obj
 0002:000063d0       ??_C@_1BG@NDGMJIMJ@?$AAu?$AAz?$AA?9?$AAU?$AAZ?$AA?9?$AAL?$AAa?$AAt?$AAn?$AA?$AA@ 00000001800443d0     LIBCMT:winapinls.obj
 0002:000063e8       ??_C@_1M@IDCCIHBC@?$AAt?$AAt?$AA?9?$AAR?$AAU?$AA?$AA@ 00000001800443e8     LIBCMT:winapinls.obj
 0002:000063f8       ??_C@_1M@LOICPMOJ@?$AAb?$AAn?$AA?9?$AAI?$AAN?$AA?$AA@ 00000001800443f8     LIBCMT:winapinls.obj
 0002:00006408       ??_C@_1M@KPKKNEAH@?$AAp?$AAa?$AA?9?$AAI?$AAN?$AA?$AA@ 0000000180044408     LIBCMT:winapinls.obj
 0002:00006418       ??_C@_1M@PJGPPBOG@?$AAg?$AAu?$AA?9?$AAI?$AAN?$AA?$AA@ 0000000180044418     LIBCMT:winapinls.obj
 0002:00006428       ??_C@_1M@KMKMOPHI@?$AAt?$AAa?$AA?9?$AAI?$AAN?$AA?$AA@ 0000000180044428     LIBCMT:winapinls.obj
 0002:00006438       ??_C@_1M@KFEHEPAC@?$AAt?$AAe?$AA?9?$AAI?$AAN?$AA?$AA@ 0000000180044438     LIBCMT:winapinls.obj
 0002:00006448       ??_C@_1M@CDCLMGHI@?$AAk?$AAn?$AA?9?$AAI?$AAN?$AA?$AA@ 0000000180044448     LIBCMT:winapinls.obj
 0002:00006458       ??_C@_1M@MIODLDKF@?$AAm?$AAl?$AA?9?$AAI?$AAN?$AA?$AA@ 0000000180044458     LIBCMT:winapinls.obj
 0002:00006468       ??_C@_1M@PBIEACPO@?$AAm?$AAr?$AA?9?$AAI?$AAN?$AA?$AA@ 0000000180044468     LIBCMT:winapinls.obj
 0002:00006478       ??_C@_1M@NIDEAGPH@?$AAs?$AAa?$AA?9?$AAI?$AAN?$AA?$AA@ 0000000180044478     LIBCMT:winapinls.obj
 0002:00006488       ??_C@_1M@FHIHCBIO@?$AAm?$AAn?$AA?9?$AAM?$AAN?$AA?$AA@ 0000000180044488     LIBCMT:winapinls.obj
 0002:00006498       ??_C@_1M@JAIJPENP@?$AAc?$AAy?$AA?9?$AAG?$AAB?$AA?$AA@ 0000000180044498     LIBCMT:winapinls.obj
 0002:000064a8       ??_C@_1M@PHGFBEPN@?$AAg?$AAl?$AA?9?$AAE?$AAS?$AA?$AA@ 00000001800444a8     LIBCMT:winapinls.obj
 0002:000064b8       ??_C@_1O@KPIPDNCP@?$AAk?$AAo?$AAk?$AA?9?$AAI?$AAN?$AA?$AA@ 00000001800444b8     LIBCMT:winapinls.obj
 0002:000064c8       ??_C@_1O@KNHJLDJA@?$AAs?$AAy?$AAr?$AA?9?$AAS?$AAY?$AA?$AA@ 00000001800444c8     LIBCMT:winapinls.obj
 0002:000064d8       ??_C@_1O@MKEKBLAH@?$AAd?$AAi?$AAv?$AA?9?$AAM?$AAV?$AA?$AA@ 00000001800444d8     LIBCMT:winapinls.obj
 0002:000064e8       ??_C@_1O@OHDCKDDF@?$AAq?$AAu?$AAz?$AA?9?$AAB?$AAO?$AA?$AA@ 00000001800444e8     LIBCMT:winapinls.obj
 0002:000064f8       ??_C@_1M@LEPJNLFD@?$AAn?$AAs?$AA?9?$AAZ?$AAA?$AA?$AA@ 00000001800444f8     LIBCMT:winapinls.obj
 0002:00006508       ??_C@_1M@OMLEIIJB@?$AAm?$AAi?$AA?9?$AAN?$AAZ?$AA?$AA@ 0000000180044508     LIBCMT:winapinls.obj
 0002:00006518       ??_C@_1M@PMPEAILG@?$AAa?$AAr?$AA?9?$AAI?$AAQ?$AA?$AA@ 0000000180044518     LIBCMT:winapinls.obj
 0002:00006528       ??_C@_1M@CNKPNOEE@?$AAd?$AAe?$AA?9?$AAC?$AAH?$AA?$AA@ 0000000180044528     LIBCMT:winapinls.obj
 0002:00006538       ??_C@_1M@LKMGMLKO@?$AAe?$AAn?$AA?9?$AAG?$AAB?$AA?$AA@ 0000000180044538     LIBCMT:winapinls.obj
 0002:00006548       ??_C@_1M@PGKJFFGL@?$AAe?$AAs?$AA?9?$AAM?$AAX?$AA?$AA@ 0000000180044548     LIBCMT:winapinls.obj
 0002:00006558       ??_C@_1M@DNNANBDC@?$AAf?$AAr?$AA?9?$AAB?$AAE?$AA?$AA@ 0000000180044558     LIBCMT:winapinls.obj
 0002:00006568       ??_C@_1M@HLGMDFHM@?$AAi?$AAt?$AA?9?$AAC?$AAH?$AA?$AA@ 0000000180044568     LIBCMT:winapinls.obj
 0002:00006578       ??_C@_1M@CLLBGJH@?$AAn?$AAl?$AA?9?$AAB?$AAE?$AA?$AA@ 0000000180044578     LIBCMT:winapinls.obj
 0002:00006588       ??_C@_1M@BODBOGLF@?$AAn?$AAn?$AA?9?$AAN?$AAO?$AA?$AA@ 0000000180044588     LIBCMT:winapinls.obj
 0002:00006598       ??_C@_1M@HFFAHKAD@?$AAp?$AAt?$AA?9?$AAP?$AAT?$AA?$AA@ 0000000180044598     LIBCMT:winapinls.obj
 0002:000065a8       ??_C@_1BG@LNOAKHIE@?$AAs?$AAr?$AA?9?$AAS?$AAP?$AA?9?$AAL?$AAa?$AAt?$AAn?$AA?$AA@ 00000001800445a8     LIBCMT:winapinls.obj
 0002:000065c0       ??_C@_1M@HBMHBGAK@?$AAs?$AAv?$AA?9?$AAF?$AAI?$AA?$AA@ 00000001800445c0     LIBCMT:winapinls.obj
 0002:000065d0       ??_C@_1BG@DGCJGJBE@?$AAa?$AAz?$AA?9?$AAA?$AAZ?$AA?9?$AAC?$AAy?$AAr?$AAl?$AA?$AA@ 00000001800445d0     LIBCMT:winapinls.obj
 0002:000065e8       ??_C@_1M@KEJDAAHB@?$AAs?$AAe?$AA?9?$AAS?$AAE?$AA?$AA@ 00000001800445e8     LIBCMT:winapinls.obj
 0002:000065f8       ??_C@_1M@HEIBJJAD@?$AAm?$AAs?$AA?9?$AAB?$AAN?$AA?$AA@ 00000001800445f8     LIBCMT:winapinls.obj
 0002:00006608       ??_C@_1BG@PBGJMCEM@?$AAu?$AAz?$AA?9?$AAU?$AAZ?$AA?9?$AAC?$AAy?$AAr?$AAl?$AA?$AA@ 0000000180044608     LIBCMT:winapinls.obj
 0002:00006620       ??_C@_1O@LAOBCMDF@?$AAq?$AAu?$AAz?$AA?9?$AAE?$AAC?$AA?$AA@ 0000000180044620     LIBCMT:winapinls.obj
 0002:00006630       ??_C@_1M@POEEMAIO@?$AAa?$AAr?$AA?9?$AAE?$AAG?$AA?$AA@ 0000000180044630     LIBCMT:winapinls.obj
 0002:00006640       ??_C@_1M@EFAKDEDL@?$AAz?$AAh?$AA?9?$AAH?$AAK?$AA?$AA@ 0000000180044640     LIBCMT:winapinls.obj
 0002:00006650       ??_C@_1M@HKKIJHGI@?$AAd?$AAe?$AA?9?$AAA?$AAT?$AA?$AA@ 0000000180044650     LIBCMT:winapinls.obj
 0002:00006660       ??_C@_1M@KBFBEHJF@?$AAe?$AAn?$AA?9?$AAA?$AAU?$AA?$AA@ 0000000180044660     LIBCMT:winapinls.obj
 0002:00006670       ??_C@_1M@MNPLFAAH@?$AAe?$AAs?$AA?9?$AAE?$AAS?$AA?$AA@ 0000000180044670     LIBCMT:winapinls.obj
 0002:00006680       ??_C@_1M@HJOOJFMA@?$AAf?$AAr?$AA?9?$AAC?$AAA?$AA?$AA@ 0000000180044680     LIBCMT:winapinls.obj
 0002:00006690       ??_C@_1BG@JPOFPNAB@?$AAs?$AAr?$AA?9?$AAS?$AAP?$AA?9?$AAC?$AAy?$AAr?$AAl?$AA?$AA@ 0000000180044690     LIBCMT:winapinls.obj
 0002:000066a8       ??_C@_1M@LNFOCMOB@?$AAs?$AAe?$AA?9?$AAF?$AAI?$AA?$AA@ 00000001800446a8     LIBCMT:winapinls.obj
 0002:000066b8       ??_C@_1O@MGJBOAMB@?$AAq?$AAu?$AAz?$AA?9?$AAP?$AAE?$AA?$AA@ 00000001800446b8     LIBCMT:winapinls.obj
 0002:000066c8       ??_C@_1M@GJINLBOK@?$AAa?$AAr?$AA?9?$AAL?$AAY?$AA?$AA@ 00000001800446c8     LIBCMT:winapinls.obj
 0002:000066d8       ??_C@_1M@GGMNHJNL@?$AAz?$AAh?$AA?9?$AAS?$AAG?$AA?$AA@ 00000001800446d8     LIBCMT:winapinls.obj
 0002:000066e8       ??_C@_1M@HOIKODND@?$AAd?$AAe?$AA?9?$AAL?$AAU?$AA?$AA@ 00000001800446e8     LIBCMT:winapinls.obj
 0002:000066f8       ??_C@_1M@DDOCCGFG@?$AAe?$AAn?$AA?9?$AAC?$AAA?$AA?$AA@ 00000001800446f8     LIBCMT:winapinls.obj
 0002:00006708       ??_C@_1M@BNOEMJLF@?$AAe?$AAs?$AA?9?$AAG?$AAT?$AA?$AA@ 0000000180044708     LIBCMT:winapinls.obj
 0002:00006718       ??_C@_1M@EOGNKEK@?$AAf?$AAr?$AA?9?$AAC?$AAH?$AA?$AA@ 0000000180044718     LIBCMT:winapinls.obj
 0002:00006728       ??_C@_1M@FLIDJFHL@?$AAh?$AAr?$AA?9?$AAB?$AAA?$AA?$AA@ 0000000180044728     LIBCMT:winapinls.obj
 0002:00006738       ??_C@_1O@FMCELNAJ@?$AAs?$AAm?$AAj?$AA?9?$AAN?$AAO?$AA?$AA@ 0000000180044738     LIBCMT:winapinls.obj
 0002:00006748       ??_C@_1M@JHGLJMGJ@?$AAa?$AAr?$AA?9?$AAD?$AAZ?$AA?$AA@ 0000000180044748     LIBCMT:winapinls.obj
 0002:00006758       ??_C@_1M@JKKFDCNP@?$AAz?$AAh?$AA?9?$AAM?$AAO?$AA?$AA@ 0000000180044758     LIBCMT:winapinls.obj
 0002:00006768       ??_C@_1M@GEEFALPE@?$AAd?$AAe?$AA?9?$AAL?$AAI?$AA?$AA@ 0000000180044768     LIBCMT:winapinls.obj
 0002:00006778       ??_C@_1M@IGEOFBG@?$AAe?$AAn?$AA?9?$AAN?$AAZ?$AA?$AA@ 0000000180044778     LIBCMT:winapinls.obj
 0002:00006788       ??_C@_1M@KDBONEHP@?$AAe?$AAs?$AA?9?$AAC?$AAR?$AA?$AA@ 0000000180044788     LIBCMT:winapinls.obj
 0002:00006798       ??_C@_1M@FHMDOHNN@?$AAf?$AAr?$AA?9?$AAL?$AAU?$AA?$AA@ 0000000180044798     LIBCMT:winapinls.obj
 0002:000067a8       ??_C@_1BG@NFKKMAFG@?$AAb?$AAs?$AA?9?$AAB?$AAA?$AA?9?$AAL?$AAa?$AAt?$AAn?$AA?$AA@ 00000001800447a8     LIBCMT:winapinls.obj
 0002:000067c0       ??_C@_1O@IMNBEMCI@?$AAs?$AAm?$AAj?$AA?9?$AAS?$AAE?$AA?$AA@ 00000001800447c0     LIBCMT:winapinls.obj
 0002:000067d0       ??_C@_1M@DHHMBNDP@?$AAa?$AAr?$AA?9?$AAM?$AAA?$AA?$AA@ 00000001800447d0     LIBCMT:winapinls.obj
 0002:000067e0       ??_C@_1M@BNBLJCGH@?$AAe?$AAn?$AA?9?$AAI?$AAE?$AA?$AA@ 00000001800447e0     LIBCMT:winapinls.obj
 0002:000067f0       ??_C@_1M@GEPAFMDL@?$AAe?$AAs?$AA?9?$AAP?$AAA?$AA?$AA@ 00000001800447f0     LIBCMT:winapinls.obj
 0002:00006800       ??_C@_1M@OJONDMDL@?$AAf?$AAr?$AA?9?$AAM?$AAC?$AA?$AA@ 0000000180044800     LIBCMT:winapinls.obj
 0002:00006810       ??_C@_1BG@OBCNFJB@?$AAs?$AAr?$AA?9?$AAB?$AAA?$AA?9?$AAL?$AAa?$AAt?$AAn?$AA?$AA@ 0000000180044810     LIBCMT:winapinls.obj
 0002:00006828       ??_C@_1O@KEMEEGPO@?$AAs?$AAm?$AAa?$AA?9?$AAN?$AAO?$AA?$AA@ 0000000180044828     LIBCMT:winapinls.obj
 0002:00006838       ??_C@_1M@ELMGFODK@?$AAa?$AAr?$AA?9?$AAT?$AAN?$AA?$AA@ 0000000180044838     LIBCMT:winapinls.obj
 0002:00006848       ??_C@_1M@BHDLHFAF@?$AAe?$AAn?$AA?9?$AAZ?$AAA?$AA?$AA@ 0000000180044848     LIBCMT:winapinls.obj
 0002:00006858       ??_C@_1M@BMGIGLIF@?$AAe?$AAs?$AA?9?$AAD?$AAO?$AA?$AA@ 0000000180044858     LIBCMT:winapinls.obj
 0002:00006868       ??_C@_1BG@CMBHIPBE@?$AAs?$AAr?$AA?9?$AAB?$AAA?$AA?9?$AAC?$AAy?$AAr?$AAl?$AA?$AA@ 0000000180044868     LIBCMT:winapinls.obj
 0002:00006880       ??_C@_1O@HEDBLHNP@?$AAs?$AAm?$AAa?$AA?9?$AAS?$AAE?$AA?$AA@ 0000000180044880     LIBCMT:winapinls.obj
 0002:00006890       ??_C@_1M@DAGCADIM@?$AAa?$AAr?$AA?9?$AAO?$AAM?$AA?$AA@ 0000000180044890     LIBCMT:winapinls.obj
 0002:000068a0       ??_C@_1M@FODLMICG@?$AAe?$AAn?$AA?9?$AAJ?$AAM?$AA?$AA@ 00000001800448a0     LIBCMT:winapinls.obj
 0002:000068b0       ??_C@_1M@DNMLCIHB@?$AAe?$AAs?$AA?9?$AAV?$AAE?$AA?$AA@ 00000001800448b0     LIBCMT:winapinls.obj
 0002:000068c0       ??_C@_1O@EOKHMKJK@?$AAs?$AAm?$AAs?$AA?9?$AAF?$AAI?$AA?$AA@ 00000001800448c0     LIBCMT:winapinls.obj
 0002:000068d0       ??_C@_1M@CAFJMKOF@?$AAa?$AAr?$AA?9?$AAY?$AAE?$AA?$AA@ 00000001800448d0     LIBCMT:winapinls.obj
 0002:000068e0       ??_C@_1M@CBFHIJLI@?$AAe?$AAn?$AA?9?$AAC?$AAB?$AA?$AA@ 00000001800448e0     LIBCMT:winapinls.obj
 0002:000068f0       ??_C@_1M@BGNFLDN@?$AAe?$AAs?$AA?9?$AAC?$AAO?$AA?$AA@ 00000001800448f0     LIBCMT:winapinls.obj
 0002:00006900       ??_C@_1O@JMPHMAMC@?$AAs?$AAm?$AAn?$AA?9?$AAF?$AAI?$AA?$AA@ 0000000180044900     LIBCMT:winapinls.obj
 0002:00006910       ??_C@_1M@JLANABKE@?$AAa?$AAr?$AA?9?$AAS?$AAY?$AA?$AA@ 0000000180044910     LIBCMT:winapinls.obj
 0002:00006920       ??_C@_1M@HPKGCFGN@?$AAe?$AAn?$AA?9?$AAB?$AAZ?$AA?$AA@ 0000000180044920     LIBCMT:winapinls.obj
 0002:00006930       ??_C@_1M@OLJCMLGM@?$AAe?$AAs?$AA?9?$AAP?$AAE?$AA?$AA@ 0000000180044930     LIBCMT:winapinls.obj
 0002:00006940       ??_C@_1M@MKKGFKLE@?$AAa?$AAr?$AA?9?$AAJ?$AAO?$AA?$AA@ 0000000180044940     LIBCMT:winapinls.obj
 0002:00006950       ??_C@_1M@EKPGLDNI@?$AAe?$AAn?$AA?9?$AAT?$AAT?$AA?$AA@ 0000000180044950     LIBCMT:winapinls.obj
 0002:00006960       ??_C@_1M@OONGHFHE@?$AAe?$AAs?$AA?9?$AAA?$AAR?$AA?$AA@ 0000000180044960     LIBCMT:winapinls.obj
 0002:00006970       ??_C@_1M@OOJFGBHE@?$AAa?$AAr?$AA?9?$AAL?$AAB?$AA?$AA@ 0000000180044970     LIBCMT:winapinls.obj
 0002:00006980       ??_C@_1M@GCEJHNEG@?$AAe?$AAn?$AA?9?$AAZ?$AAW?$AA?$AA@ 0000000180044980     LIBCMT:winapinls.obj
 0002:00006990       ??_C@_1M@JNOCAHJI@?$AAe?$AAs?$AA?9?$AAE?$AAC?$AA?$AA@ 0000000180044990     LIBCMT:winapinls.obj
 0002:000069a0       ??_C@_1M@JEFHPGGB@?$AAa?$AAr?$AA?9?$AAK?$AAW?$AA?$AA@ 00000001800449a0     LIBCMT:winapinls.obj
 0002:000069b0       ??_C@_1M@MLKIBJOJ@?$AAe?$AAn?$AA?9?$AAP?$AAH?$AA?$AA@ 00000001800449b0     LIBCMT:winapinls.obj
 0002:000069c0       ??_C@_1M@BDNIPEND@?$AAe?$AAs?$AA?9?$AAC?$AAL?$AA?$AA@ 00000001800449c0     LIBCMT:winapinls.obj
 0002:000069d0       ??_C@_1M@MPNMEKBD@?$AAa?$AAr?$AA?9?$AAA?$AAE?$AA?$AA@ 00000001800449d0     LIBCMT:winapinls.obj
 0002:000069e0       ??_C@_1M@KBJALCPI@?$AAe?$AAs?$AA?9?$AAU?$AAY?$AA?$AA@ 00000001800449e0     LIBCMT:winapinls.obj
 0002:000069f0       ??_C@_1M@LLCCOAGA@?$AAa?$AAr?$AA?9?$AAB?$AAH?$AA?$AA@ 00000001800449f0     LIBCMT:winapinls.obj
 0002:00006a00       ??_C@_1M@PBFNCDEL@?$AAe?$AAs?$AA?9?$AAP?$AAY?$AA?$AA@ 0000000180044a00     LIBCMT:winapinls.obj
 0002:00006a10       ??_C@_1M@EDGINPNP@?$AAa?$AAr?$AA?9?$AAQ?$AAA?$AA?$AA@ 0000000180044a10     LIBCMT:winapinls.obj
 0002:00006a20       ??_C@_1M@MKDBIIJI@?$AAe?$AAs?$AA?9?$AAB?$AAO?$AA?$AA@ 0000000180044a20     LIBCMT:winapinls.obj
 0002:00006a30       ??_C@_1M@CPKKEBLD@?$AAe?$AAs?$AA?9?$AAS?$AAV?$AA?$AA@ 0000000180044a30     LIBCMT:winapinls.obj
 0002:00006a40       ??_C@_1M@NDBGMMJL@?$AAe?$AAs?$AA?9?$AAH?$AAN?$AA?$AA@ 0000000180044a40     LIBCMT:winapinls.obj
 0002:00006a50       ??_C@_1M@JIJIBHDP@?$AAe?$AAs?$AA?9?$AAN?$AAI?$AA?$AA@ 0000000180044a50     LIBCMT:winapinls.obj
 0002:00006a60       ??_C@_1M@CGFMKEEK@?$AAe?$AAs?$AA?9?$AAP?$AAR?$AA?$AA@ 0000000180044a60     LIBCMT:winapinls.obj
 0002:00006a70       ??_C@_1O@ICJHKIIK@?$AAz?$AAh?$AA?9?$AAC?$AAH?$AAT?$AA?$AA@ 0000000180044a70     LIBCMT:winapinls.obj
 0002:00006a80       ??_C@_15CLNEJCE@?$AAs?$AAr?$AA?$AA@ 0000000180044a80     LIBCMT:winapinls.obj
 0002:00006a88       ??_C@_1M@KAHEKEIG@?$AAa?$AAf?$AA?9?$AAz?$AAa?$AA?$AA@ 0000000180044a88     LIBCMT:winapinls.obj
 0002:00006a98       ??_C@_1M@GIECOABL@?$AAa?$AAr?$AA?9?$AAa?$AAe?$AA?$AA@ 0000000180044a98     LIBCMT:winapinls.obj
 0002:00006aa8       ??_C@_1M@BMLMEKGI@?$AAa?$AAr?$AA?9?$AAb?$AAh?$AA?$AA@ 0000000180044aa8     LIBCMT:winapinls.obj
 0002:00006ab8       ??_C@_1M@DAPFDGGB@?$AAa?$AAr?$AA?9?$AAd?$AAz?$AA?$AA@ 0000000180044ab8     LIBCMT:winapinls.obj
 0002:00006ac8       ??_C@_1M@FJNKGKIG@?$AAa?$AAr?$AA?9?$AAe?$AAg?$AA?$AA@ 0000000180044ac8     LIBCMT:winapinls.obj
 0002:00006ad8       ??_C@_1M@FLGKKCLO@?$AAa?$AAr?$AA?9?$AAi?$AAq?$AA?$AA@ 0000000180044ad8     LIBCMT:winapinls.obj
 0002:00006ae8       ??_C@_1M@GNDIPALM@?$AAa?$AAr?$AA?9?$AAj?$AAo?$AA?$AA@ 0000000180044ae8     LIBCMT:winapinls.obj
 0002:00006af8       ??_C@_1M@DDMJFMGJ@?$AAa?$AAr?$AA?9?$AAk?$AAw?$AA?$AA@ 0000000180044af8     LIBCMT:winapinls.obj
 0002:00006b08       ??_C@_1M@EJALMLHM@?$AAa?$AAr?$AA?9?$AAl?$AAb?$AA?$AA@ 0000000180044b08     LIBCMT:winapinls.obj
 0002:00006b18       ??_C@_1M@MOBDBLOC@?$AAa?$AAr?$AA?9?$AAl?$AAy?$AA?$AA@ 0000000180044b18     LIBCMT:winapinls.obj
 0002:00006b28       ??_C@_1M@JAOCLHDH@?$AAa?$AAr?$AA?9?$AAm?$AAa?$AA?$AA@ 0000000180044b28     LIBCMT:winapinls.obj
 0002:00006b38       ??_C@_1M@JHPMKJIE@?$AAa?$AAr?$AA?9?$AAo?$AAm?$AA?$AA@ 0000000180044b38     LIBCMT:winapinls.obj
 0002:00006b48       ??_C@_1M@OEPGHFNH@?$AAa?$AAr?$AA?9?$AAq?$AAa?$AA?$AA@ 0000000180044b48     LIBCMT:winapinls.obj
 0002:00006b58       ??_C@_1M@KJDONENM@?$AAa?$AAr?$AA?9?$AAs?$AAa?$AA?$AA@ 0000000180044b58     LIBCMT:winapinls.obj
 0002:00006b68       ??_C@_1M@DMJDKLKM@?$AAa?$AAr?$AA?9?$AAs?$AAy?$AA?$AA@ 0000000180044b68     LIBCMT:winapinls.obj
 0002:00006b78       ??_C@_1M@OMFIPEDC@?$AAa?$AAr?$AA?9?$AAt?$AAn?$AA?$AA@ 0000000180044b78     LIBCMT:winapinls.obj
 0002:00006b88       ??_C@_1M@IHMHGAON@?$AAa?$AAr?$AA?9?$AAy?$AAe?$AA?$AA@ 0000000180044b88     LIBCMT:winapinls.obj
 0002:00006b98       ??_C@_1BG@KDCPGJGB@?$AAa?$AAz?$AA?9?$AAa?$AAz?$AA?9?$AAc?$AAy?$AAr?$AAl?$AA?$AA@ 0000000180044b98     LIBCMT:winapinls.obj
 0002:00006bb0       ??_C@_1BG@IBCKDDOE@?$AAa?$AAz?$AA?9?$AAa?$AAz?$AA?9?$AAl?$AAa?$AAt?$AAn?$AA?$AA@ 0000000180044bb0     LIBCMT:winapinls.obj
 0002:00006bc8       ??_C@_1M@EGPFDCPD@?$AAb?$AAe?$AA?9?$AAb?$AAy?$AA?$AA@ 0000000180044bc8     LIBCMT:winapinls.obj
 0002:00006bd8       ??_C@_1M@PCMGMCGC@?$AAb?$AAg?$AA?9?$AAb?$AAg?$AA?$AA@ 0000000180044bd8     LIBCMT:winapinls.obj
 0002:00006be8       ??_C@_1M@BJBMFGOB@?$AAb?$AAn?$AA?9?$AAi?$AAn?$AA?$AA@ 0000000180044be8     LIBCMT:winapinls.obj
 0002:00006bf8       ??_C@_1BG@EAKMMACD@?$AAb?$AAs?$AA?9?$AAb?$AAa?$AA?9?$AAl?$AAa?$AAt?$AAn?$AA?$AA@ 0000000180044bf8     LIBCMT:winapinls.obj
 0002:00006c10       ??_C@_1M@KGADAODK@?$AAc?$AAa?$AA?9?$AAe?$AAs?$AA?$AA@ 0000000180044c10     LIBCMT:winapinls.obj
 0002:00006c20       ??_C@_1M@COAJPDHI@?$AAc?$AAs?$AA?9?$AAc?$AAz?$AA?$AA@ 0000000180044c20     LIBCMT:winapinls.obj
 0002:00006c30       ??_C@_1M@DHBHFONH@?$AAc?$AAy?$AA?9?$AAg?$AAb?$AA?$AA@ 0000000180044c30     LIBCMT:winapinls.obj
 0002:00006c40       ??_C@_1M@IMGKELGA@?$AAd?$AAa?$AA?9?$AAd?$AAk?$AA?$AA@ 0000000180044c40     LIBCMT:winapinls.obj
 0002:00006c50       ??_C@_1M@NNDGDNGA@?$AAd?$AAe?$AA?9?$AAa?$AAt?$AA?$AA@ 0000000180044c50     LIBCMT:winapinls.obj
 0002:00006c60       ??_C@_1M@IKDBHEEM@?$AAd?$AAe?$AA?9?$AAc?$AAh?$AA?$AA@ 0000000180044c60     LIBCMT:winapinls.obj
 0002:00006c70       ??_C@_1M@GFFOJMCJ@?$AAd?$AAe?$AA?9?$AAd?$AAe?$AA?$AA@ 0000000180044c70     LIBCMT:winapinls.obj
 0002:00006c80       ??_C@_1M@MDNLKBPM@?$AAd?$AAe?$AA?9?$AAl?$AAi?$AA?$AA@ 0000000180044c80     LIBCMT:winapinls.obj
 0002:00006c90       ??_C@_1M@NJBEEJNL@?$AAd?$AAe?$AA?9?$AAl?$AAu?$AA?$AA@ 0000000180044c90     LIBCMT:winapinls.obj
 0002:00006ca0       ??_C@_1O@GNNELBAP@?$AAd?$AAi?$AAv?$AA?9?$AAm?$AAv?$AA?$AA@ 0000000180044ca0     LIBCMT:winapinls.obj
 0002:00006cb0       ??_C@_1M@EJLEOGAE@?$AAe?$AAl?$AA?9?$AAg?$AAr?$AA?$AA@ 0000000180044cb0     LIBCMT:winapinls.obj
 0002:00006cc0       ??_C@_1M@GMPONJN@?$AAe?$AAn?$AA?9?$AAa?$AAu?$AA?$AA@ 0000000180044cc0     LIBCMT:winapinls.obj
 0002:00006cd0       ??_C@_1M@NIDIIPGF@?$AAe?$AAn?$AA?9?$AAb?$AAz?$AA?$AA@ 0000000180044cd0     LIBCMT:winapinls.obj
 0002:00006ce0       ??_C@_1M@JEHMIMFO@?$AAe?$AAn?$AA?9?$AAc?$AAa?$AA?$AA@ 0000000180044ce0     LIBCMT:winapinls.obj
 0002:00006cf0       ??_C@_1M@IGMJCDLA@?$AAe?$AAn?$AA?9?$AAc?$AAb?$AA?$AA@ 0000000180044cf0     LIBCMT:winapinls.obj
 0002:00006d00       ??_C@_1M@BNFIGBKG@?$AAe?$AAn?$AA?9?$AAg?$AAb?$AA?$AA@ 0000000180044d00     LIBCMT:winapinls.obj
 0002:00006d10       ??_C@_1M@LKIFDIGP@?$AAe?$AAn?$AA?9?$AAi?$AAe?$AA?$AA@ 0000000180044d10     LIBCMT:winapinls.obj
 0002:00006d20       ??_C@_1M@PJKFGCCO@?$AAe?$AAn?$AA?9?$AAj?$AAm?$AA?$AA@ 0000000180044d20     LIBCMT:winapinls.obj
 0002:00006d30       ??_C@_1M@KPPKEPBO@?$AAe?$AAn?$AA?9?$AAn?$AAz?$AA?$AA@ 0000000180044d30     LIBCMT:winapinls.obj
 0002:00006d40       ??_C@_1M@GMDGLDOB@?$AAe?$AAn?$AA?9?$AAp?$AAh?$AA?$AA@ 0000000180044d40     LIBCMT:winapinls.obj
 0002:00006d50       ??_C@_1M@ONGIBJNA@?$AAe?$AAn?$AA?9?$AAt?$AAt?$AA?$AA@ 0000000180044d50     LIBCMT:winapinls.obj
 0002:00006d60       ??_C@_1M@LLODPCMM@?$AAe?$AAn?$AA?9?$AAu?$AAs?$AA?$AA@ 0000000180044d60     LIBCMT:winapinls.obj
 0002:00006d70       ??_C@_1M@LAKFNPAN@?$AAe?$AAn?$AA?9?$AAz?$AAa?$AA?$AA@ 0000000180044d70     LIBCMT:winapinls.obj
 0002:00006d80       ??_C@_1M@MFNHNHEO@?$AAe?$AAn?$AA?9?$AAz?$AAw?$AA?$AA@ 0000000180044d80     LIBCMT:winapinls.obj
 0002:00006d90       ??_C@_1M@EJEINPHM@?$AAe?$AAs?$AA?9?$AAa?$AAr?$AA?$AA@ 0000000180044d90     LIBCMT:winapinls.obj
 0002:00006da0       ??_C@_1M@GNKPCCJA@?$AAe?$AAs?$AA?9?$AAb?$AAo?$AA?$AA@ 0000000180044da0     LIBCMT:winapinls.obj
 0002:00006db0       ??_C@_1M@LEEGFONL@?$AAe?$AAs?$AA?9?$AAc?$AAl?$AA?$AA@ 0000000180044db0     LIBCMT:winapinls.obj
 0002:00006dc0       ??_C@_1M@KGPDPBDF@?$AAe?$AAs?$AA?9?$AAc?$AAo?$AA?$AA@ 0000000180044dc0     LIBCMT:winapinls.obj
 0002:00006dd0       ??_C@_1M@EIAHOHH@?$AAe?$AAs?$AA?9?$AAc?$AAr?$AA?$AA@ 0000000180044dd0     LIBCMT:winapinls.obj
 0002:00006de0       ??_C@_1M@LLPGMBIN@?$AAe?$AAs?$AA?9?$AAd?$AAo?$AA?$AA@ 0000000180044de0     LIBCMT:winapinls.obj
 0002:00006df0       ??_C@_1M@DKHMKNJA@?$AAe?$AAs?$AA?9?$AAe?$AAc?$AA?$AA@ 0000000180044df0     LIBCMT:winapinls.obj
 0002:00006e00       ??_C@_1M@GKGFPKAP@?$AAe?$AAs?$AA?9?$AAe?$AAs?$AA?$AA@ 0000000180044e00     LIBCMT:winapinls.obj
 0002:00006e10       ??_C@_1M@LKHKGDLN@?$AAe?$AAs?$AA?9?$AAg?$AAt?$AA?$AA@ 0000000180044e10     LIBCMT:winapinls.obj
 0002:00006e20       ??_C@_1M@HEIIGGJD@?$AAe?$AAs?$AA?9?$AAh?$AAn?$AA?$AA@ 0000000180044e20     LIBCMT:winapinls.obj
 0002:00006e30       ??_C@_1M@FBDHPPGD@?$AAe?$AAs?$AA?9?$AAm?$AAx?$AA?$AA@ 0000000180044e30     LIBCMT:winapinls.obj
 0002:00006e40       ??_C@_1M@DPAGLNDH@?$AAe?$AAs?$AA?9?$AAn?$AAi?$AA?$AA@ 0000000180044e40     LIBCMT:winapinls.obj
 0002:00006e50       ??_C@_1M@MDGOPGDD@?$AAe?$AAs?$AA?9?$AAp?$AAa?$AA?$AA@ 0000000180044e50     LIBCMT:winapinls.obj
 0002:00006e60       ??_C@_1M@EMAMGBGE@?$AAe?$AAs?$AA?9?$AAp?$AAe?$AA?$AA@ 0000000180044e60     LIBCMT:winapinls.obj
 0002:00006e70       ??_C@_1M@IBMCAOEC@?$AAe?$AAs?$AA?9?$AAp?$AAr?$AA?$AA@ 0000000180044e70     LIBCMT:winapinls.obj
 0002:00006e80       ??_C@_1M@FGMDIJED@?$AAe?$AAs?$AA?9?$AAp?$AAy?$AA?$AA@ 0000000180044e80     LIBCMT:winapinls.obj
 0002:00006e90       ??_C@_1M@IIDEOLLL@?$AAe?$AAs?$AA?9?$AAs?$AAv?$AA?$AA@ 0000000180044e90     LIBCMT:winapinls.obj
 0002:00006ea0       ??_C@_1M@GAOBIPA@?$AAe?$AAs?$AA?9?$AAu?$AAy?$AA?$AA@ 0000000180044ea0     LIBCMT:winapinls.obj
 0002:00006eb0       ??_C@_1M@JKFFICHJ@?$AAe?$AAs?$AA?9?$AAv?$AAe?$AA?$AA@ 0000000180044eb0     LIBCMT:winapinls.obj
 0002:00006ec0       ??_C@_1M@PNMLOJDF@?$AAe?$AAt?$AA?9?$AAe?$AAe?$AA?$AA@ 0000000180044ec0     LIBCMT:winapinls.obj
 0002:00006ed0       ??_C@_1M@GHHLIKEI@?$AAe?$AAu?$AA?9?$AAe?$AAs?$AA?$AA@ 0000000180044ed0     LIBCMT:winapinls.obj
 0002:00006ee0       ??_C@_1M@PBNONODE@?$AAf?$AAa?$AA?9?$AAi?$AAr?$AA?$AA@ 0000000180044ee0     LIBCMT:winapinls.obj
 0002:00006ef0       ??_C@_1M@JEEHPMIL@?$AAf?$AAi?$AA?9?$AAf?$AAi?$AA?$AA@ 0000000180044ef0     LIBCMT:winapinls.obj
 0002:00006f00       ??_C@_1M@LMDCNDBA@?$AAf?$AAo?$AA?9?$AAf?$AAo?$AA?$AA@ 0000000180044f00     LIBCMT:winapinls.obj
 0002:00006f10       ??_C@_1M@JKEOHLDK@?$AAf?$AAr?$AA?9?$AAb?$AAe?$AA?$AA@ 0000000180044f10     LIBCMT:winapinls.obj
 0002:00006f20       ??_C@_1M@NOHADPMI@?$AAf?$AAr?$AA?9?$AAc?$AAa?$AA?$AA@ 0000000180044f20     LIBCMT:winapinls.obj
 0002:00006f30       ??_C@_1M@KDHIHAEC@?$AAf?$AAr?$AA?9?$AAc?$AAh?$AA?$AA@ 0000000180044f30     LIBCMT:winapinls.obj
 0002:00006f40       ??_C@_1M@MMBBFGAK@?$AAf?$AAr?$AA?9?$AAf?$AAr?$AA?$AA@ 0000000180044f40     LIBCMT:winapinls.obj
 0002:00006f50       ??_C@_1M@PAFNENNF@?$AAf?$AAr?$AA?9?$AAl?$AAu?$AA?$AA@ 0000000180044f50     LIBCMT:winapinls.obj
 0002:00006f60       ??_C@_1M@EOHDJGDD@?$AAf?$AAr?$AA?9?$AAm?$AAc?$AA?$AA@ 0000000180044f60     LIBCMT:winapinls.obj
 0002:00006f70       ??_C@_1M@FAPLLOPF@?$AAg?$AAl?$AA?9?$AAe?$AAs?$AA?$AA@ 0000000180044f70     LIBCMT:winapinls.obj
 0002:00006f80       ??_C@_1M@FOPBFLOO@?$AAg?$AAu?$AA?9?$AAi?$AAn?$AA?$AA@ 0000000180044f80     LIBCMT:winapinls.obj
 0002:00006f90       ??_C@_1M@KBMCINPM@?$AAh?$AAe?$AA?9?$AAi?$AAl?$AA?$AA@ 0000000180044f90     LIBCMT:winapinls.obj
 0002:00006fa0       ??_C@_1M@BBPHKFPJ@?$AAh?$AAi?$AA?9?$AAi?$AAn?$AA?$AA@ 0000000180044fa0     LIBCMT:winapinls.obj
 0002:00006fb0       ??_C@_1M@PMBNDPHD@?$AAh?$AAr?$AA?9?$AAb?$AAa?$AA?$AA@ 0000000180044fb0     LIBCMT:winapinls.obj
 0002:00006fc0       ??_C@_1M@BPCKOEGE@?$AAh?$AAr?$AA?9?$AAh?$AAr?$AA?$AA@ 0000000180044fc0     LIBCMT:winapinls.obj
 0002:00006fd0       ??_C@_1M@GACBMHKE@?$AAh?$AAu?$AA?9?$AAh?$AAu?$AA?$AA@ 0000000180044fd0     LIBCMT:winapinls.obj
 0002:00006fe0       ??_C@_1M@MILPAJJC@?$AAh?$AAy?$AA?9?$AAa?$AAm?$AA?$AA@ 0000000180044fe0     LIBCMT:winapinls.obj
 0002:00006ff0       ??_C@_1M@BABBICEC@?$AAi?$AAd?$AA?9?$AAi?$AAd?$AA?$AA@ 0000000180044ff0     LIBCMT:winapinls.obj
 0002:00007000       ??_C@_1M@BIKNHHPF@?$AAi?$AAs?$AA?9?$AAi?$AAs?$AA?$AA@ 0000000180045000     LIBCMT:winapinls.obj
 0002:00007010       ??_C@_1M@NMPCJPHE@?$AAi?$AAt?$AA?9?$AAc?$AAh?$AA?$AA@ 0000000180045010     LIBCMT:winapinls.obj
 0002:00007020       ??_C@_1M@GHKGFEDF@?$AAi?$AAt?$AA?9?$AAi?$AAt?$AA?$AA@ 0000000180045020     LIBCMT:winapinls.obj
 0002:00007030       ??_C@_1M@NIEJCJJA@?$AAj?$AAa?$AA?9?$AAj?$AAp?$AA?$AA@ 0000000180045030     LIBCMT:winapinls.obj
 0002:00007040       ??_C@_1M@JILFNBIM@?$AAk?$AAa?$AA?9?$AAg?$AAe?$AA?$AA@ 0000000180045040     LIBCMT:winapinls.obj
 0002:00007050       ??_C@_1M@PACPMGPH@?$AAk?$AAk?$AA?9?$AAk?$AAz?$AA?$AA@ 0000000180045050     LIBCMT:winapinls.obj
 0002:00007060       ??_C@_1M@IELFGMHA@?$AAk?$AAn?$AA?9?$AAi?$AAn?$AA?$AA@ 0000000180045060     LIBCMT:winapinls.obj
 0002:00007070       ??_C@_1O@IBBJHCH@?$AAk?$AAo?$AAk?$AA?9?$AAi?$AAn?$AA?$AA@ 0000000180045070     LIBCMT:winapinls.obj
 0002:00007080       ??_C@_1M@DMHAEOGC@?$AAk?$AAo?$AA?9?$AAk?$AAr?$AA?$AA@ 0000000180045080     LIBCMT:winapinls.obj
 0002:00007090       ??_C@_1M@HBAHBIGA@?$AAk?$AAy?$AA?9?$AAk?$AAg?$AA?$AA@ 0000000180045090     LIBCMT:winapinls.obj
 0002:000070a0       ??_C@_1M@KPMILCJG@?$AAl?$AAt?$AA?9?$AAl?$AAt?$AA?$AA@ 00000001800450a0     LIBCMT:winapinls.obj
 0002:000070b0       ??_C@_1M@BDEKKCA@?$AAl?$AAv?$AA?9?$AAl?$AAv?$AA?$AA@ 00000001800450b0     LIBCMT:winapinls.obj
 0002:000070c0       ??_C@_1M@ELCKCCJJ@?$AAm?$AAi?$AA?9?$AAn?$AAz?$AA?$AA@ 00000001800450c0     LIBCMT:winapinls.obj
 0002:000070d0       ??_C@_1M@CBOOLAPA@?$AAm?$AAk?$AA?9?$AAm?$AAk?$AA?$AA@ 00000001800450d0     LIBCMT:winapinls.obj
 0002:000070e0       ??_C@_1M@GPHNBJKN@?$AAm?$AAl?$AA?9?$AAi?$AAn?$AA?$AA@ 00000001800450e0     LIBCMT:winapinls.obj
 0002:000070f0       ??_C@_1M@PABJILIG@?$AAm?$AAn?$AA?9?$AAm?$AAn?$AA?$AA@ 00000001800450f0     LIBCMT:winapinls.obj
 0002:00007100       ??_C@_1M@FGBKKIPG@?$AAm?$AAr?$AA?9?$AAi?$AAn?$AA?$AA@ 0000000180045100     LIBCMT:winapinls.obj
 0002:00007110       ??_C@_1M@NDBPDDAL@?$AAm?$AAs?$AA?9?$AAb?$AAn?$AA?$AA@ 0000000180045110     LIBCMT:winapinls.obj
 0002:00007120       ??_C@_1M@OPIHOOPI@?$AAm?$AAs?$AA?9?$AAm?$AAy?$AA?$AA@ 0000000180045120     LIBCMT:winapinls.obj
 0002:00007130       ??_C@_1M@PPDBCNFM@?$AAm?$AAt?$AA?9?$AAm?$AAt?$AA?$AA@ 0000000180045130     LIBCMT:winapinls.obj
 0002:00007140       ??_C@_1M@KDJDKMDD@?$AAn?$AAb?$AA?9?$AAn?$AAo?$AA?$AA@ 0000000180045140     LIBCMT:winapinls.obj
 0002:00007150       ??_C@_1M@KFCFLMJP@?$AAn?$AAl?$AA?9?$AAb?$AAe?$AA?$AA@ 0000000180045150     LIBCMT:winapinls.obj
 0002:00007160       ??_C@_1M@KPOPDDGO@?$AAn?$AAl?$AA?9?$AAn?$AAl?$AA?$AA@ 0000000180045160     LIBCMT:winapinls.obj
 0002:00007170       ??_C@_1M@LJKPEMLN@?$AAn?$AAn?$AA?9?$AAn?$AAo?$AA?$AA@ 0000000180045170     LIBCMT:winapinls.obj
 0002:00007180       ??_C@_1M@BDGHHBFL@?$AAn?$AAs?$AA?9?$AAz?$AAa?$AA?$AA@ 0000000180045180     LIBCMT:winapinls.obj
 0002:00007190       ??_C@_1M@IDEHOAP@?$AAp?$AAa?$AA?9?$AAi?$AAn?$AA?$AA@ 0000000180045190     LIBCMT:winapinls.obj
 0002:000071a0       ??_C@_1M@HDBKGOGH@?$AAp?$AAl?$AA?9?$AAp?$AAl?$AA?$AA@ 00000001800451a0     LIBCMT:winapinls.obj
 0002:000071b0       ??_C@_1M@LJLLCMEH@?$AAp?$AAt?$AA?9?$AAb?$AAr?$AA?$AA@ 00000001800451b0     LIBCMT:winapinls.obj
 0002:000071c0       ??_C@_1M@NCMONAAL@?$AAp?$AAt?$AA?9?$AAp?$AAt?$AA?$AA@ 00000001800451c0     LIBCMT:winapinls.obj
 0002:000071d0       ??_C@_1O@EAKMAJDN@?$AAq?$AAu?$AAz?$AA?9?$AAb?$AAo?$AA?$AA@ 00000001800451d0     LIBCMT:winapinls.obj
 0002:000071e0       ??_C@_1O@BHHPIGDN@?$AAq?$AAu?$AAz?$AA?9?$AAe?$AAc?$AA?$AA@ 00000001800451e0     LIBCMT:winapinls.obj
 0002:000071f0       ??_C@_1O@GBAPEKMJ@?$AAq?$AAu?$AAz?$AA?9?$AAp?$AAe?$AA?$AA@ 00000001800451f0     LIBCMT:winapinls.obj
 0002:00007200       ??_C@_1M@CLGLEFBO@?$AAr?$AAo?$AA?9?$AAr?$AAo?$AA?$AA@ 0000000180045200     LIBCMT:winapinls.obj
 0002:00007210       ??_C@_1M@CEEDODME@?$AAr?$AAu?$AA?9?$AAr?$AAu?$AA?$AA@ 0000000180045210     LIBCMT:winapinls.obj
 0002:00007220       ??_C@_1M@HPKKKMPP@?$AAs?$AAa?$AA?9?$AAi?$AAn?$AA?$AA@ 0000000180045220     LIBCMT:winapinls.obj
 0002:00007230       ??_C@_1M@BKMAIGOJ@?$AAs?$AAe?$AA?9?$AAf?$AAi?$AA?$AA@ 0000000180045230     LIBCMT:winapinls.obj
 0002:00007240       ??_C@_1M@NDPIFLFI@?$AAs?$AAe?$AA?9?$AAn?$AAo?$AA?$AA@ 0000000180045240     LIBCMT:winapinls.obj
 0002:00007250       ??_C@_1M@DANKKHJ@?$AAs?$AAe?$AA?9?$AAs?$AAe?$AA?$AA@ 0000000180045250     LIBCMT:winapinls.obj
 0002:00007260       ??_C@_1M@PNBLONPJ@?$AAs?$AAk?$AA?9?$AAs?$AAk?$AA?$AA@ 0000000180045260     LIBCMT:winapinls.obj
 0002:00007270       ??_C@_1M@LFMODOAL@?$AAs?$AAl?$AA?9?$AAs?$AAi?$AA?$AA@ 0000000180045270     LIBCMT:winapinls.obj
 0002:00007280       ??_C@_1O@DFKOMPG@?$AAs?$AAm?$AAa?$AA?9?$AAn?$AAo?$AA?$AA@ 0000000180045280     LIBCMT:winapinls.obj
 0002:00007290       ??_C@_1O@NDKPBNNH@?$AAs?$AAm?$AAa?$AA?9?$AAs?$AAe?$AA?$AA@ 0000000180045290     LIBCMT:winapinls.obj
 0002:000072a0       ??_C@_1O@PLLKBHAB@?$AAs?$AAm?$AAj?$AA?9?$AAn?$AAo?$AA?$AA@ 00000001800452a0     LIBCMT:winapinls.obj
 0002:000072b0       ??_C@_1O@CLEPOGCA@?$AAs?$AAm?$AAj?$AA?9?$AAs?$AAe?$AA?$AA@ 00000001800452b0     LIBCMT:winapinls.obj
 0002:000072c0       ??_C@_1O@DLGJGKMK@?$AAs?$AAm?$AAn?$AA?9?$AAf?$AAi?$AA?$AA@ 00000001800452c0     LIBCMT:winapinls.obj
 0002:000072d0       ??_C@_1O@OJDJGAJC@?$AAs?$AAm?$AAs?$AA?9?$AAf?$AAi?$AA?$AA@ 00000001800452d0     LIBCMT:winapinls.obj
 0002:000072e0       ??_C@_1M@BOFOGHPB@?$AAs?$AAq?$AA?9?$AAa?$AAl?$AA?$AA@ 00000001800452e0     LIBCMT:winapinls.obj
 0002:000072f0       ??_C@_1BG@LJBBIPGB@?$AAs?$AAr?$AA?9?$AAb?$AAa?$AA?9?$AAc?$AAy?$AAr?$AAl?$AA?$AA@ 00000001800452f0     LIBCMT:winapinls.obj
 0002:00007308       ??_C@_1BG@JLBENFOE@?$AAs?$AAr?$AA?9?$AAb?$AAa?$AA?9?$AAl?$AAa?$AAt?$AAn?$AA?$AA@ 0000000180045308     LIBCMT:winapinls.obj
 0002:00007320       ??_C@_1BG@KODPNHE@?$AAs?$AAr?$AA?9?$AAs?$AAp?$AA?9?$AAc?$AAy?$AAr?$AAl?$AA?$AA@ 0000000180045320     LIBCMT:winapinls.obj
 0002:00007338       ??_C@_1BG@CIOGKHPB@?$AAs?$AAr?$AA?9?$AAs?$AAp?$AA?9?$AAl?$AAa?$AAt?$AAn?$AA?$AA@ 0000000180045338     LIBCMT:winapinls.obj
 0002:00007350       ??_C@_1M@NGFJLMAC@?$AAs?$AAv?$AA?9?$AAf?$AAi?$AA?$AA@ 0000000180045350     LIBCMT:winapinls.obj
 0002:00007360       ??_C@_1M@MPJEJAJC@?$AAs?$AAv?$AA?9?$AAs?$AAe?$AA?$AA@ 0000000180045360     LIBCMT:winapinls.obj
 0002:00007370       ??_C@_1M@MPNDHLFK@?$AAs?$AAw?$AA?9?$AAk?$AAe?$AA?$AA@ 0000000180045370     LIBCMT:winapinls.obj
 0002:00007380       ??_C@_1O@KOHBJJI@?$AAs?$AAy?$AAr?$AA?9?$AAs?$AAy?$AA?$AA@ 0000000180045380     LIBCMT:winapinls.obj
 0002:00007390       ??_C@_1M@LDCEFHA@?$AAt?$AAa?$AA?9?$AAi?$AAn?$AA?$AA@ 0000000180045390     LIBCMT:winapinls.obj
 0002:000073a0       ??_C@_1M@CNJOFAK@?$AAt?$AAe?$AA?9?$AAi?$AAn?$AA?$AA@ 00000001800453a0     LIBCMT:winapinls.obj
 0002:000073b0       ??_C@_1M@GNAECACD@?$AAt?$AAh?$AA?9?$AAt?$AAh?$AA?$AA@ 00000001800453b0     LIBCMT:winapinls.obj
 0002:000073c0       ??_C@_1M@CHBIHOJO@?$AAt?$AAn?$AA?9?$AAz?$AAa?$AA?$AA@ 00000001800453c0     LIBCMT:winapinls.obj
 0002:000073d0       ??_C@_1M@GCCMIGPJ@?$AAt?$AAr?$AA?9?$AAt?$AAr?$AA?$AA@ 00000001800453d0     LIBCMT:winapinls.obj
 0002:000073e0       ??_C@_1M@CELMCNBK@?$AAt?$AAt?$AA?9?$AAr?$AAu?$AA?$AA@ 00000001800453e0     LIBCMT:winapinls.obj
 0002:000073f0       ??_C@_1M@KLMCELGA@?$AAu?$AAk?$AA?9?$AAu?$AAa?$AA?$AA@ 00000001800453f0     LIBCMT:winapinls.obj
 0002:00007400       ??_C@_1M@EPAJJAJF@?$AAu?$AAr?$AA?9?$AAp?$AAk?$AA?$AA@ 0000000180045400     LIBCMT:winapinls.obj
 0002:00007410       ??_C@_1BG@GEGPMCDJ@?$AAu?$AAz?$AA?9?$AAu?$AAz?$AA?9?$AAc?$AAy?$AAr?$AAl?$AA?$AA@ 0000000180045410     LIBCMT:winapinls.obj
 0002:00007428       ??_C@_1BG@EGGKJILM@?$AAu?$AAz?$AA?9?$AAu?$AAz?$AA?9?$AAl?$AAa?$AAt?$AAn?$AA?$AA@ 0000000180045428     LIBCMT:winapinls.obj
 0002:00007440       ??_C@_1M@GFOCLFF@?$AAv?$AAi?$AA?9?$AAv?$AAn?$AA?$AA@ 0000000180045440     LIBCMT:winapinls.obj
 0002:00007450       ??_C@_1M@CPAMEDFI@?$AAx?$AAh?$AA?9?$AAz?$AAa?$AA?$AA@ 0000000180045450     LIBCMT:winapinls.obj
 0002:00007460       ??_C@_1O@EBKIFIGN@?$AAz?$AAh?$AA?9?$AAc?$AAh?$AAs?$AA?$AA@ 0000000180045460     LIBCMT:winapinls.obj
 0002:00007470       ??_C@_1O@NMHPGANE@?$AAz?$AAh?$AA?9?$AAc?$AAh?$AAt?$AA?$AA@ 0000000180045470     LIBCMT:winapinls.obj
 0002:00007480       ??_C@_1M@LPINJOMC@?$AAz?$AAh?$AA?9?$AAc?$AAn?$AA?$AA@ 0000000180045480     LIBCMT:winapinls.obj
 0002:00007490       ??_C@_1M@OCJEJODD@?$AAz?$AAh?$AA?9?$AAh?$AAk?$AA?$AA@ 0000000180045490     LIBCMT:winapinls.obj
 0002:000074a0       ??_C@_1M@DNDLJINH@?$AAz?$AAh?$AA?9?$AAm?$AAo?$AA?$AA@ 00000001800454a0     LIBCMT:winapinls.obj
 0002:000074b0       ??_C@_1M@MBFDNDND@?$AAz?$AAh?$AA?9?$AAs?$AAg?$AA?$AA@ 00000001800454b0     LIBCMT:winapinls.obj
 0002:000074c0       ??_C@_1M@IMEPLEPE@?$AAz?$AAh?$AA?9?$AAt?$AAw?$AA?$AA@ 00000001800454c0     LIBCMT:winapinls.obj
 0002:000074d0       ??_C@_1M@BBGHNHJP@?$AAz?$AAu?$AA?9?$AAz?$AAa?$AA?$AA@ 00000001800454d0     LIBCMT:winapinls.obj
 0002:000074e0       _XcptActTab                00000001800454e0     LIBCMT:winxfltr.obj
 0002:000075a0       _XcptActTabCount           00000001800455a0     LIBCMT:winxfltr.obj
 0002:000075a4       _XcptActTabSize            00000001800455a4     LIBCMT:winxfltr.obj
 0002:000075a8       _First_FPE_Indx            00000001800455a8     LIBCMT:winxfltr.obj
 0002:000075ac       _Num_FPE                   00000001800455ac     LIBCMT:winxfltr.obj
 0002:000075b0       ??_C@_05KLBDPFGC@e?$CL000?$AA@ 00000001800455b0     LIBCMT:cvt.obj
 0002:000075b8       __real@0000000000000000    00000001800455b8     LIBCMT:cvt.obj
 0002:000075e8       ??_C@_1BG@GOEBHBDC@?$AAU?$AAS?$AAE?$AAR?$AA3?$AA2?$AA?4?$AAD?$AAL?$AAL?$AA?$AA@ 00000001800455e8     LIBCMT:crtmboxw.obj
 0002:00007600       ??_C@_0M@DLDCCGNP@MessageBoxW?$AA@ 0000000180045600     LIBCMT:crtmboxw.obj
 0002:00007610       ??_C@_0BA@HNOPNCHB@GetActiveWindow?$AA@ 0000000180045610     LIBCMT:crtmboxw.obj
 0002:00007620       ??_C@_0BD@HHGDFDBJ@GetLastActivePopup?$AA@ 0000000180045620     LIBCMT:crtmboxw.obj
 0002:00007638       ??_C@_0BK@DEKFELLI@GetUserObjectInformationW?$AA@ 0000000180045638     LIBCMT:crtmboxw.obj
 0002:00007658       ??_C@_0BI@DFKBFLJE@GetProcessWindowStation?$AA@ 0000000180045658     LIBCMT:crtmboxw.obj
 0002:00007988       ??_C@_08EHJDFFNH@__based?$CI?$AA@ 0000000180045988     LIBCMT:undname.obj
 0002:00007998       ??_C@_07KOLFKCDI@__cdecl?$AA@ 0000000180045998     LIBCMT:undname.obj
 0002:000079a0       ??_C@_08GHMPAG@__pascal?$AA@ 00000001800459a0     LIBCMT:undname.obj
 0002:000079b0       ??_C@_09IFJBGAPI@__stdcall?$AA@ 00000001800459b0     LIBCMT:undname.obj
 0002:000079c0       ??_C@_0L@NPHFGOKO@__thiscall?$AA@ 00000001800459c0     LIBCMT:undname.obj
 0002:000079d0       ??_C@_0L@JMKHOMEK@__fastcall?$AA@ 00000001800459d0     LIBCMT:undname.obj
 0002:000079e0       ??_C@_0N@BCKKPABJ@__vectorcall?$AA@ 00000001800459e0     LIBCMT:undname.obj
 0002:000079f0       ??_C@_09HIJEGCPM@__clrcall?$AA@ 00000001800459f0     LIBCMT:undname.obj
 0002:000079fc       ??_C@_06GHPCKEAG@__eabi?$AA@ 00000001800459fc     LIBCMT:undname.obj
 0002:00007a08       ??_C@_07JOMMBBKO@__ptr64?$AA@ 0000000180045a08     LIBCMT:undname.obj
 0002:00007a10       ??_C@_0L@PILCLIHE@__restrict?$AA@ 0000000180045a10     LIBCMT:undname.obj
 0002:00007a20       ??_C@_0M@GFIIJFMG@__unaligned?$AA@ 0000000180045a20     LIBCMT:undname.obj
 0002:00007a30       ??_C@_09DHDLOLLB@restrict?$CI?$AA@ 0000000180045a30     LIBCMT:undname.obj
 0002:00007a3a       ??_C@_00CNPNBAHC@?$AA@     0000000180045a3a     LIBCMT:undname.obj
 0002:00007a3c       ??_C@_04NIHEBCM@?5new?$AA@ 0000000180045a3c     LIBCMT:undname.obj
 0002:00007a48       ??_C@_07FPCDHGMM@?5delete?$AA@ 0000000180045a48     LIBCMT:undname.obj
 0002:00007a50       ??_C@_01NEMOKFLO@?$DN?$AA@ 0000000180045a50     LIBCMT:undname.obj
 0002:00007a54       ??_C@_02GPIOPFAK@?$DO?$DO?$AA@ 0000000180045a54     LIBCMT:undname.obj
 0002:00007a58       ??_C@_02FODMEDOG@?$DM?$DM?$AA@ 0000000180045a58     LIBCMT:undname.obj
 0002:00007a5c       ??_C@_01DCLJPIOD@?$CB?$AA@ 0000000180045a5c     LIBCMT:undname.obj
 0002:00007a60       ??_C@_02EGOFBIJA@?$DN?$DN?$AA@ 0000000180045a60     LIBCMT:undname.obj
 0002:00007a64       ??_C@_02FDNJECIE@?$CB?$DN?$AA@ 0000000180045a64     LIBCMT:undname.obj
 0002:00007a68       ??_C@_02GPECMEKF@?$FL?$FN?$AA@ 0000000180045a68     LIBCMT:undname.obj
 0002:00007a70       ??_C@_08LHJFAFGD@operator?$AA@ 0000000180045a70     LIBCMT:undname.obj
 0002:00007a7c       ??_C@_02HBOOOICD@?9?$DO?$AA@ 0000000180045a7c     LIBCMT:undname.obj
 0002:00007a80       ??_C@_01NBENCBCI@?$CK?$AA@ 0000000180045a80     LIBCMT:undname.obj
 0002:00007a84       ??_C@_02ECNGHCIF@?$CL?$CL?$AA@ 0000000180045a84     LIBCMT:undname.obj
 0002:00007a88       ??_C@_02BAABKJLB@?9?9?$AA@ 0000000180045a88     LIBCMT:undname.obj
 0002:00007a8c       ??_C@_01JOAMLHOP@?9?$AA@   0000000180045a8c     LIBCMT:undname.obj
 0002:00007a90       ??_C@_01MIFGBAGJ@?$CL?$AA@ 0000000180045a90     LIBCMT:undname.obj
 0002:00007a94       ??_C@_01HNPIGOCE@?$CG?$AA@ 0000000180045a94     LIBCMT:undname.obj
 0002:00007a98       ??_C@_03MNHNFDLC@?9?$DO?$CK?$AA@ 0000000180045a98     LIBCMT:undname.obj
 0002:00007a9c       ??_C@_01KMDKNFGN@?1?$AA@   0000000180045a9c     LIBCMT:undname.obj
 0002:00007aa0       ??_C@_01FGNFDNOH@?$CF?$AA@ 0000000180045aa0     LIBCMT:undname.obj
 0002:00007aa4       ??_C@_01MNNFJEPP@?$DM?$AA@ 0000000180045aa4     LIBCMT:undname.obj
 0002:00007aa8       ??_C@_02EHCHHCKH@?$DM?$DN?$AA@ 0000000180045aa8     LIBCMT:undname.obj
 0002:00007aac       ??_C@_01PPODPGHN@?$DO?$AA@ 0000000180045aac     LIBCMT:undname.obj
 0002:00007ab0       ??_C@_02EEKDKGMJ@?$DO?$DN?$AA@ 0000000180045ab0     LIBCMT:undname.obj
 0002:00007ab4       ??_C@_01IHBHIGKO@?0?$AA@   0000000180045ab4     LIBCMT:undname.obj
 0002:00007ab8       ??_C@_02HCKGKOFO@?$CI?$CJ?$AA@ 0000000180045ab8     LIBCMT:undname.obj
 0002:00007abc       ??_C@_01PJKLJHI@?$HO?$AA@  0000000180045abc     LIBCMT:undname.obj
 0002:00007ac0       ??_C@_01JKBOJNNK@?$FO?$AA@ 0000000180045ac0     LIBCMT:undname.obj
 0002:00007ac4       ??_C@_01DNKMNLPK@?$HM?$AA@ 0000000180045ac4     LIBCMT:undname.obj
 0002:00007ac8       ??_C@_02PPKAJPJL@?$CG?$CG?$AA@ 0000000180045ac8     LIBCMT:undname.obj
 0002:00007acc       ??_C@_02NONPIBCD@?$HM?$HM?$AA@ 0000000180045acc     LIBCMT:undname.obj
 0002:00007ad0       ??_C@_02FPIMKNGF@?$CK?$DN?$AA@ 0000000180045ad0     LIBCMT:undname.obj
 0002:00007ad4       ??_C@_02FOEOMHFC@?$CL?$DN?$AA@ 0000000180045ad4     LIBCMT:undname.obj
 0002:00007ad8       ??_C@_02FKMDLLOA@?9?$DN?$AA@ 0000000180045ad8     LIBCMT:undname.obj
 0002:00007adc       ??_C@_02FJEHGPIO@?1?$DN?$AA@ 0000000180045adc     LIBCMT:undname.obj
 0002:00007ae0       ??_C@_02FENAOKFI@?$CF?$DN?$AA@ 0000000180045ae0     LIBCMT:undname.obj
 0002:00007ae4       ??_C@_03IKFCCPFF@?$DO?$DO?$DN?$AA@ 0000000180045ae4     LIBCMT:undname.obj
 0002:00007ae8       ??_C@_03CDNPDDLA@?$DM?$DM?$DN?$AA@ 0000000180045ae8     LIBCMT:undname.obj
 0002:00007aec       ??_C@_02FGJGFEAB@?$CG?$DN?$AA@ 0000000180045aec     LIBCMT:undname.obj
 0002:00007af0       ??_C@_02DHLNPPGH@?$HM?$DN?$AA@ 0000000180045af0     LIBCMT:undname.obj
 0002:00007af4       ??_C@_02MHEGNOJ@?$FO?$DN?$AA@ 0000000180045af4     LIBCMT:undname.obj
 0002:00007af8       ??_C@_09IFPLHPGF@?$GAvftable?8?$AA@ 0000000180045af8     LIBCMT:undname.obj
 0002:00007b08       ??_C@_09BLBHBJP@?$GAvbtable?8?$AA@ 0000000180045b08     LIBCMT:undname.obj
 0002:00007b18       ??_C@_07FEEIOKP@?$GAvcall?8?$AA@ 0000000180045b18     LIBCMT:undname.obj
 0002:00007b20       ??_C@_08LLFFHHDJ@?$GAtypeof?8?$AA@ 0000000180045b20     LIBCMT:undname.obj
 0002:00007b30       ??_C@_0BF@KDPPACIK@?$GAlocal?5static?5guard?8?$AA@ 0000000180045b30     LIBCMT:undname.obj
 0002:00007b48       ??_C@_08OBABFOLI@?$GAstring?8?$AA@ 0000000180045b48     LIBCMT:undname.obj
 0002:00007b58       ??_C@_0BD@JDLKDPAB@?$GAvbase?5destructor?8?$AA@ 0000000180045b58     LIBCMT:undname.obj
 0002:00007b70       ??_C@_0BN@DEGPLNFK@?$GAvector?5deleting?5destructor?8?$AA@ 0000000180045b70     LIBCMT:undname.obj
 0002:00007b90       ??_C@_0BO@OBMKPJIG@?$GAdefault?5constructor?5closure?8?$AA@ 0000000180045b90     LIBCMT:undname.obj
 0002:00007bb0       ??_C@_0BN@IMDCHIKM@?$GAscalar?5deleting?5destructor?8?$AA@ 0000000180045bb0     LIBCMT:undname.obj
 0002:00007bd0       ??_C@_0BO@PFGOCPJJ@?$GAvector?5constructor?5iterator?8?$AA@ 0000000180045bd0     LIBCMT:undname.obj
 0002:00007bf0       ??_C@_0BN@LFPFMEDL@?$GAvector?5destructor?5iterator?8?$AA@ 0000000180045bf0     LIBCMT:undname.obj
 0002:00007c10       ??_C@_0CE@IKBNEHA@?$GAvector?5vbase?5constructor?5iterat@ 0000000180045c10     LIBCMT:undname.obj
 0002:00007c38       ??_C@_0BL@NILFHHPC@?$GAvirtual?5displacement?5map?8?$AA@ 0000000180045c38     LIBCMT:undname.obj
 0002:00007c58       ??_C@_0CB@JONCMFFK@?$GAeh?5vector?5constructor?5iterator?8@ 0000000180045c58     LIBCMT:undname.obj
 0002:00007c80       ??_C@_0CA@GCEOPDGL@?$GAeh?5vector?5destructor?5iterator?8?$AA@ 0000000180045c80     LIBCMT:undname.obj
 0002:00007ca0       ??_C@_0CH@OOJPLCPH@?$GAeh?5vector?5vbase?5constructor?5ite@ 0000000180045ca0     LIBCMT:undname.obj
 0002:00007cc8       ??_C@_0BL@LLKPOHJI@?$GAcopy?5constructor?5closure?8?$AA@ 0000000180045cc8     LIBCMT:undname.obj
 0002:00007ce8       ??_C@_0BA@KBCDOMBN@?$GAudt?5returning?8?$AA@ 0000000180045ce8     LIBCMT:undname.obj
 0002:00007cf8       ??_C@_03KLGMFNMG@?$GAEH?$AA@ 0000000180045cf8     LIBCMT:undname.obj
 0002:00007cfc       ??_C@_05KHLCHHI@?$GARTTI?$AA@ 0000000180045cfc     LIBCMT:undname.obj
 0002:00007d08       ??_C@_0BA@KKLDJDLB@?$GAlocal?5vftable?8?$AA@ 0000000180045d08     LIBCMT:undname.obj
 0002:00007d18       ??_C@_0CE@IIHCMGGL@?$GAlocal?5vftable?5constructor?5closu@ 0000000180045d18     LIBCMT:undname.obj
 0002:00007d3c       ??_C@_06FHBGPFGH@?5new?$FL?$FN?$AA@ 0000000180045d3c     LIBCMT:undname.obj
 0002:00007d48       ??_C@_09LBNFPBCA@?5delete?$FL?$FN?$AA@ 0000000180045d48     LIBCMT:undname.obj
 0002:00007d58       ??_C@_0P@HJKNJFNN@?$GAomni?5callsig?8?$AA@ 0000000180045d58     LIBCMT:undname.obj
 0002:00007d68       ??_C@_0BL@CNOONJFP@?$GAplacement?5delete?5closure?8?$AA@ 0000000180045d68     LIBCMT:undname.obj
 0002:00007d88       ??_C@_0BN@CKNJLHMB@?$GAplacement?5delete?$FL?$FN?5closure?8?$AA@ 0000000180045d88     LIBCMT:undname.obj
 0002:00007da8       ??_C@_0CG@CFDHKGGD@?$GAmanaged?5vector?5constructor?5iter@ 0000000180045da8     LIBCMT:undname.obj
 0002:00007dd0       ??_C@_0CF@IMGKMJNO@?$GAmanaged?5vector?5destructor?5itera@ 0000000180045dd0     LIBCMT:undname.obj
 0002:00007df8       ??_C@_0CG@HLDDJMAG@?$GAeh?5vector?5copy?5constructor?5iter@ 0000000180045df8     LIBCMT:undname.obj
 0002:00007e20       ??_C@_0CM@FCBBDIGB@?$GAeh?5vector?5vbase?5copy?5constructo@ 0000000180045e20     LIBCMT:undname.obj
 0002:00007e50       ??_C@_0BL@CLIPGLGB@?$GAdynamic?5initializer?5for?5?8?$AA@ 0000000180045e50     LIBCMT:undname.obj
 0002:00007e70       ??_C@_0CB@PDBIFEP@?$GAdynamic?5atexit?5destructor?5for?5?8@ 0000000180045e70     LIBCMT:undname.obj
 0002:00007e98       ??_C@_0CD@CGAJBKEJ@?$GAvector?5copy?5constructor?5iterato@ 0000000180045e98     LIBCMT:undname.obj
 0002:00007ec0       ??_C@_0CJ@GJELGAMM@?$GAvector?5vbase?5copy?5constructor?5i@ 0000000180045ec0     LIBCMT:undname.obj
 0002:00007ef0       ??_C@_0CL@FGIJHLCE@?$GAmanaged?5vector?5copy?5constructor@ 0000000180045ef0     LIBCMT:undname.obj
 0002:00007f20       ??_C@_0BM@PMGGMLDN@?$GAlocal?5static?5thread?5guard?8?$AA@ 0000000180045f20     LIBCMT:undname.obj
 0002:00007f40       ??_C@_0BC@DAFEJGAK@?5Type?5Descriptor?8?$AA@ 0000000180045f40     LIBCMT:undname.obj
 0002:00007f58       ??_C@_0BM@LDKODKLH@?5Base?5Class?5Descriptor?5at?5?$CI?$AA@ 0000000180045f58     LIBCMT:undname.obj
 0002:00007f78       ??_C@_0BD@LGICGFMM@?5Base?5Class?5Array?8?$AA@ 0000000180045f78     LIBCMT:undname.obj
 0002:00007f90       ??_C@_0BN@MECKDCOJ@?5Class?5Hierarchy?5Descriptor?8?$AA@ 0000000180045f90     LIBCMT:undname.obj
 0002:00007fb0       ??_C@_0BK@CFCOFLF@?5Complete?5Object?5Locator?8?$AA@ 0000000180045fb0     LIBCMT:undname.obj
 0002:00007fcc       ??_C@_04HEJADOOB@CV?3?5?$AA@ 0000000180045fcc     LIBCMT:undname.obj
 0002:00007fd4       ??_C@_02MOLJINC@?3?3?$AA@  0000000180045fd4     LIBCMT:undname.obj
 0002:00007fd8       ??_C@_0BE@JAEOCHPE@template?9parameter?9?$AA@ 0000000180045fd8     LIBCMT:undname.obj
 0002:00007ff0       ??_C@_0O@KHGCOMHP@generic?9type?9?$AA@ 0000000180045ff0     LIBCMT:undname.obj
 0002:00008000       ??_C@_01NLNLIGKH@?$GA?$AA@ 0000000180046000     LIBCMT:undname.obj
 0002:00008004       ??_C@_01GEODFPGF@?8?$AA@   0000000180046004     LIBCMT:undname.obj
 0002:00008008       ??_C@_0BG@JNJLAMPM@?$GAanonymous?5namespace?8?$AA@ 0000000180046008     LIBCMT:undname.obj
 0002:00008020       ??_C@_02OHHJMEON@?8?8?$AA@ 0000000180046020     LIBCMT:undname.obj
 0002:00008028       ??_C@_0BN@IBLMMFAP@?$GAnon?9type?9template?9parameter?$AA@ 0000000180046028     LIBCMT:undname.obj
 0002:00008048       ??_C@_04GKJNKENE@void?$AA@ 0000000180046048     LIBCMT:undname.obj
 0002:00008050       ??_C@_0BE@EODMJLIF@?$GAtemplate?9parameter?$AA@ 0000000180046050     LIBCMT:undname.obj
 0002:00008064       ??_C@_03KHICJKCI@?4?4?4?$AA@ 0000000180046064     LIBCMT:undname.obj
 0002:00008068       ??_C@_04HIBGFPH@NULL?$AA@  0000000180046068     LIBCMT:undname.obj
 0002:00008070       ??_C@_03OPGICMGF@?$HN?8?5?$AA@ 0000000180046070     LIBCMT:undname.obj
 0002:00008074       ??_C@_02IGFCGPIL@?$HN?8?$AA@ 0000000180046074     LIBCMT:undname.obj
 0002:00008078       ??_C@_01CLKCMJKC@?5?$AA@   0000000180046078     LIBCMT:undname.obj
 0002:00008080       ??_C@_0N@CBHHHENL@?$GAvtordispex?$HL?$AA@ 0000000180046080     LIBCMT:undname.obj
 0002:00008090       ??_C@_0L@GHPFDFH@?$GAvtordisp?$HL?$AA@ 0000000180046090     LIBCMT:undname.obj
 0002:000080a0       ??_C@_0L@HNGCOGAE@?$GAadjustor?$HL?$AA@ 00000001800460a0     LIBCMT:undname.obj
 0002:000080b0       ??_C@_0CB@KJDOOODE@?$GAlocal?5static?5destructor?5helper?8@ 00000001800460b0     LIBCMT:undname.obj
 0002:000080d8       ??_C@_0DB@ILEFOCIJ@?$GAtemplate?5static?5data?5member?5con@ 00000001800460d8     LIBCMT:undname.obj
 0002:00008110       ??_C@_0DA@HGFJFBBE@?$GAtemplate?5static?5data?5member?5des@ 0000000180046110     LIBCMT:undname.obj
 0002:00008140       ??_C@_07PGOEDBHP@static?5?$AA@ 0000000180046140     LIBCMT:undname.obj
 0002:00008148       ??_C@_08NIEOINHE@virtual?5?$AA@ 0000000180046148     LIBCMT:undname.obj
 0002:00008158       ??_C@_09LAPHOOG@private?3?5?$AA@ 0000000180046158     LIBCMT:undname.obj
 0002:00008168       ??_C@_0M@GAIFPFIP@protected?3?5?$AA@ 0000000180046168     LIBCMT:undname.obj
 0002:00008178       ??_C@_08GPDDCMKI@public?3?5?$AA@ 0000000180046178     LIBCMT:undname.obj
 0002:00008188       ??_C@_08KJLFOPNE@?$FLthunk?$FN?3?$AA@ 0000000180046188     LIBCMT:undname.obj
 0002:00008198       ??_C@_0M@DHNBOJMP@extern?5?$CCC?$CC?5?$AA@ 0000000180046198     LIBCMT:undname.obj
 0002:000081a4       ??_C@_02KCKGHPCA@?$CJ?5?$AA@ 00000001800461a4     LIBCMT:undname.obj
 0002:000081a8       ??_C@_05CIHEBHNO@char?5?$AA@ 00000001800461a8     LIBCMT:undname.obj
 0002:000081b0       ??_C@_06EHJMALKF@short?5?$AA@ 00000001800461b0     LIBCMT:undname.obj
 0002:000081b8       ??_C@_04LAHKHJMA@int?5?$AA@ 00000001800461b8     LIBCMT:undname.obj
 0002:000081c0       ??_C@_05CJIMAING@long?5?$AA@ 00000001800461c0     LIBCMT:undname.obj
 0002:000081c8       ??_C@_09EBBEKKIH@unsigned?5?$AA@ 00000001800461c8     LIBCMT:undname.obj
 0002:000081d4       ??_C@_05BEFAKPML@void?5?$AA@ 00000001800461d4     LIBCMT:undname.obj
 0002:000081e0       ??_C@_08PABEKFH@volatile?$AA@ 00000001800461e0     LIBCMT:undname.obj
 0002:000081f0       ??_C@_0P@GCOCNKDM@std?3?3nullptr_t?$AA@ 00000001800461f0     LIBCMT:undname.obj
 0002:00008200       ??_C@_0L@EGPHHEKN@?$DMellipsis?$DO?$AA@ 0000000180046200     LIBCMT:undname.obj
 0002:0000820c       ??_C@_04EENFHACM@?0?4?4?4?$AA@ 000000018004620c     LIBCMT:undname.obj
 0002:00008218       ??_C@_0M@ELJOJFFH@?0?$DMellipsis?$DO?$AA@ 0000000180046218     LIBCMT:undname.obj
 0002:00008228       ??_C@_07HDJPLPEK@?5throw?$CI?$AA@ 0000000180046228     LIBCMT:undname.obj
 0002:00008230       ??_C@_03PBJBJNON@cpu?$AA@  0000000180046230     LIBCMT:undname.obj
 0002:00008234       ??_C@_03DCBBJBAA@amp?$AA@  0000000180046234     LIBCMT:undname.obj
 0002:00008238       ??_C@_02KEGNLNML@?0?5?$AA@ 0000000180046238     LIBCMT:undname.obj
 0002:0000823c       ??_C@_04ENMBGAPA@char?$AA@ 000000018004623c     LIBCMT:undname.obj
 0002:00008244       ??_C@_05BFKKPKCG@short?$AA@ 0000000180046244     LIBCMT:undname.obj
 0002:0000824c       ??_C@_03JBIPMCLC@int?$AA@  000000018004624c     LIBCMT:undname.obj
 0002:00008250       ??_C@_04GOKPGOLB@long?$AA@ 0000000180046250     LIBCMT:undname.obj
 0002:00008258       ??_C@_05KNFBNCOH@float?$AA@ 0000000180046258     LIBCMT:undname.obj
 0002:00008260       ??_C@_06BNJCAIGJ@double?$AA@ 0000000180046260     LIBCMT:undname.obj
 0002:00008268       ??_C@_04DDKJGDCM@bool?$AA@ 0000000180046268     LIBCMT:undname.obj
 0002:00008270       ??_C@_06EBGKOKIG@__int8?$AA@ 0000000180046270     LIBCMT:undname.obj
 0002:00008278       ??_C@_07ICFHOGAF@__int16?$AA@ 0000000180046278     LIBCMT:undname.obj
 0002:00008280       ??_C@_07OFLPPHGP@__int32?$AA@ 0000000180046280     LIBCMT:undname.obj
 0002:00008288       ??_C@_07LFCOJCAC@__int64?$AA@ 0000000180046288     LIBCMT:undname.obj
 0002:00008290       ??_C@_08GAHOLHEO@__int128?$AA@ 0000000180046290     LIBCMT:undname.obj
 0002:000082a0       ??_C@_09EEKGDCPH@?$DMunknown?$DO?$AA@ 00000001800462a0     LIBCMT:undname.obj
 0002:000082b0       ??_C@_07CLGGIAMF@wchar_t?$AA@ 00000001800462b0     LIBCMT:undname.obj
 0002:000082b8       ??_C@_06GCICPBLB@__w64?5?$AA@ 00000001800462b8     LIBCMT:undname.obj
 0002:000082c0       ??_C@_07NFANNNEC@UNKNOWN?$AA@ 00000001800462c0     LIBCMT:undname.obj
 0002:000082c8       ??_C@_07EDHNAJHC@signed?5?$AA@ 00000001800462c8     LIBCMT:undname.obj
 0002:000082d0       ??_C@_05BNCCCJPP@const?$AA@ 00000001800462d0     LIBCMT:undname.obj
 0002:000082d8       ??_C@_09EFNPDFFP@?5volatile?$AA@ 00000001800462d8     LIBCMT:undname.obj
 0002:000082e8       ??_C@_0P@GCIFDJCJ@?$GAunknown?5ecsu?8?$AA@ 00000001800462e8     LIBCMT:undname.obj
 0002:000082f8       ??_C@_06MOJHIBMG@union?5?$AA@ 00000001800462f8     LIBCMT:undname.obj
 0002:00008300       ??_C@_07DIBCDNGL@struct?5?$AA@ 0000000180046300     LIBCMT:undname.obj
 0002:00008308       ??_C@_06LJBABKPM@class?5?$AA@ 0000000180046308     LIBCMT:undname.obj
 0002:00008310       ??_C@_08KOFANOFK@coclass?5?$AA@ 0000000180046310     LIBCMT:undname.obj
 0002:00008320       ??_C@_0N@DLIEFKNA@cointerface?5?$AA@ 0000000180046320     LIBCMT:undname.obj
 0002:00008330       ??_C@_05LJGMCFOG@enum?5?$AA@ 0000000180046330     LIBCMT:undname.obj
 0002:00008338       ??_C@_09GAIEOBLP@volatile?5?$AA@ 0000000180046338     LIBCMT:undname.obj
 0002:00008344       ??_C@_06LIJLOJAG@const?5?$AA@ 0000000180046344     LIBCMT:undname.obj
 0002:00008350       ??_C@_0M@EALIELKG@cli?3?3array?$DM?$AA@ 0000000180046350     LIBCMT:undname.obj
 0002:00008360       ??_C@_0O@GKABPPIF@cli?3?3pin_ptr?$DM?$AA@ 0000000180046360     LIBCMT:undname.obj
 0002:00008370       ??_C@_02GOGNNPBN@?$CJ?$FL?$AA@ 0000000180046370     LIBCMT:undname.obj
 0002:00008374       ??_C@_06EEGAIFAK@?$HLflat?$HN?$AA@ 0000000180046374     LIBCMT:undname.obj
 0002:0000837c       ??_C@_05JIBOFOHK@?$HLfor?5?$AA@ 000000018004637c     LIBCMT:undname.obj
 0002:00008384       ??_C@_02MDINNEEG@s?5?$AA@  0000000180046384     LIBCMT:undname.obj
 0002:00008390       ??_7DNameNode@@6B@         0000000180046390     LIBCMT:undname.obj
 0002:000083b0       ??_7charNode@@6B@          00000001800463b0     LIBCMT:undname.obj
 0002:000083d0       ??_7pcharNode@@6B@         00000001800463d0     LIBCMT:undname.obj
 0002:000083f0       ??_7pDNameNode@@6B@        00000001800463f0     LIBCMT:undname.obj
 0002:00008410       ??_7DNameStatusNode@@6B@   0000000180046410     LIBCMT:undname.obj
 0002:00008430       ??_7pairNode@@6B@          0000000180046430     LIBCMT:undname.obj
 0002:00008448       ??_C@_04OKOHEJBO@?5?$DP?$DP?5?$AA@ 0000000180046448     LIBCMT:undname.obj
 0002:00008450       __xmm@80000000000000008000000000000000 0000000180046450     LIBCMT:wcstod.obj
 0002:00008460       __lc_category              0000000180046460     LIBCMT:wsetloca.obj
 0002:000084f0       ??_C@_1O@GIFLHMA@?$AAL?$AAC?$AA_?$AAA?$AAL?$AAL?$AA?$AA@ 00000001800464f0     LIBCMT:wsetloca.obj
 0002:00008500       ??_C@_1BG@PPOMIBNJ@?$AAL?$AAC?$AA_?$AAC?$AAO?$AAL?$AAL?$AAA?$AAT?$AAE?$AA?$AA@ 0000000180046500     LIBCMT:wsetloca.obj
 0002:00008518       ??_C@_1BC@FFJGAPJM@?$AAL?$AAC?$AA_?$AAC?$AAT?$AAY?$AAP?$AAE?$AA?$AA@ 0000000180046518     LIBCMT:wsetloca.obj
 0002:00008530       ??_C@_1BI@PCKFNJFB@?$AAL?$AAC?$AA_?$AAM?$AAO?$AAN?$AAE?$AAT?$AAA?$AAR?$AAY?$AA?$AA@ 0000000180046530     LIBCMT:wsetloca.obj
 0002:00008548       ??_C@_1BG@ENIEDKID@?$AAL?$AAC?$AA_?$AAN?$AAU?$AAM?$AAE?$AAR?$AAI?$AAC?$AA?$AA@ 0000000180046548     LIBCMT:wsetloca.obj
 0002:00008560       ??_C@_1BA@HAAOMIIG@?$AAL?$AAC?$AA_?$AAT?$AAI?$AAM?$AAE?$AA?$AA@ 0000000180046560     LIBCMT:wsetloca.obj
 0002:000085f0       ??_C@_15NBPDDFIP@?$AA?$DN?$AA?$DL?$AA?$AA@ 00000001800465f0     LIBCMT:wsetloca.obj
 0002:000085f8       ??_C@_13PJJBFPED@?$AA?$DL?$AA?$AA@ 00000001800465f8     LIBCMT:wsetloca.obj
 0002:000085fc       ??_C@_13NMPKAAJP@?$AA?$DN?$AA?$AA@ 00000001800465fc     LIBCMT:wsetloca.obj
 0002:00008600       ??_C@_13FHBKNHDA@?$AAC?$AA?$AA@ 0000000180046600     LIBCMT:wsetloca.obj
 0002:00008608       ??_C@_17MBJJLFDM@?$AA_?$AA?4?$AA?0?$AA?$AA@ 0000000180046608     LIBCMT:wsetloca.obj
 0002:00008610       ??_C@_13ENNFDPBH@?$AA_?$AA?$AA@ 0000000180046610     LIBCMT:wsetloca.obj
 0002:00008614       ??_C@_13JOFGPIOO@?$AA?4?$AA?$AA@ 0000000180046614     LIBCMT:wsetloca.obj
 0002:00008620       __newctype                 0000000180046620     LIBCMT:ctype.obj
 0002:00008920       _wctype                    0000000180046920     LIBCMT:ctype.obj
 0002:00008b30       __newclmap                 0000000180046b30     LIBCMT:ctype.obj
 0002:00008cb0       __newcumap                 0000000180046cb0     LIBCMT:ctype.obj
 0002:00008e30       ??_C@_06OJHGLDPL@?$CInull?$CJ?$AA@ 0000000180046e30     LIBCMT:output.obj
 0002:00008e38       ??_C@_1O@CEDCILHN@?$AA?$CI?$AAn?$AAu?$AAl?$AAl?$AA?$CJ?$AA?$AA@ 0000000180046e38     LIBCMT:output.obj
 0002:00008e50       __lookuptable              0000000180046e50     LIBCMT:output.obj
 0002:00008eb0       ??_C@_0M@HHGEPIBF@CreateFile2?$AA@ 0000000180046eb0     LIBCMT:wopen.obj
 0002:00008ed0       ??_C@_03KHJOGHMM@exp?$AA@  0000000180046ed0     LIBCMT:fpexcept.obj
 0002:00008ed4       ??_C@_03JGHBODFD@pow?$AA@  0000000180046ed4     LIBCMT:fpexcept.obj
 0002:00008ed8       ??_C@_03MGHMBJCF@log?$AA@  0000000180046ed8     LIBCMT:fpexcept.obj
 0002:00008edc       ??_C@_05HGHHAHAP@log10?$AA@ 0000000180046edc     LIBCMT:fpexcept.obj
 0002:00008ee4       ??_C@_04COOMCNPB@sinh?$AA@ 0000000180046ee4     LIBCMT:fpexcept.obj
 0002:00008eec       ??_C@_04HPJJNFIM@cosh?$AA@ 0000000180046eec     LIBCMT:fpexcept.obj
 0002:00008ef4       ??_C@_04FJHINJAO@tanh?$AA@ 0000000180046ef4     LIBCMT:fpexcept.obj
 0002:00008efc       ??_C@_04FIHNOPOL@asin?$AA@ 0000000180046efc     LIBCMT:fpexcept.obj
 0002:00008f04       ??_C@_04PDIFKINK@acos?$AA@ 0000000180046f04     LIBCMT:fpexcept.obj
 0002:00008f0c       ??_C@_04MLLJIGOK@atan?$AA@ 0000000180046f0c     LIBCMT:fpexcept.obj
 0002:00008f14       ??_C@_05KNGEOGJB@atan2?$AA@ 0000000180046f14     LIBCMT:fpexcept.obj
 0002:00008f1c       ??_C@_04EIAKFFMI@sqrt?$AA@ 0000000180046f1c     LIBCMT:fpexcept.obj
 0002:00008f24       ??_C@_03BLEJJJBH@sin?$AA@  0000000180046f24     LIBCMT:fpexcept.obj
 0002:00008f28       ??_C@_03LALBNOCG@cos?$AA@  0000000180046f28     LIBCMT:fpexcept.obj
 0002:00008f2c       ??_C@_03IIINPABG@tan?$AA@  0000000180046f2c     LIBCMT:fpexcept.obj
 0002:00008f30       ??_C@_04GFPJNGEK@ceil?$AA@ 0000000180046f30     LIBCMT:fpexcept.obj
 0002:00008f38       ??_C@_05PBJFFIGL@floor?$AA@ 0000000180046f38     LIBCMT:fpexcept.obj
 0002:00008f40       ??_C@_04ODHECPBC@fabs?$AA@ 0000000180046f40     LIBCMT:fpexcept.obj
 0002:00008f48       ??_C@_04EHEDPDJG@modf?$AA@ 0000000180046f48     LIBCMT:fpexcept.obj
 0002:00008f50       ??_C@_05CEJMAHNP@ldexp?$AA@ 0000000180046f50     LIBCMT:fpexcept.obj
 0002:00008f58       ??_C@_05KBKMEMPO@_cabs?$AA@ 0000000180046f58     LIBCMT:fpexcept.obj
 0002:00008f60       ??_C@_04KEPJIHGP@fmod?$AA@ 0000000180046f60     LIBCMT:fpexcept.obj
 0002:00008f68       ??_C@_05GKKHEGJL@frexp?$AA@ 0000000180046f68     LIBCMT:fpexcept.obj
 0002:00008f70       ??_C@_03MJLDFKDL@_y0?$AA@  0000000180046f70     LIBCMT:fpexcept.obj
 0002:00008f74       ??_C@_03NAKIGLHK@_y1?$AA@  0000000180046f74     LIBCMT:fpexcept.obj
 0002:00008f78       ??_C@_03ONILCKOB@_yn?$AA@  0000000180046f78     LIBCMT:fpexcept.obj
 0002:00008f7c       ??_C@_05JGDBENOH@_logb?$AA@ 0000000180046f7c     LIBCMT:fpexcept.obj
 0002:00008f88       ??_C@_0L@KDOEJCKC@_nextafter?$AA@ 0000000180046f88     LIBCMT:fpexcept.obj
 0002:00008fa0       __rg_language              0000000180046fa0     LIBCMT:getqloc.obj
 0002:000093b0       ??_C@_1BC@LLOKLNP@?$AAa?$AAm?$AAe?$AAr?$AAi?$AAc?$AAa?$AAn?$AA?$AA@ 00000001800473b0     LIBCMT:getqloc.obj
 0002:000093c8       ??_C@_1CC@HEIGCDGG@?$AAa?$AAm?$AAe?$AAr?$AAi?$AAc?$AAa?$AAn?$AA?5?$AAe?$AAn?$AAg?$AAl?$AAi?$AAs?$AAh?$AA?$AA@ 00000001800473c8     LIBCMT:getqloc.obj
 0002:000093f0       ??_C@_1CC@IHCNOMIN@?$AAa?$AAm?$AAe?$AAr?$AAi?$AAc?$AAa?$AAn?$AA?9?$AAe?$AAn?$AAg?$AAl?$AAi?$AAs?$AAh?$AA?$AA@ 00000001800473f0     LIBCMT:getqloc.obj
 0002:00009418       ??_C@_1BG@GKAGPCGG@?$AAa?$AAu?$AAs?$AAt?$AAr?$AAa?$AAl?$AAi?$AAa?$AAn?$AA?$AA@ 0000000180047418     LIBCMT:getqloc.obj
 0002:00009430       ??_C@_1BA@GMENCENF@?$AAb?$AAe?$AAl?$AAg?$AAi?$AAa?$AAn?$AA?$AA@ 0000000180047430     LIBCMT:getqloc.obj
 0002:00009440       ??_C@_1BC@PJMIIAAN@?$AAc?$AAa?$AAn?$AAa?$AAd?$AAi?$AAa?$AAn?$AA?$AA@ 0000000180047440     LIBCMT:getqloc.obj
 0002:00009458       ??_C@_17NOIMNFBF@?$AAc?$AAh?$AAh?$AA?$AA@ 0000000180047458     LIBCMT:getqloc.obj
 0002:00009460       ??_C@_17GGDALCHA@?$AAc?$AAh?$AAi?$AA?$AA@ 0000000180047460     LIBCMT:getqloc.obj
 0002:00009468       ??_C@_1BA@NPNJKIBL@?$AAc?$AAh?$AAi?$AAn?$AAe?$AAs?$AAe?$AA?$AA@ 0000000180047468     LIBCMT:getqloc.obj
 0002:00009478       ??_C@_1CC@DINBAMMJ@?$AAc?$AAh?$AAi?$AAn?$AAe?$AAs?$AAe?$AA?9?$AAh?$AAo?$AAn?$AAg?$AAk?$AAo?$AAn?$AAg?$AA?$AA@ 0000000180047478     LIBCMT:getqloc.obj
 0002:000094a0       ??_C@_1CG@IOBJPACO@?$AAc?$AAh?$AAi?$AAn?$AAe?$AAs?$AAe?$AA?9?$AAs?$AAi?$AAm?$AAp?$AAl?$AAi?$AAf?$AAi?$AAe?$AAd?$AA?$AA@ 00000001800474a0     LIBCMT:getqloc.obj
 0002:000094c8       ??_C@_1CE@GAJNDCKG@?$AAc?$AAh?$AAi?$AAn?$AAe?$AAs?$AAe?$AA?9?$AAs?$AAi?$AAn?$AAg?$AAa?$AAp?$AAo?$AAr?$AAe?$AA?$AA@ 00000001800474c8     LIBCMT:getqloc.obj
 0002:000094f0       ??_C@_1CI@PAJPIOOD@?$AAc?$AAh?$AAi?$AAn?$AAe?$AAs?$AAe?$AA?9?$AAt?$AAr?$AAa?$AAd?$AAi?$AAt?$AAi?$AAo?$AAn?$AAa?$AAl?$AA?$AA@ 00000001800474f0     LIBCMT:getqloc.obj
 0002:00009518       ??_C@_1BM@NILJBMMD@?$AAd?$AAu?$AAt?$AAc?$AAh?$AA?9?$AAb?$AAe?$AAl?$AAg?$AAi?$AAa?$AAn?$AA?$AA@ 0000000180047518     LIBCMT:getqloc.obj
 0002:00009538       ??_C@_1CC@OOJPJNEJ@?$AAe?$AAn?$AAg?$AAl?$AAi?$AAs?$AAh?$AA?9?$AAa?$AAm?$AAe?$AAr?$AAi?$AAc?$AAa?$AAn?$AA?$AA@ 0000000180047538     LIBCMT:getqloc.obj
 0002:00009560       ??_C@_1BI@IOLFEEM@?$AAe?$AAn?$AAg?$AAl?$AAi?$AAs?$AAh?$AA?9?$AAa?$AAu?$AAs?$AA?$AA@ 0000000180047560     LIBCMT:getqloc.obj
 0002:00009578       ??_C@_1BO@HFFNLENJ@?$AAe?$AAn?$AAg?$AAl?$AAi?$AAs?$AAh?$AA?9?$AAb?$AAe?$AAl?$AAi?$AAz?$AAe?$AA?$AA@ 0000000180047578     LIBCMT:getqloc.obj
 0002:00009598       ??_C@_1BI@HAPKJMPO@?$AAe?$AAn?$AAg?$AAl?$AAi?$AAs?$AAh?$AA?9?$AAc?$AAa?$AAn?$AA?$AA@ 0000000180047598     LIBCMT:getqloc.obj
 0002:000095b0       ??_C@_1CE@HLNDMIOJ@?$AAe?$AAn?$AAg?$AAl?$AAi?$AAs?$AAh?$AA?9?$AAc?$AAa?$AAr?$AAi?$AAb?$AAb?$AAe?$AAa?$AAn?$AA?$AA@ 00000001800475b0     LIBCMT:getqloc.obj
 0002:000095d8       ??_C@_1BI@LDHJHHAC@?$AAe?$AAn?$AAg?$AAl?$AAi?$AAs?$AAh?$AA?9?$AAi?$AAr?$AAe?$AA?$AA@ 00000001800475d8     LIBCMT:getqloc.obj
 0002:000095f0       ??_C@_1CA@NJMMCFOC@?$AAe?$AAn?$AAg?$AAl?$AAi?$AAs?$AAh?$AA?9?$AAj?$AAa?$AAm?$AAa?$AAi?$AAc?$AAa?$AA?$AA@ 00000001800475f0     LIBCMT:getqloc.obj
 0002:00009610       ??_C@_1BG@BHJEBBGG@?$AAe?$AAn?$AAg?$AAl?$AAi?$AAs?$AAh?$AA?9?$AAn?$AAz?$AA?$AA@ 0000000180047610     LIBCMT:getqloc.obj
 0002:00009628       ??_C@_1CK@FGOEJJCO@?$AAe?$AAn?$AAg?$AAl?$AAi?$AAs?$AAh?$AA?9?$AAs?$AAo?$AAu?$AAt?$AAh?$AA?5?$AAa?$AAf?$AAr?$AAi?$AAc?$AAa?$AA?$AA@ 0000000180047628     LIBCMT:getqloc.obj
 0002:00009658       ??_C@_1DE@PDBJPCJ@?$AAe?$AAn?$AAg?$AAl?$AAi?$AAs?$AAh?$AA?9?$AAt?$AAr?$AAi?$AAn?$AAi?$AAd?$AAa?$AAd?$AA?5?$AAy?$AA?5?$AAt?$AAo?$AAb?$AAa?$AAg?$AAo?$AA?$AA@ 0000000180047658     LIBCMT:getqloc.obj
 0002:00009690       ??_C@_1BG@JGCANDME@?$AAe?$AAn?$AAg?$AAl?$AAi?$AAs?$AAh?$AA?9?$AAu?$AAk?$AA?$AA@ 0000000180047690     LIBCMT:getqloc.obj
 0002:000096a8       ??_C@_1BG@DINKMLE@?$AAe?$AAn?$AAg?$AAl?$AAi?$AAs?$AAh?$AA?9?$AAu?$AAs?$AA?$AA@ 00000001800476a8     LIBCMT:getqloc.obj
 0002:000096c0       ??_C@_1BI@NMFDBHJE@?$AAe?$AAn?$AAg?$AAl?$AAi?$AAs?$AAh?$AA?9?$AAu?$AAs?$AAa?$AA?$AA@ 00000001800476c0     LIBCMT:getqloc.obj
 0002:000096d8       ??_C@_1BO@OIHKJKII@?$AAf?$AAr?$AAe?$AAn?$AAc?$AAh?$AA?9?$AAb?$AAe?$AAl?$AAg?$AAi?$AAa?$AAn?$AA?$AA@ 00000001800476d8     LIBCMT:getqloc.obj
 0002:000096f8       ??_C@_1CA@NKAELJKI@?$AAf?$AAr?$AAe?$AAn?$AAc?$AAh?$AA?9?$AAc?$AAa?$AAn?$AAa?$AAd?$AAi?$AAa?$AAn?$AA?$AA@ 00000001800476f8     LIBCMT:getqloc.obj
 0002:00009718       ??_C@_1CE@MGKCNLGN@?$AAf?$AAr?$AAe?$AAn?$AAc?$AAh?$AA?9?$AAl?$AAu?$AAx?$AAe?$AAm?$AAb?$AAo?$AAu?$AAr?$AAg?$AA?$AA@ 0000000180047718     LIBCMT:getqloc.obj
 0002:00009740       ??_C@_1BK@CEGEAILM@?$AAf?$AAr?$AAe?$AAn?$AAc?$AAh?$AA?9?$AAs?$AAw?$AAi?$AAs?$AAs?$AA?$AA@ 0000000180047740     LIBCMT:getqloc.obj
 0002:00009760       ??_C@_1CA@PAFKEOCC@?$AAg?$AAe?$AAr?$AAm?$AAa?$AAn?$AA?9?$AAa?$AAu?$AAs?$AAt?$AAr?$AAi?$AAa?$AAn?$AA?$AA@ 0000000180047760     LIBCMT:getqloc.obj
 0002:00009780       ??_C@_1CI@HCFHGOFD@?$AAg?$AAe?$AAr?$AAm?$AAa?$AAn?$AA?9?$AAl?$AAi?$AAc?$AAh?$AAt?$AAe?$AAn?$AAs?$AAt?$AAe?$AAi?$AAn?$AA?$AA@ 0000000180047780     LIBCMT:getqloc.obj
 0002:000097a8       ??_C@_1CE@FEDDNPDG@?$AAg?$AAe?$AAr?$AAm?$AAa?$AAn?$AA?9?$AAl?$AAu?$AAx?$AAe?$AAm?$AAb?$AAo?$AAu?$AAr?$AAg?$AA?$AA@ 00000001800477a8     LIBCMT:getqloc.obj
 0002:000097d0       ??_C@_1BK@LIMINNMN@?$AAg?$AAe?$AAr?$AAm?$AAa?$AAn?$AA?9?$AAs?$AAw?$AAi?$AAs?$AAs?$AA?$AA@ 00000001800477d0     LIBCMT:getqloc.obj
 0002:000097f0       ??_C@_1BM@LGMDBEPD@?$AAi?$AAr?$AAi?$AAs?$AAh?$AA?9?$AAe?$AAn?$AAg?$AAl?$AAi?$AAs?$AAh?$AA?$AA@ 00000001800477f0     LIBCMT:getqloc.obj
 0002:00009810       ??_C@_1BM@NNCFBAEE@?$AAi?$AAt?$AAa?$AAl?$AAi?$AAa?$AAn?$AA?9?$AAs?$AAw?$AAi?$AAs?$AAs?$AA?$AA@ 0000000180047810     LIBCMT:getqloc.obj
 0002:00009830       ??_C@_1BE@FEDJNPIB@?$AAn?$AAo?$AAr?$AAw?$AAe?$AAg?$AAi?$AAa?$AAn?$AA?$AA@ 0000000180047830     LIBCMT:getqloc.obj
 0002:00009848       ??_C@_1CC@CILKDEIE@?$AAn?$AAo?$AAr?$AAw?$AAe?$AAg?$AAi?$AAa?$AAn?$AA?9?$AAb?$AAo?$AAk?$AAm?$AAa?$AAl?$AA?$AA@ 0000000180047848     LIBCMT:getqloc.obj
 0002:00009870       ??_C@_1CE@DHMMHEPL@?$AAn?$AAo?$AAr?$AAw?$AAe?$AAg?$AAi?$AAa?$AAn?$AA?9?$AAn?$AAy?$AAn?$AAo?$AAr?$AAs?$AAk?$AA?$AA@ 0000000180047870     LIBCMT:getqloc.obj
 0002:00009898       ??_C@_1CK@OPNMHECD@?$AAp?$AAo?$AAr?$AAt?$AAu?$AAg?$AAu?$AAe?$AAs?$AAe?$AA?9?$AAb?$AAr?$AAa?$AAz?$AAi?$AAl?$AAi?$AAa?$AAn?$AA?$AA@ 0000000180047898     LIBCMT:getqloc.obj
 0002:000098c8       ??_C@_1CE@KEEHCDB@?$AAs?$AAp?$AAa?$AAn?$AAi?$AAs?$AAh?$AA?9?$AAa?$AAr?$AAg?$AAe?$AAn?$AAt?$AAi?$AAn?$AAa?$AA?$AA@ 00000001800478c8     LIBCMT:getqloc.obj
 0002:000098f0       ??_C@_1CA@GIAOLHJD@?$AAs?$AAp?$AAa?$AAn?$AAi?$AAs?$AAh?$AA?9?$AAb?$AAo?$AAl?$AAi?$AAv?$AAi?$AAa?$AA?$AA@ 00000001800478f0     LIBCMT:getqloc.obj
 0002:00009910       ??_C@_1BM@OJNDFNPD@?$AAs?$AAp?$AAa?$AAn?$AAi?$AAs?$AAh?$AA?9?$AAc?$AAh?$AAi?$AAl?$AAe?$AA?$AA@ 0000000180047910     LIBCMT:getqloc.obj
 0002:00009930       ??_C@_1CC@OCOLPALL@?$AAs?$AAp?$AAa?$AAn?$AAi?$AAs?$AAh?$AA?9?$AAc?$AAo?$AAl?$AAo?$AAm?$AAb?$AAi?$AAa?$AA?$AA@ 0000000180047930     LIBCMT:getqloc.obj
 0002:00009958       ??_C@_1CG@BPOFMKBB@?$AAs?$AAp?$AAa?$AAn?$AAi?$AAs?$AAh?$AA?9?$AAc?$AAo?$AAs?$AAt?$AAa?$AA?5?$AAr?$AAi?$AAc?$AAa?$AA?$AA@ 0000000180047958     LIBCMT:getqloc.obj
 0002:00009980       ??_C@_1DG@IGOBAPBB@?$AAs?$AAp?$AAa?$AAn?$AAi?$AAs?$AAh?$AA?9?$AAd?$AAo?$AAm?$AAi?$AAn?$AAi?$AAc?$AAa?$AAn?$AA?5?$AAr?$AAe?$AAp?$AAu?$AAb?$AAl?$AAi?$AAc?$AA?$AA@ 0000000180047980     LIBCMT:getqloc.obj
 0002:000099b8       ??_C@_1CA@JHAPGEGI@?$AAs?$AAp?$AAa?$AAn?$AAi?$AAs?$AAh?$AA?9?$AAe?$AAc?$AAu?$AAa?$AAd?$AAo?$AAr?$AA?$AA@ 00000001800479b8     LIBCMT:getqloc.obj
 0002:000099d8       ??_C@_1CI@LAPALJPP@?$AAs?$AAp?$AAa?$AAn?$AAi?$AAs?$AAh?$AA?9?$AAe?$AAl?$AA?5?$AAs?$AAa?$AAl?$AAv?$AAa?$AAd?$AAo?$AAr?$AA?$AA@ 00000001800479d8     LIBCMT:getqloc.obj
 0002:00009a00       ??_C@_1CE@PDGBOFOM@?$AAs?$AAp?$AAa?$AAn?$AAi?$AAs?$AAh?$AA?9?$AAg?$AAu?$AAa?$AAt?$AAe?$AAm?$AAa?$AAl?$AAa?$AA?$AA@ 0000000180047a00     LIBCMT:getqloc.obj
 0002:00009a28       ??_C@_1CC@NBEBAODI@?$AAs?$AAp?$AAa?$AAn?$AAi?$AAs?$AAh?$AA?9?$AAh?$AAo?$AAn?$AAd?$AAu?$AAr?$AAa?$AAs?$AA?$AA@ 0000000180047a28     LIBCMT:getqloc.obj
 0002:00009a50       ??_C@_1CA@LLKGHBMF@?$AAs?$AAp?$AAa?$AAn?$AAi?$AAs?$AAh?$AA?9?$AAm?$AAe?$AAx?$AAi?$AAc?$AAa?$AAn?$AA?$AA@ 0000000180047a50     LIBCMT:getqloc.obj
 0002:00009a70       ??_C@_1BO@LKNDOIGD@?$AAs?$AAp?$AAa?$AAn?$AAi?$AAs?$AAh?$AA?9?$AAm?$AAo?$AAd?$AAe?$AAr?$AAn?$AA?$AA@ 0000000180047a70     LIBCMT:getqloc.obj
 0002:00009a90       ??_C@_1CE@NMDMOEEB@?$AAs?$AAp?$AAa?$AAn?$AAi?$AAs?$AAh?$AA?9?$AAn?$AAi?$AAc?$AAa?$AAr?$AAa?$AAg?$AAu?$AAa?$AA?$AA@ 0000000180047a90     LIBCMT:getqloc.obj
 0002:00009ab8       ??_C@_1BO@LLCBEJGB@?$AAs?$AAp?$AAa?$AAn?$AAi?$AAs?$AAh?$AA?9?$AAp?$AAa?$AAn?$AAa?$AAm?$AAa?$AA?$AA@ 0000000180047ab8     LIBCMT:getqloc.obj
 0002:00009ad8       ??_C@_1CC@FKPGGIHO@?$AAs?$AAp?$AAa?$AAn?$AAi?$AAs?$AAh?$AA?9?$AAp?$AAa?$AAr?$AAa?$AAg?$AAu?$AAa?$AAy?$AA?$AA@ 0000000180047ad8     LIBCMT:getqloc.obj
 0002:00009b00       ??_C@_1BK@CDEIHOOP@?$AAs?$AAp?$AAa?$AAn?$AAi?$AAs?$AAh?$AA?9?$AAp?$AAe?$AAr?$AAu?$AA?$AA@ 0000000180047b00     LIBCMT:getqloc.obj
 0002:00009b20       ??_C@_1CI@GAHAKKGP@?$AAs?$AAp?$AAa?$AAn?$AAi?$AAs?$AAh?$AA?9?$AAp?$AAu?$AAe?$AAr?$AAt?$AAo?$AA?5?$AAr?$AAi?$AAc?$AAo?$AA?$AA@ 0000000180047b20     LIBCMT:getqloc.obj
 0002:00009b48       ??_C@_1CA@NKJBCAGP@?$AAs?$AAp?$AAa?$AAn?$AAi?$AAs?$AAh?$AA?9?$AAu?$AAr?$AAu?$AAg?$AAu?$AAa?$AAy?$AA?$AA@ 0000000180047b48     LIBCMT:getqloc.obj
 0002:00009b68       ??_C@_1CE@ODILCONM@?$AAs?$AAp?$AAa?$AAn?$AAi?$AAs?$AAh?$AA?9?$AAv?$AAe?$AAn?$AAe?$AAz?$AAu?$AAe?$AAl?$AAa?$AA?$AA@ 0000000180047b68     LIBCMT:getqloc.obj
 0002:00009b90       ??_C@_1CA@OBNMCGFO@?$AAs?$AAw?$AAe?$AAd?$AAi?$AAs?$AAh?$AA?9?$AAf?$AAi?$AAn?$AAl?$AAa?$AAn?$AAd?$AA?$AA@ 0000000180047b90     LIBCMT:getqloc.obj
 0002:00009bb0       ??_C@_1M@PIPDDPPI@?$AAs?$AAw?$AAi?$AAs?$AAs?$AA?$AA@ 0000000180047bb0     LIBCMT:getqloc.obj
 0002:00009bbc       ??_C@_15GMFIMNFM@?$AAu?$AAs?$AA?$AA@ 0000000180047bbc     LIBCMT:getqloc.obj
 0002:00009bc8       ??_C@_17HAEBFAGL@?$AAu?$AAs?$AAa?$AA?$AA@ 0000000180047bc8     LIBCMT:getqloc.obj
 0002:00009bd0       __rg_country               0000000180047bd0     LIBCMT:getqloc.obj
 0002:00009d40       ??_C@_1BA@DPFJEPHB@?$AAa?$AAm?$AAe?$AAr?$AAi?$AAc?$AAa?$AA?$AA@ 0000000180047d40     LIBCMT:getqloc.obj
 0002:00009d50       ??_C@_1BA@ELOGGFK@?$AAb?$AAr?$AAi?$AAt?$AAa?$AAi?$AAn?$AA?$AA@ 0000000180047d50     LIBCMT:getqloc.obj
 0002:00009d60       ??_C@_1M@GHBGIGDA@?$AAc?$AAh?$AAi?$AAn?$AAa?$AA?$AA@ 0000000180047d60     LIBCMT:getqloc.obj
 0002:00009d70       ??_C@_1M@NCHEJOPO@?$AAc?$AAz?$AAe?$AAc?$AAh?$AA?$AA@ 0000000180047d70     LIBCMT:getqloc.obj
 0002:00009d80       ??_C@_1BA@BKPAPBLA@?$AAe?$AAn?$AAg?$AAl?$AAa?$AAn?$AAd?$AA?$AA@ 0000000180047d80     LIBCMT:getqloc.obj
 0002:00009d90       ??_C@_1BM@HKBCKIPC@?$AAg?$AAr?$AAe?$AAa?$AAt?$AA?5?$AAb?$AAr?$AAi?$AAt?$AAa?$AAi?$AAn?$AA?$AA@ 0000000180047d90     LIBCMT:getqloc.obj
 0002:00009db0       ??_C@_1BA@PPCHPGJB@?$AAh?$AAo?$AAl?$AAl?$AAa?$AAn?$AAd?$AA?$AA@ 0000000180047db0     LIBCMT:getqloc.obj
 0002:00009dc0       ??_C@_1BE@JBMPEGDG@?$AAh?$AAo?$AAn?$AAg?$AA?9?$AAk?$AAo?$AAn?$AAg?$AA?$AA@ 0000000180047dc0     LIBCMT:getqloc.obj
 0002:00009dd8       ??_C@_1BI@KOELBBPJ@?$AAn?$AAe?$AAw?$AA?9?$AAz?$AAe?$AAa?$AAl?$AAa?$AAn?$AAd?$AA?$AA@ 0000000180047dd8     LIBCMT:getqloc.obj
 0002:00009df0       ??_C@_15HIEBHAIO@?$AAn?$AAz?$AA?$AA@ 0000000180047df0     LIBCMT:getqloc.obj
 0002:00009df8       ??_C@_1BC@CHBCPFPI@?$AAp?$AAr?$AA?5?$AAc?$AAh?$AAi?$AAn?$AAa?$AA?$AA@ 0000000180047df8     LIBCMT:getqloc.obj
 0002:00009e10       ??_C@_1BC@JAOIIFKD@?$AAp?$AAr?$AA?9?$AAc?$AAh?$AAi?$AAn?$AAa?$AA?$AA@ 0000000180047e10     LIBCMT:getqloc.obj
 0002:00009e28       ??_C@_1BI@BEHPPHKC@?$AAp?$AAu?$AAe?$AAr?$AAt?$AAo?$AA?9?$AAr?$AAi?$AAc?$AAo?$AA?$AA@ 0000000180047e28     LIBCMT:getqloc.obj
 0002:00009e40       ??_C@_1O@PAEOFKDI@?$AAs?$AAl?$AAo?$AAv?$AAa?$AAk?$AA?$AA@ 0000000180047e40     LIBCMT:getqloc.obj
 0002:00009e50       ??_C@_1BK@FIHMCKAM@?$AAs?$AAo?$AAu?$AAt?$AAh?$AA?5?$AAa?$AAf?$AAr?$AAi?$AAc?$AAa?$AA?$AA@ 0000000180047e50     LIBCMT:getqloc.obj
 0002:00009e70       ??_C@_1BI@NAEOODKB@?$AAs?$AAo?$AAu?$AAt?$AAh?$AA?5?$AAk?$AAo?$AAr?$AAe?$AAa?$AA?$AA@ 0000000180047e70     LIBCMT:getqloc.obj
 0002:00009e88       ??_C@_1BK@FBDGGIFF@?$AAs?$AAo?$AAu?$AAt?$AAh?$AA?9?$AAa?$AAf?$AAr?$AAi?$AAc?$AAa?$AA?$AA@ 0000000180047e88     LIBCMT:getqloc.obj
 0002:00009ea8       ??_C@_1BI@GHLEJDPK@?$AAs?$AAo?$AAu?$AAt?$AAh?$AA?9?$AAk?$AAo?$AAr?$AAe?$AAa?$AA?$AA@ 0000000180047ea8     LIBCMT:getqloc.obj
 0002:00009ec0       ??_C@_1CE@PLHLOMJF@?$AAt?$AAr?$AAi?$AAn?$AAi?$AAd?$AAa?$AAd?$AA?5?$AA?$CG?$AA?5?$AAt?$AAo?$AAb?$AAa?$AAg?$AAo?$AA?$AA@ 0000000180047ec0     LIBCMT:getqloc.obj
 0002:00009ee8       ??_C@_1BO@MODIMHHI@?$AAu?$AAn?$AAi?$AAt?$AAe?$AAd?$AA?9?$AAk?$AAi?$AAn?$AAg?$AAd?$AAo?$AAm?$AA?$AA@ 0000000180047ee8     LIBCMT:getqloc.obj
 0002:00009f08       ??_C@_1BM@FFHJONBJ@?$AAu?$AAn?$AAi?$AAt?$AAe?$AAd?$AA?9?$AAs?$AAt?$AAa?$AAt?$AAe?$AAs?$AA?$AA@ 0000000180047f08     LIBCMT:getqloc.obj
 0002:00009f24       __rg_language_count        0000000180047f24     LIBCMT:getqloc.obj
 0002:00009f28       __rg_country_count         0000000180047f28     LIBCMT:getqloc.obj
 0002:00009f30       ??_C@_17DNCLJFIF@?$AAA?$AAC?$AAP?$AA?$AA@ 0000000180047f30     LIBCMT:getqloc.obj
 0002:00009f38       ??_C@_17CIKBIHLH@?$AAO?$AAC?$AAP?$AA?$AA@ 0000000180047f38     LIBCMT:getqloc.obj
 0002:00009f40       __rglangidNotDefault       0000000180047f40     LIBCMT:getqloc_downlevel.obj
 0002:00009f60       __lookuptable_s            0000000180047f60     LIBCMT:outputs.obj
 0002:00009fbc       ??_C@_06PGGFOGJG@1?$CDSNAN?$AA@ 0000000180047fbc     LIBCMT:x10fout.obj
 0002:00009fc4       ??_C@_05PHHOCPM@1?$CDIND?$AA@ 0000000180047fc4     LIBCMT:x10fout.obj
 0002:00009fcc       ??_C@_05DNEBIAHO@1?$CDINF?$AA@ 0000000180047fcc     LIBCMT:x10fout.obj
 0002:00009fd4       ??_C@_06IMKFLFPG@1?$CDQNAN?$AA@ 0000000180047fd4     LIBCMT:x10fout.obj
 0002:00009fe0       ??_C@_1BA@BALFACEM@?$AAC?$AAO?$AAN?$AAO?$AAU?$AAT?$AA$?$AA?$AA@ 0000000180047fe0     LIBCMT:initcon.obj
 0002:00009ff0       ?is_signed@?$numeric_limits@D@std@@2_NB 0000000180047ff0     libcpmt:xthrow.obj
 0002:00009ff4       ?digits@?$numeric_limits@D@std@@2HB 0000000180047ff4     libcpmt:xthrow.obj
 0002:00009ff8       ?digits10@?$numeric_limits@D@std@@2HB 0000000180047ff8     libcpmt:xthrow.obj
 0002:00009ffc       ?is_signed@?$numeric_limits@_W@std@@2_NB 0000000180047ffc     libcpmt:xthrow.obj
 0002:0000a000       ?digits@?$numeric_limits@_W@std@@2HB 0000000180048000     libcpmt:xthrow.obj
 0002:0000a004       ?digits10@?$numeric_limits@_W@std@@2HB 0000000180048004     libcpmt:xthrow.obj
 0002:0000a008       ?is_modulo@?$numeric_limits@_N@std@@2_NB 0000000180048008     libcpmt:xthrow.obj
 0002:0000a009       ?is_signed@?$numeric_limits@_N@std@@2_NB 0000000180048009     libcpmt:xthrow.obj
 0002:0000a00c       ?digits@?$numeric_limits@_N@std@@2HB 000000018004800c     libcpmt:xthrow.obj
 0002:0000a010       ?digits10@?$numeric_limits@_N@std@@2HB 0000000180048010     libcpmt:xthrow.obj
 0002:0000a014       ?collate@?$_Locbase@H@std@@2HB 0000000180048014     libcpmt:xthrow.obj
 0002:0000a018       ?ctype@?$_Locbase@H@std@@2HB 0000000180048018     libcpmt:xthrow.obj
 0002:0000a01c       ?monetary@?$_Locbase@H@std@@2HB 000000018004801c     libcpmt:xthrow.obj
 0002:0000a020       ?numeric@?$_Locbase@H@std@@2HB 0000000180048020     libcpmt:xthrow.obj
 0002:0000a024       ?time@?$_Locbase@H@std@@2HB 0000000180048024     libcpmt:xthrow.obj
 0002:0000a028       ?messages@?$_Locbase@H@std@@2HB 0000000180048028     libcpmt:xthrow.obj
 0002:0000a02c       ?is_signed@?$numeric_limits@C@std@@2_NB 000000018004802c     libcpmt:xthrow.obj
 0002:0000a030       ?all@?$_Locbase@H@std@@2HB 0000000180048030     libcpmt:xthrow.obj
 0002:0000a034       ?none@?$_Locbase@H@std@@2HB 0000000180048034     libcpmt:xthrow.obj
 0002:0000a038       ?digits@?$numeric_limits@C@std@@2HB 0000000180048038     libcpmt:xthrow.obj
 0002:0000a03c       ?digits10@?$numeric_limits@C@std@@2HB 000000018004803c     libcpmt:xthrow.obj
 0002:0000a040       ?is_signed@?$numeric_limits@E@std@@2_NB 0000000180048040     libcpmt:xthrow.obj
 0002:0000a044       ?digits@?$numeric_limits@E@std@@2HB 0000000180048044     libcpmt:xthrow.obj
 0002:0000a048       ?digits10@?$numeric_limits@E@std@@2HB 0000000180048048     libcpmt:xthrow.obj
 0002:0000a04c       ?is_signed@?$numeric_limits@F@std@@2_NB 000000018004804c     libcpmt:xthrow.obj
 0002:0000a050       ?digits@?$numeric_limits@F@std@@2HB 0000000180048050     libcpmt:xthrow.obj
 0002:0000a054       ?digits10@?$numeric_limits@F@std@@2HB 0000000180048054     libcpmt:xthrow.obj
 0002:0000a058       ?is_signed@?$numeric_limits@G@std@@2_NB 0000000180048058     libcpmt:xthrow.obj
 0002:0000a05c       ?digits@?$numeric_limits@G@std@@2HB 000000018004805c     libcpmt:xthrow.obj
 0002:0000a060       ?digits10@?$numeric_limits@G@std@@2HB 0000000180048060     libcpmt:xthrow.obj
 0002:0000a064       ?is_signed@?$numeric_limits@H@std@@2_NB 0000000180048064     libcpmt:xthrow.obj
 0002:0000a068       ?table_size@?$ctype@D@std@@2_KB 0000000180048068     libcpmt:xthrow.obj
 0002:0000a070       ?digits@?$numeric_limits@H@std@@2HB 0000000180048070     libcpmt:xthrow.obj
 0002:0000a074       ?digits10@?$numeric_limits@H@std@@2HB 0000000180048074     libcpmt:xthrow.obj
 0002:0000a078       ?is_signed@?$numeric_limits@I@std@@2_NB 0000000180048078     libcpmt:xthrow.obj
 0002:0000a07c       ?digits@?$numeric_limits@I@std@@2HB 000000018004807c     libcpmt:xthrow.obj
 0002:0000a080       ?digits10@?$numeric_limits@I@std@@2HB 0000000180048080     libcpmt:xthrow.obj
 0002:0000a084       ?is_signed@?$numeric_limits@J@std@@2_NB 0000000180048084     libcpmt:xthrow.obj
 0002:0000a088       ?digits@?$numeric_limits@J@std@@2HB 0000000180048088     libcpmt:xthrow.obj
 0002:0000a08c       ?digits10@?$numeric_limits@J@std@@2HB 000000018004808c     libcpmt:xthrow.obj
 0002:0000a090       ?value@?$integral_constant@H$0A@@std@@2HB 0000000180048090     libcpmt:xthrow.obj
 0002:0000a094       ?is_signed@?$numeric_limits@K@std@@2_NB 0000000180048094     libcpmt:xthrow.obj
 0002:0000a098       ?digits@?$numeric_limits@K@std@@2HB 0000000180048098     libcpmt:xthrow.obj
 0002:0000a09c       ?digits10@?$numeric_limits@K@std@@2HB 000000018004809c     libcpmt:xthrow.obj
 0002:0000a0a0       ?is_signed@?$numeric_limits@_J@std@@2_NB 00000001800480a0     libcpmt:xthrow.obj
 0002:0000a0a4       ?digits@?$numeric_limits@_J@std@@2HB 00000001800480a4     libcpmt:xthrow.obj
 0002:0000a0a8       ?digits10@?$numeric_limits@_J@std@@2HB 00000001800480a8     libcpmt:xthrow.obj
 0002:0000a0ac       ?is_signed@?$numeric_limits@_K@std@@2_NB 00000001800480ac     libcpmt:xthrow.obj
 0002:0000a0b0       ?digits@?$numeric_limits@_K@std@@2HB 00000001800480b0     libcpmt:xthrow.obj
 0002:0000a0b4       ?digits10@?$numeric_limits@_K@std@@2HB 00000001800480b4     libcpmt:xthrow.obj
 0002:0000a0c0       ?_Names@?$_Regex_traits@D@std@@0QBU?$_Cl_names@D@2@B 00000001800480c0     libcpmt:xthrow.obj
 0002:0000a1c0       ?digits@?$numeric_limits@M@std@@2HB 00000001800481c0     libcpmt:xthrow.obj
 0002:0000a1c4       ?digits10@?$numeric_limits@M@std@@2HB 00000001800481c4     libcpmt:xthrow.obj
 0002:0000a1c8       ?max_digits10@?$numeric_limits@M@std@@2HB 00000001800481c8     libcpmt:xthrow.obj
 0002:0000a1cc       ?max_exponent@?$numeric_limits@M@std@@2HB 00000001800481cc     libcpmt:xthrow.obj
 0002:0000a1d0       ?max_exponent10@?$numeric_limits@M@std@@2HB 00000001800481d0     libcpmt:xthrow.obj
 0002:0000a1d4       ??_C@_05IIMHCHIO@alnum?$AA@ 00000001800481d4     libcpmt:xthrow.obj
 0002:0000a1dc       ??_C@_05IAEKHIAN@alpha?$AA@ 00000001800481dc     libcpmt:xthrow.obj
 0002:0000a1e4       ?min_exponent@?$numeric_limits@M@std@@2HB 00000001800481e4     libcpmt:xthrow.obj
 0002:0000a1e8       ??_C@_05BABJKOGB@blank?$AA@ 00000001800481e8     libcpmt:xthrow.obj
 0002:0000a1f0       ??_C@_05JMDPEFNK@cntrl?$AA@ 00000001800481f0     libcpmt:xthrow.obj
 0002:0000a1f8       ??_C@_01LPLHEDKD@d?$AA@    00000001800481f8     libcpmt:xthrow.obj
 0002:0000a1fc       ??_C@_05ODNOIFML@digit?$AA@ 00000001800481fc     libcpmt:xthrow.obj
 0002:0000a204       ?min_exponent10@?$numeric_limits@M@std@@2HB 0000000180048204     libcpmt:xthrow.obj
 0002:0000a208       ??_C@_05KCJBMLII@graph?$AA@ 0000000180048208     libcpmt:xthrow.obj
 0002:0000a210       ??_C@_05IPJEPLHL@lower?$AA@ 0000000180048210     libcpmt:xthrow.obj
 0002:0000a218       ??_C@_05IJDJACGD@print?$AA@ 0000000180048218     libcpmt:xthrow.obj
 0002:0000a220       ??_C@_05KOBGHFJJ@punct?$AA@ 0000000180048220     libcpmt:xthrow.obj
 0002:0000a228       ??_C@_05OLNILLAB@space?$AA@ 0000000180048228     libcpmt:xthrow.obj
 0002:0000a230       ??_C@_01LKDEMHDF@s?$AA@    0000000180048230     libcpmt:xthrow.obj
 0002:0000a234       ??_C@_05NECKJAMC@upper?$AA@ 0000000180048234     libcpmt:xthrow.obj
 0002:0000a23c       ??_C@_01NOFIACDB@w?$AA@    000000018004823c     libcpmt:xthrow.obj
 0002:0000a240       ??_C@_06BAPHGFFK@xdigit?$AA@ 0000000180048240     libcpmt:xthrow.obj
 0002:0000a248       ?digits@?$numeric_limits@N@std@@2HB 0000000180048248     libcpmt:xthrow.obj
 0002:0000a24c       ?digits10@?$numeric_limits@N@std@@2HB 000000018004824c     libcpmt:xthrow.obj
 0002:0000a250       ?max_digits10@?$numeric_limits@N@std@@2HB 0000000180048250     libcpmt:xthrow.obj
 0002:0000a254       ?max_exponent@?$numeric_limits@N@std@@2HB 0000000180048254     libcpmt:xthrow.obj
 0002:0000a258       ?max_exponent10@?$numeric_limits@N@std@@2HB 0000000180048258     libcpmt:xthrow.obj
 0002:0000a25c       ?min_exponent@?$numeric_limits@N@std@@2HB 000000018004825c     libcpmt:xthrow.obj
 0002:0000a260       ?min_exponent10@?$numeric_limits@N@std@@2HB 0000000180048260     libcpmt:xthrow.obj
 0002:0000a270       ?_Names@?$_Regex_traits@_W@std@@0QBU?$_Cl_names@_W@2@B 0000000180048270     libcpmt:xthrow.obj
 0002:0000a370       ?value@?$integral_constant@_K$07@std@@2_KB 0000000180048370     libcpmt:xthrow.obj
 0002:0000a378       ?digits@?$numeric_limits@O@std@@2HB 0000000180048378     libcpmt:xthrow.obj
 0002:0000a37c       ?digits10@?$numeric_limits@O@std@@2HB 000000018004837c     libcpmt:xthrow.obj
 0002:0000a380       ?max_digits10@?$numeric_limits@O@std@@2HB 0000000180048380     libcpmt:xthrow.obj
 0002:0000a384       ?max_exponent@?$numeric_limits@O@std@@2HB 0000000180048384     libcpmt:xthrow.obj
 0002:0000a388       ?max_exponent10@?$numeric_limits@O@std@@2HB 0000000180048388     libcpmt:xthrow.obj
 0002:0000a38c       ?min_exponent@?$numeric_limits@O@std@@2HB 000000018004838c     libcpmt:xthrow.obj
 0002:0000a390       ??_C@_1M@KLMEPMCM@?$AAa?$AAl?$AAn?$AAu?$AAm?$AA?$AA@ 0000000180048390     libcpmt:xthrow.obj
 0002:0000a3a0       ??_C@_1M@DHGLHBMI@?$AAa?$AAl?$AAp?$AAh?$AAa?$AA?$AA@ 00000001800483a0     libcpmt:xthrow.obj
 0002:0000a3b0       ??_C@_1M@EJAAJBPE@?$AAb?$AAl?$AAa?$AAn?$AAk?$AA?$AA@ 00000001800483b0     libcpmt:xthrow.obj
 0002:0000a3bc       ?min_exponent10@?$numeric_limits@O@std@@2HB 00000001800483bc     libcpmt:xthrow.obj
 0002:0000a3c0       ??_C@_1M@LMIMILA@?$AAc?$AAn?$AAt?$AAr?$AAl?$AA?$AA@ 00000001800483c0     libcpmt:xthrow.obj
 0002:0000a3cc       ??_C@_13GKPPEALH@?$AAd?$AA?$AA@ 00000001800483cc     libcpmt:xthrow.obj
 0002:0000a3d0       ??_C@_1M@JDAEIBKG@?$AAd?$AAi?$AAg?$AAi?$AAt?$AA?$AA@ 00000001800483d0     libcpmt:xthrow.obj
 0002:0000a3e0       ??_C@_1M@MDKNJLLK@?$AAg?$AAr?$AAa?$AAp?$AAh?$AA?$AA@ 00000001800483e0     libcpmt:xthrow.obj
 0002:0000a3f0       ??_C@_1M@LGAECJJD@?$AAl?$AAo?$AAw?$AAe?$AAr?$AA?$AA@ 00000001800483f0     libcpmt:xthrow.obj
 0002:0000a400       ??_C@_1M@ELNLAPLA@?$AAp?$AAr?$AAi?$AAn?$AAt?$AA?$AA@ 0000000180048400     libcpmt:xthrow.obj
 0002:0000a410       ??_C@_1M@BPFMAOAO@?$AAp?$AAu?$AAn?$AAc?$AAt?$AA?$AA@ 0000000180048410     libcpmt:xthrow.obj
 0002:0000a420       ??_C@_1M@LPGODFOM@?$AAs?$AAp?$AAa?$AAc?$AAe?$AA?$AA@ 0000000180048420     libcpmt:xthrow.obj
 0002:0000a42c       ??_C@_13KHDBCPJB@?$AAs?$AA?$AA@ 000000018004842c     libcpmt:xthrow.obj
 0002:0000a430       ??_C@_1M@PLNFCNIC@?$AAu?$AAp?$AAp?$AAe?$AAr?$AA?$AA@ 0000000180048430     libcpmt:xthrow.obj
 0002:0000a440       ??_C@_1O@OAFMJDHN@?$AAx?$AAd?$AAi?$AAg?$AAi?$AAt?$AA?$AA@ 0000000180048440     libcpmt:xthrow.obj
 0002:0000a450       ?value@?$integral_constant@_K$03@std@@2_KB 0000000180048450     libcpmt:xthrow.obj
 0002:0000a458       ?value@?$integral_constant@_K$01@std@@2_KB 0000000180048458     libcpmt:xthrow.obj
 0002:0000a460       ?value@?$integral_constant@_K$00@std@@2_KB 0000000180048460     libcpmt:xthrow.obj
 0002:0000a468       ?_VBITS@?$vector@_NV?$allocator@_N@std@@@std@@2HB 0000000180048468     libcpmt:xthrow.obj
 0002:0000a470       ?value@?$_Maximum@$S@std@@2_KB 0000000180048470     libcpmt:xthrow.obj
 0002:0000a478       ?skipws@?$_Iosb@H@std@@2W4_Fmtflags@12@B 0000000180048478     libcpmt:xthrow.obj
 0002:0000a480       ?value@?$integral_constant@_K$0A@@std@@2_KB 0000000180048480     libcpmt:xthrow.obj
 0002:0000a488       ?unitbuf@?$_Iosb@H@std@@2W4_Fmtflags@12@B 0000000180048488     libcpmt:xthrow.obj
 0002:0000a48c       ?uppercase@?$_Iosb@H@std@@2W4_Fmtflags@12@B 000000018004848c     libcpmt:xthrow.obj
 0002:0000a490       ?showbase@?$_Iosb@H@std@@2W4_Fmtflags@12@B 0000000180048490     libcpmt:xthrow.obj
 0002:0000a494       ?has_denorm@_Num_base@std@@2W4float_denorm_style@2@B 0000000180048494     libcpmt:xthrow.obj
 0002:0000a498       ?showpoint@?$_Iosb@H@std@@2W4_Fmtflags@12@B 0000000180048498     libcpmt:xthrow.obj
 0002:0000a49c       ?has_denorm_loss@_Num_base@std@@2_NB 000000018004849c     libcpmt:xthrow.obj
 0002:0000a4a0       ?showpos@?$_Iosb@H@std@@2W4_Fmtflags@12@B 00000001800484a0     libcpmt:xthrow.obj
 0002:0000a4a4       ?has_infinity@_Num_base@std@@2_NB 00000001800484a4     libcpmt:xthrow.obj
 0002:0000a4a8       ?left@?$_Iosb@H@std@@2W4_Fmtflags@12@B 00000001800484a8     libcpmt:xthrow.obj
 0002:0000a4ac       ?has_quiet_NaN@_Num_base@std@@2_NB 00000001800484ac     libcpmt:xthrow.obj
 0002:0000a4b0       ?right@?$_Iosb@H@std@@2W4_Fmtflags@12@B 00000001800484b0     libcpmt:xthrow.obj
 0002:0000a4b4       ?has_signaling_NaN@_Num_base@std@@2_NB 00000001800484b4     libcpmt:xthrow.obj
 0002:0000a4b8       ?internal@?$_Iosb@H@std@@2W4_Fmtflags@12@B 00000001800484b8     libcpmt:xthrow.obj
 0002:0000a4bc       ?is_bounded@_Num_base@std@@2_NB 00000001800484bc     libcpmt:xthrow.obj
 0002:0000a4c0       ?dec@?$_Iosb@H@std@@2W4_Fmtflags@12@B 00000001800484c0     libcpmt:xthrow.obj
 0002:0000a4c4       ?is_exact@_Num_base@std@@2_NB 00000001800484c4     libcpmt:xthrow.obj
 0002:0000a4c8       ?oct@?$_Iosb@H@std@@2W4_Fmtflags@12@B 00000001800484c8     libcpmt:xthrow.obj
 0002:0000a4cc       ?is_iec559@_Num_base@std@@2_NB 00000001800484cc     libcpmt:xthrow.obj
 0002:0000a4d0       ?hex@?$_Iosb@H@std@@2W4_Fmtflags@12@B 00000001800484d0     libcpmt:xthrow.obj
 0002:0000a4d4       ?is_integer@_Num_base@std@@2_NB 00000001800484d4     libcpmt:xthrow.obj
 0002:0000a4d8       ?scientific@?$_Iosb@H@std@@2W4_Fmtflags@12@B 00000001800484d8     libcpmt:xthrow.obj
 0002:0000a4dc       ?is_modulo@_Num_base@std@@2_NB 00000001800484dc     libcpmt:xthrow.obj
 0002:0000a4e0       ?fixed@?$_Iosb@H@std@@2W4_Fmtflags@12@B 00000001800484e0     libcpmt:xthrow.obj
 0002:0000a4e4       ?is_signed@_Num_base@std@@2_NB 00000001800484e4     libcpmt:xthrow.obj
 0002:0000a4e8       ?hexfloat@?$_Iosb@H@std@@2W4_Fmtflags@12@B 00000001800484e8     libcpmt:xthrow.obj
 0002:0000a4ec       ?is_specialized@_Num_base@std@@2_NB 00000001800484ec     libcpmt:xthrow.obj
 0002:0000a4f0       ?boolalpha@?$_Iosb@H@std@@2W4_Fmtflags@12@B 00000001800484f0     libcpmt:xthrow.obj
 0002:0000a4f4       ?tinyness_before@_Num_base@std@@2_NB 00000001800484f4     libcpmt:xthrow.obj
 0002:0000a4f8       ?_Stdio@?$_Iosb@H@std@@2W4_Fmtflags@12@B 00000001800484f8     libcpmt:xthrow.obj
 0002:0000a4fc       ?traps@_Num_base@std@@2_NB 00000001800484fc     libcpmt:xthrow.obj
 0002:0000a500       ?adjustfield@?$_Iosb@H@std@@2W4_Fmtflags@12@B 0000000180048500     libcpmt:xthrow.obj
 0002:0000a504       ?round_style@_Num_base@std@@2W4float_round_style@2@B 0000000180048504     libcpmt:xthrow.obj
 0002:0000a508       ?basefield@?$_Iosb@H@std@@2W4_Fmtflags@12@B 0000000180048508     libcpmt:xthrow.obj
 0002:0000a50c       ?digits@_Num_base@std@@2HB 000000018004850c     libcpmt:xthrow.obj
 0002:0000a510       ?floatfield@?$_Iosb@H@std@@2W4_Fmtflags@12@B 0000000180048510     libcpmt:xthrow.obj
 0002:0000a514       ?digits10@_Num_base@std@@2HB 0000000180048514     libcpmt:xthrow.obj
 0002:0000a518       ?goodbit@?$_Iosb@H@std@@2W4_Iostate@12@B 0000000180048518     libcpmt:xthrow.obj
 0002:0000a51c       ?max_digits10@_Num_base@std@@2HB 000000018004851c     libcpmt:xthrow.obj
 0002:0000a520       ?max_exponent@_Num_base@std@@2HB 0000000180048520     libcpmt:xthrow.obj
 0002:0000a524       ?eofbit@?$_Iosb@H@std@@2W4_Iostate@12@B 0000000180048524     libcpmt:xthrow.obj
 0002:0000a528       ?failbit@?$_Iosb@H@std@@2W4_Iostate@12@B 0000000180048528     libcpmt:xthrow.obj
 0002:0000a52c       ?max_exponent10@_Num_base@std@@2HB 000000018004852c     libcpmt:xthrow.obj
 0002:0000a530       ?min_exponent@_Num_base@std@@2HB 0000000180048530     libcpmt:xthrow.obj
 0002:0000a534       ?badbit@?$_Iosb@H@std@@2W4_Iostate@12@B 0000000180048534     libcpmt:xthrow.obj
 0002:0000a538       ?min_exponent10@_Num_base@std@@2HB 0000000180048538     libcpmt:xthrow.obj
 0002:0000a53c       ?_Hardfail@?$_Iosb@H@std@@2W4_Iostate@12@B 000000018004853c     libcpmt:xthrow.obj
 0002:0000a540       ?radix@_Num_base@std@@2HB  0000000180048540     libcpmt:xthrow.obj
 0002:0000a544       ?in@?$_Iosb@H@std@@2W4_Openmode@12@B 0000000180048544     libcpmt:xthrow.obj
 0002:0000a548       ?out@?$_Iosb@H@std@@2W4_Openmode@12@B 0000000180048548     libcpmt:xthrow.obj
 0002:0000a54c       ?ate@?$_Iosb@H@std@@2W4_Openmode@12@B 000000018004854c     libcpmt:xthrow.obj
 0002:0000a550       ?app@?$_Iosb@H@std@@2W4_Openmode@12@B 0000000180048550     libcpmt:xthrow.obj
 0002:0000a554       ?trunc@?$_Iosb@H@std@@2W4_Openmode@12@B 0000000180048554     libcpmt:xthrow.obj
 0002:0000a558       ?_Nocreate@?$_Iosb@H@std@@2W4_Openmode@12@B 0000000180048558     libcpmt:xthrow.obj
 0002:0000a55c       ?_Noreplace@?$_Iosb@H@std@@2W4_Openmode@12@B 000000018004855c     libcpmt:xthrow.obj
 0002:0000a560       ?binary@?$_Iosb@H@std@@2W4_Openmode@12@B 0000000180048560     libcpmt:xthrow.obj
 0002:0000a564       ?beg@?$_Iosb@H@std@@2W4_Seekdir@12@B 0000000180048564     libcpmt:xthrow.obj
 0002:0000a568       ?is_bounded@_Num_int_base@std@@2_NB 0000000180048568     libcpmt:xthrow.obj
 0002:0000a56c       ?cur@?$_Iosb@H@std@@2W4_Seekdir@12@B 000000018004856c     libcpmt:xthrow.obj
 0002:0000a570       ?is_exact@_Num_int_base@std@@2_NB 0000000180048570     libcpmt:xthrow.obj
 0002:0000a574       ?end@?$_Iosb@H@std@@2W4_Seekdir@12@B 0000000180048574     libcpmt:xthrow.obj
 0002:0000a578       ?is_integer@_Num_int_base@std@@2_NB 0000000180048578     libcpmt:xthrow.obj
 0002:0000a579       ?is_modulo@_Num_int_base@std@@2_NB 0000000180048579     libcpmt:xthrow.obj
 0002:0000a57a       ?is_specialized@_Num_int_base@std@@2_NB 000000018004857a     libcpmt:xthrow.obj
 0002:0000a57c       ?radix@_Num_int_base@std@@2HB 000000018004857c     libcpmt:xthrow.obj
 0002:0000a580       ?has_denorm@_Num_float_base@std@@2W4float_denorm_style@2@B 0000000180048580     libcpmt:xthrow.obj
 0002:0000a584       ?has_denorm_loss@_Num_float_base@std@@2_NB 0000000180048584     libcpmt:xthrow.obj
 0002:0000a585       ?has_infinity@_Num_float_base@std@@2_NB 0000000180048585     libcpmt:xthrow.obj
 0002:0000a586       ?has_quiet_NaN@_Num_float_base@std@@2_NB 0000000180048586     libcpmt:xthrow.obj
 0002:0000a587       ?has_signaling_NaN@_Num_float_base@std@@2_NB 0000000180048587     libcpmt:xthrow.obj
 0002:0000a588       ?is_bounded@_Num_float_base@std@@2_NB 0000000180048588     libcpmt:xthrow.obj
 0002:0000a589       ?is_exact@_Num_float_base@std@@2_NB 0000000180048589     libcpmt:xthrow.obj
 0002:0000a58a       ?is_iec559@_Num_float_base@std@@2_NB 000000018004858a     libcpmt:xthrow.obj
 0002:0000a58b       ?is_integer@_Num_float_base@std@@2_NB 000000018004858b     libcpmt:xthrow.obj
 0002:0000a58c       ?is_modulo@_Num_float_base@std@@2_NB 000000018004858c     libcpmt:xthrow.obj
 0002:0000a58d       ?is_signed@_Num_float_base@std@@2_NB 000000018004858d     libcpmt:xthrow.obj
 0002:0000a58e       ?is_specialized@_Num_float_base@std@@2_NB 000000018004858e     libcpmt:xthrow.obj
 0002:0000a58f       ?tinyness_before@_Num_float_base@std@@2_NB 000000018004858f     libcpmt:xthrow.obj
 0002:0000a590       ?traps@_Num_float_base@std@@2_NB 0000000180048590     libcpmt:xthrow.obj
 0002:0000a594       ?round_style@_Num_float_base@std@@2W4float_round_style@2@B 0000000180048594     libcpmt:xthrow.obj
 0002:0000a598       ?radix@_Num_float_base@std@@2HB 0000000180048598     libcpmt:xthrow.obj
 0002:0000a5a8       ??_7logic_error@std@@6B@   00000001800485a8     libcpmt:xthrow.obj
 0002:0000a5c0       ??_7invalid_argument@std@@6B@ 00000001800485c0     libcpmt:xthrow.obj
 0002:0000a5d8       ??_7length_error@std@@6B@  00000001800485d8     libcpmt:xthrow.obj
 0002:0000a5f0       ??_7out_of_range@std@@6B@  00000001800485f0     libcpmt:xthrow.obj
 0002:0000a608       ??_7runtime_error@std@@6B@ 0000000180048608     libcpmt:xthrow.obj
 0002:0000a620       ??_7overflow_error@std@@6B@ 0000000180048620     libcpmt:xthrow.obj
 0002:0000a638       ??_7bad_function_call@std@@6B@ 0000000180048638     libcpmt:xthrow.obj
 0002:0000a648       ??_C@_0BC@DPJNKNAF@bad?5function?5call?$AA@ 0000000180048648     libcpmt:xthrow.obj
 0002:0000a668       ??_7regex_error@std@@6B@   0000000180048668     libcpmt:xthrow.obj
 0002:0000a680       ??_C@_0FI@CMNGHIFF@regex_error?$CIerror_collate?$CJ?3?5The?5@ 0000000180048680     libcpmt:xthrow.obj
 0002:0000a6e0       ??_C@_0FE@LJMHKIOC@regex_error?$CIerror_ctype?$CJ?3?5The?5ex@ 00000001800486e0     libcpmt:xthrow.obj
 0002:0000a740       ??_C@_0GI@HEGGMMDL@regex_error?$CIerror_escape?$CJ?3?5The?5e@ 0000000180048740     libcpmt:xthrow.obj
 0002:0000a7b0       ??_C@_0FA@HFMLPGNN@regex_error?$CIerror_backref?$CJ?3?5The?5@ 00000001800487b0     libcpmt:xthrow.obj
 0002:0000a800       ??_C@_0EH@LGEANNAL@regex_error?$CIerror_brack?$CJ?3?5The?5ex@ 0000000180048800     libcpmt:xthrow.obj
 0002:0000a850       ??_C@_0EH@CAGOJGLE@regex_error?$CIerror_paren?$CJ?3?5The?5ex@ 0000000180048850     libcpmt:xthrow.obj
 0002:0000a8a0       ??_C@_0EH@DICJJKLO@regex_error?$CIerror_brace?$CJ?3?5The?5ex@ 00000001800488a0     libcpmt:xthrow.obj
 0002:0000a8f0       ??_C@_0FM@BLDIHIBB@regex_error?$CIerror_badbrace?$CJ?3?5The@ 00000001800488f0     libcpmt:xthrow.obj
 0002:0000a950       ??_C@_0HA@ICNJLCMC@regex_error?$CIerror_range?$CJ?3?5The?5ex@ 0000000180048950     libcpmt:xthrow.obj
 0002:0000a9c0       ??_C@_0GP@PICOBCHA@regex_error?$CIerror_space?$CJ?3?5There?5@ 00000001800489c0     libcpmt:xthrow.obj
 0002:0000aa30       ??_C@_0FK@LCHHHEOA@regex_error?$CIerror_badrepeat?$CJ?3?5On@ 0000000180048a30     libcpmt:xthrow.obj
 0002:0000aa90       ??_C@_0HL@NEKOFBJA@regex_error?$CIerror_complexity?$CJ?3?5T@ 0000000180048a90     libcpmt:xthrow.obj
 0002:0000ab10       ??_C@_0JC@HCDLJLGO@regex_error?$CIerror_stack?$CJ?3?5There?5@ 0000000180048b10     libcpmt:xthrow.obj
 0002:0000aba8       ??_C@_0BJ@CHBLKGNM@regex_error?$CIerror_parse?$CJ?$AA@ 0000000180048ba8     libcpmt:xthrow.obj
 0002:0000abc8       ??_C@_0BK@DFJCACNI@regex_error?$CIerror_syntax?$CJ?$AA@ 0000000180048bc8     libcpmt:xthrow.obj
 0002:0000abe8       ??_C@_0M@KGKAAGCA@regex_error?$AA@ 0000000180048be8     libcpmt:xthrow.obj
 0002:0000b5a0       ??_C@_0BC@CIJDGCDI@permission?5denied?$AA@ 00000001800495a0     libcpmt:syserror.obj
 0002:0000b5b8       ??_C@_0M@MIDIAGJP@file?5exists?$AA@ 00000001800495b8     libcpmt:syserror.obj
 0002:0000b5c8       ??_C@_0P@FDINDDOK@no?5such?5device?$AA@ 00000001800495c8     libcpmt:syserror.obj
 0002:0000b5d8       ??_C@_0BC@EJHOMAAK@filename?5too?5long?$AA@ 00000001800495d8     libcpmt:syserror.obj
 0002:0000b5f0       ??_C@_0BI@NGCEHDD@device?5or?5resource?5busy?$AA@ 00000001800495f0     libcpmt:syserror.obj
 0002:0000b608       ??_C@_08GLNPIFBN@io?5error?$AA@ 0000000180049608     libcpmt:syserror.obj
 0002:0000b618       ??_C@_0BE@JIDOCPHM@directory?5not?5empty?$AA@ 0000000180049618     libcpmt:syserror.obj
 0002:0000b630       ??_C@_0BB@FCMFBGOM@invalid?5argument?$AA@ 0000000180049630     libcpmt:syserror.obj
 0002:0000b648       ??_C@_0BD@IJDJKDEA@no?5space?5on?5device?$AA@ 0000000180049648     libcpmt:syserror.obj
 0002:0000b660       ??_C@_0BK@NDOCBPGE@no?5such?5file?5or?5directory?$AA@ 0000000180049660     libcpmt:syserror.obj
 0002:0000b680       ??_C@_0BH@KEFGLDAF@function?5not?5supported?$AA@ 0000000180049680     libcpmt:syserror.obj
 0002:0000b698       ??_C@_0BC@NJECKMKE@no?5lock?5available?$AA@ 0000000180049698     libcpmt:syserror.obj
 0002:0000b6b0       ??_C@_0BC@ENOOLCNF@not?5enough?5memory?$AA@ 00000001800496b0     libcpmt:syserror.obj
 0002:0000b6c8       ??_C@_0BP@LKNGHENJ@resource?5unavailable?5try?5again?$AA@ 00000001800496c8     libcpmt:syserror.obj
 0002:0000b6e8       ??_C@_0BC@PPHBOELF@cross?5device?5link?$AA@ 00000001800496e8     libcpmt:syserror.obj
 0002:0000b700       ??_C@_0BD@MOLBPMEA@operation?5canceled?$AA@ 0000000180049700     libcpmt:syserror.obj
 0002:0000b718       ??_C@_0BE@GHAFMPAH@too?5many?5files?5open?$AA@ 0000000180049718     libcpmt:syserror.obj
 0002:0000b730       ??_C@_0BC@FNODOBAE@permission_denied?$AA@ 0000000180049730     libcpmt:syserror.obj
 0002:0000b748       ??_C@_0P@LNDJPBFK@address_in_use?$AA@ 0000000180049748     libcpmt:syserror.obj
 0002:0000b758       ??_C@_0BG@IPMGOJF@address_not_available?$AA@ 0000000180049758     libcpmt:syserror.obj
 0002:0000b770       ??_C@_0BN@LCBDHODA@address_family_not_supported?$AA@ 0000000180049770     libcpmt:syserror.obj
 0002:0000b790       ??_C@_0BP@FOJJHMCC@connection_already_in_progress?$AA@ 0000000180049790     libcpmt:syserror.obj
 0002:0000b7b0       ??_C@_0BE@DLHHIBGN@bad_file_descriptor?$AA@ 00000001800497b0     libcpmt:syserror.obj
 0002:0000b7c8       ??_C@_0BD@OJMJDIGI@connection_aborted?$AA@ 00000001800497c8     libcpmt:syserror.obj
 0002:0000b7e0       ??_C@_0BD@NGKCIFEP@connection_refused?$AA@ 00000001800497e0     libcpmt:syserror.obj
 0002:0000b7f8       ??_C@_0BB@JOANDNCK@connection_reset?$AA@ 00000001800497f8     libcpmt:syserror.obj
 0002:0000b810       ??_C@_0BN@JLJNLKLK@destination_address_required?$AA@ 0000000180049810     libcpmt:syserror.obj
 0002:0000b830       ??_C@_0M@IJGMGFGP@bad_address?$AA@ 0000000180049830     libcpmt:syserror.obj
 0002:0000b840       ??_C@_0BB@KKNHPPIN@host_unreachable?$AA@ 0000000180049840     libcpmt:syserror.obj
 0002:0000b858       ??_C@_0BG@DJGBJIIK@operation_in_progress?$AA@ 0000000180049858     libcpmt:syserror.obj
 0002:0000b870       ??_C@_0M@EGEKIIMP@interrupted?$AA@ 0000000180049870     libcpmt:syserror.obj
 0002:0000b880       ??_C@_0BB@FFIHMIPJ@invalid_argument?$AA@ 0000000180049880     libcpmt:syserror.obj
 0002:0000b898       ??_C@_0BC@FIFLCHLO@already_connected?$AA@ 0000000180049898     libcpmt:syserror.obj
 0002:0000b8b0       ??_C@_0BE@GJJJJDDA@too_many_files_open?$AA@ 00000001800498b0     libcpmt:syserror.obj
 0002:0000b8c8       ??_C@_0N@HPMLKHPL@message_size?$AA@ 00000001800498c8     libcpmt:syserror.obj
 0002:0000b8d8       ??_C@_0BC@LEEIKBAL@filename_too_long?$AA@ 00000001800498d8     libcpmt:syserror.obj
 0002:0000b8f0       ??_C@_0N@FCPALPJK@network_down?$AA@ 00000001800498f0     libcpmt:syserror.obj
 0002:0000b900       ??_C@_0O@EHNDLHIG@network_reset?$AA@ 0000000180049900     libcpmt:syserror.obj
 0002:0000b910       ??_C@_0BE@JFNJIDNF@network_unreachable?$AA@ 0000000180049910     libcpmt:syserror.obj
 0002:0000b928       ??_C@_0BA@FDIJKJCL@no_buffer_space?$AA@ 0000000180049928     libcpmt:syserror.obj
 0002:0000b938       ??_C@_0BD@JHIHCGKP@no_protocol_option?$AA@ 0000000180049938     libcpmt:syserror.obj
 0002:0000b950       ??_C@_0O@GBCLHHD@not_connected?$AA@ 0000000180049950     libcpmt:syserror.obj
 0002:0000b960       ??_C@_0N@IMHKKLEM@not_a_socket?$AA@ 0000000180049960     libcpmt:syserror.obj
 0002:0000b970       ??_C@_0BI@ICEIDKLJ@operation_not_supported?$AA@ 0000000180049970     libcpmt:syserror.obj
 0002:0000b988       ??_C@_0BH@KAPBAIJF@protocol_not_supported?$AA@ 0000000180049988     libcpmt:syserror.obj
 0002:0000b9a0       ??_C@_0BE@GAOJJFPC@wrong_protocol_type?$AA@ 00000001800499a0     libcpmt:syserror.obj
 0002:0000b9b8       ??_C@_09NCHNLHPG@timed_out?$AA@ 00000001800499b8     libcpmt:syserror.obj
 0002:0000b9c8       ??_C@_0BG@GDGHKFDH@operation_would_block?$AA@ 00000001800499c8     libcpmt:syserror.obj
 0002:0000b9e0       ??_C@_0BN@LKKBCCDB@address?5family?5not?5supported?$AA@ 00000001800499e0     libcpmt:syserror.obj
 0002:0000ba00       ??_C@_0P@LDMLAFHI@address?5in?5use?$AA@ 0000000180049a00     libcpmt:syserror.obj
 0002:0000ba10       ??_C@_0BG@DHPCNBJB@address?5not?5available?$AA@ 0000000180049a10     libcpmt:syserror.obj
 0002:0000ba28       ??_C@_0BC@DFIBIBIL@already?5connected?$AA@ 0000000180049a28     libcpmt:syserror.obj
 0002:0000ba40       ??_C@_0BH@CAKOHOMI@argument?5list?5too?5long?$AA@ 0000000180049a40     libcpmt:syserror.obj
 0002:0000ba58       ??_C@_0BH@CGIMPKIM@argument?5out?5of?5domain?$AA@ 0000000180049a58     libcpmt:syserror.obj
 0002:0000ba70       ??_C@_0M@KGHGGJGL@bad?5address?$AA@ 0000000180049a70     libcpmt:syserror.obj
 0002:0000ba80       ??_C@_0BE@MPJPGCEO@bad?5file?5descriptor?$AA@ 0000000180049a80     libcpmt:syserror.obj
 0002:0000ba98       ??_C@_0M@PMMIEFCP@bad?5message?$AA@ 0000000180049a98     libcpmt:syserror.obj
 0002:0000baa8       ??_C@_0M@KPHOFDBE@broken?5pipe?$AA@ 0000000180049aa8     libcpmt:syserror.obj
 0002:0000bab8       ??_C@_0BD@MGNDDEGM@connection?5aborted?$AA@ 0000000180049ab8     libcpmt:syserror.obj
 0002:0000bad0       ??_C@_0BP@KAIHPOGN@connection?5already?5in?5progress?$AA@ 0000000180049ad0     libcpmt:syserror.obj
 0002:0000baf0       ??_C@_0BD@PJLIIJEL@connection?5refused?$AA@ 0000000180049af0     libcpmt:syserror.obj
 0002:0000bb08       ??_C@_0BB@IECNJNOI@connection?5reset?$AA@ 0000000180049b08     libcpmt:syserror.obj
 0002:0000bb20       ??_C@_0BN@KDMIFEIP@destination?5address?5required?$AA@ 0000000180049b20     libcpmt:syserror.obj
 0002:0000bb40       ??_C@_0BI@BNCLIGPB@executable?5format?5error?$AA@ 0000000180049b40     libcpmt:syserror.obj
 0002:0000bb58       ??_C@_0P@DNAJLBJK@file?5too?5large?$AA@ 0000000180049b58     libcpmt:syserror.obj
 0002:0000bb68       ??_C@_0BB@DHFDFGDM@host?5unreachable?$AA@ 0000000180049b68     libcpmt:syserror.obj
 0002:0000bb80       ??_C@_0BD@JPHBMONG@identifier?5removed?$AA@ 0000000180049b80     libcpmt:syserror.obj
 0002:0000bb98       ??_C@_0BG@CDNPAGJK@illegal?5byte?5sequence?$AA@ 0000000180049b98     libcpmt:syserror.obj
 0002:0000bbb0       ??_C@_0CD@BNPLBMNA@inappropriate?5io?5control?5operati@ 0000000180049bb0     libcpmt:syserror.obj
 0002:0000bbd8       ??_C@_0N@OHAFKDEK@invalid?5seek?$AA@ 0000000180049bd8     libcpmt:syserror.obj
 0002:0000bbe8       ??_C@_0P@FLLDBIDK@is?5a?5directory?$AA@ 0000000180049be8     libcpmt:syserror.obj
 0002:0000bbf8       ??_C@_0N@IFLPBIOP@message?5size?$AA@ 0000000180049bf8     libcpmt:syserror.obj
 0002:0000bc08       ??_C@_0N@KIIEAAIO@network?5down?$AA@ 0000000180049c08     libcpmt:syserror.obj
 0002:0000bc18       ??_C@_0O@FNPDBHEE@network?5reset?$AA@ 0000000180049c18     libcpmt:syserror.obj
 0002:0000bc28       ??_C@_0BE@IFNCKGE@network?5unreachable?$AA@ 0000000180049c28     libcpmt:syserror.obj
 0002:0000bc40       ??_C@_0BA@PFFCAOFK@no?5buffer?5space?$AA@ 0000000180049c40     libcpmt:syserror.obj
 0002:0000bc50       ??_C@_0BB@IEPBLJHK@no?5child?5process?$AA@ 0000000180049c50     libcpmt:syserror.obj
 0002:0000bc68       ??_C@_07PLECNNKG@no?5link?$AA@ 0000000180049c68     libcpmt:syserror.obj
 0002:0000bc70       ??_C@_0BF@PBGGPKKE@no?5message?5available?$AA@ 0000000180049c70     libcpmt:syserror.obj
 0002:0000bc88       ??_C@_0L@EDOLMPAK@no?5message?$AA@ 0000000180049c88     libcpmt:syserror.obj
 0002:0000bc98       ??_C@_0BD@EAMBFIDF@no?5protocol?5option?$AA@ 0000000180049c98     libcpmt:syserror.obj
 0002:0000bcb0       ??_C@_0BE@MKFDAFMP@no?5stream?5resources?$AA@ 0000000180049cb0     libcpmt:syserror.obj
 0002:0000bcc8       ??_C@_0BK@IMCPHCBI@no?5such?5device?5or?5address?$AA@ 0000000180049cc8     libcpmt:syserror.obj
 0002:0000bce8       ??_C@_0BA@ENLPPKBN@no?5such?5process?$AA@ 0000000180049ce8     libcpmt:syserror.obj
 0002:0000bcf8       ??_C@_0BA@DOCPFFJG@not?5a?5directory?$AA@ 0000000180049cf8     libcpmt:syserror.obj
 0002:0000bd08       ??_C@_0N@POEIPGGF@not?5a?5socket?$AA@ 0000000180049d08     libcpmt:syserror.obj
 0002:0000bd18       ??_C@_0N@LGAPMMPI@not?5a?5stream?$AA@ 0000000180049d18     libcpmt:syserror.obj
 0002:0000bd28       ??_C@_0O@GLMIBBEG@not?5connected?$AA@ 0000000180049d28     libcpmt:syserror.obj
 0002:0000bd38       ??_C@_0O@NHEDABJP@not?5supported?$AA@ 0000000180049d38     libcpmt:syserror.obj
 0002:0000bd48       ??_C@_0BG@KDKHOPCO@operation?5in?5progress?$AA@ 0000000180049d48     libcpmt:syserror.obj
 0002:0000bd60       ??_C@_0BI@OHIEJAAB@operation?5not?5permitted?$AA@ 0000000180049d60     libcpmt:syserror.obj
 0002:0000bd78       ??_C@_0BI@LNEGIFLN@operation?5not?5supported?$AA@ 0000000180049d78     libcpmt:syserror.obj
 0002:0000bd90       ??_C@_0BG@OEMDKMEE@operation?5would?5block?$AA@ 0000000180049d90     libcpmt:syserror.obj
 0002:0000bda8       ??_C@_0L@BLPOFLNJ@owner?5dead?$AA@ 0000000180049da8     libcpmt:syserror.obj
 0002:0000bdb8       ??_C@_0P@FNPOCJBE@protocol?5error?$AA@ 0000000180049db8     libcpmt:syserror.obj
 0002:0000bdc8       ??_C@_0BH@JPPPLHJB@protocol?5not?5supported?$AA@ 0000000180049dc8     libcpmt:syserror.obj
 0002:0000bde0       ??_C@_0BG@EICBIHDP@read?5only?5file?5system?$AA@ 0000000180049de0     libcpmt:syserror.obj
 0002:0000bdf8       ??_C@_0BO@BJBOMOEJ@resource?5deadlock?5would?5occur?$AA@ 0000000180049df8     libcpmt:syserror.obj
 0002:0000be18       ??_C@_0BE@GOIPJJHG@result?5out?5of?5range?$AA@ 0000000180049e18     libcpmt:syserror.obj
 0002:0000be30       ??_C@_0BG@MPLKFPAE@state?5not?5recoverable?$AA@ 0000000180049e30     libcpmt:syserror.obj
 0002:0000be48       ??_C@_0P@DIIFGFCG@stream?5timeout?$AA@ 0000000180049e48     libcpmt:syserror.obj
 0002:0000be58       ??_C@_0P@IPFDMIFL@text?5file?5busy?$AA@ 0000000180049e58     libcpmt:syserror.obj
 0002:0000be68       ??_C@_09KJPPMAOI@timed?5out?$AA@ 0000000180049e68     libcpmt:syserror.obj
 0002:0000be78       ??_C@_0BO@HACHBEKI@too?5many?5files?5open?5in?5system?$AA@ 0000000180049e78     libcpmt:syserror.obj
 0002:0000be98       ??_C@_0P@HCOMKFCC@too?5many?5links?$AA@ 0000000180049e98     libcpmt:syserror.obj
 0002:0000bea8       ??_C@_0BO@EFGOJEF@too?5many?5symbolic?5link?5levels?$AA@ 0000000180049ea8     libcpmt:syserror.obj
 0002:0000bec8       ??_C@_0BA@KGKGOOJA@value?5too?5large?$AA@ 0000000180049ec8     libcpmt:syserror.obj
 0002:0000bed8       ??_C@_0BE@MIEJDDNH@wrong?5protocol?5type?$AA@ 0000000180049ed8     libcpmt:syserror.obj
 0002:0000bef0       _load_config_used          0000000180049ef0     LIBCMT:loadcfg.obj
 0002:0000bfb8       ??_R4MiniDmpSender@@6B@    0000000180049fb8     BugSplatImp.obj
 0002:0000bfe0       ??_R3MiniDmpSender@@8      0000000180049fe0     BugSplatImp.obj
 0002:0000bff8       ??_R2MiniDmpSender@@8      0000000180049ff8     BugSplatImp.obj
 0002:0000c008       ??_R1A@?0A@EA@MiniDmpSender@@8 000000018004a008     BugSplatImp.obj
 0002:0000c030       ??_R4MiniDumper@@6B@       000000018004a030     mdump.obj
 0002:0000c058       ??_R3MiniDumper@@8         000000018004a058     mdump.obj
 0002:0000c070       ??_R2MiniDumper@@8         000000018004a070     mdump.obj
 0002:0000c080       ??_R1A@?0A@EA@MiniDumper@@8 000000018004a080     mdump.obj
 0002:0000c0a8       ??_R4error_category@std@@6B@ 000000018004a0a8     mdump.obj
 0002:0000c0d0       ??_R3error_category@std@@8 000000018004a0d0     mdump.obj
 0002:0000c0e8       ??_R2error_category@std@@8 000000018004a0e8     mdump.obj
 0002:0000c0f8       ??_R1A@?0A@EA@error_category@std@@8 000000018004a0f8     mdump.obj
 0002:0000c120       ??_R4_Generic_error_category@std@@6B@ 000000018004a120     mdump.obj
 0002:0000c148       ??_R3_Generic_error_category@std@@8 000000018004a148     mdump.obj
 0002:0000c160       ??_R2_Generic_error_category@std@@8 000000018004a160     mdump.obj
 0002:0000c178       ??_R1A@?0A@EA@_Generic_error_category@std@@8 000000018004a178     mdump.obj
 0002:0000c1a0       ??_R4_Iostream_error_category@std@@6B@ 000000018004a1a0     mdump.obj
 0002:0000c1c8       ??_R3_Iostream_error_category@std@@8 000000018004a1c8     mdump.obj
 0002:0000c1e0       ??_R2_Iostream_error_category@std@@8 000000018004a1e0     mdump.obj
 0002:0000c200       ??_R1A@?0A@EA@_Iostream_error_category@std@@8 000000018004a200     mdump.obj
 0002:0000c228       ??_R4_System_error_category@std@@6B@ 000000018004a228     mdump.obj
 0002:0000c250       ??_R3_System_error_category@std@@8 000000018004a250     mdump.obj
 0002:0000c268       ??_R2_System_error_category@std@@8 000000018004a268     mdump.obj
 0002:0000c288       ??_R1A@?0A@EA@_System_error_category@std@@8 000000018004a288     mdump.obj
 0002:0000c2b0       ??_R3IUnknown@@8           000000018004a2b0     sbSenderApp.obj
 0002:0000c2c8       ??_R2IUnknown@@8           000000018004a2c8     sbSenderApp.obj
 0002:0000c2d8       ??_R1A@?0A@EA@IUnknown@@8  000000018004a2d8     sbSenderApp.obj
 0002:0000c300       ??_R3IRegistrarBase@@8     000000018004a300     sbSenderApp.obj
 0002:0000c318       ??_R2IRegistrarBase@@8     000000018004a318     sbSenderApp.obj
 0002:0000c330       ??_R1A@?0A@EA@IRegistrarBase@@8 000000018004a330     sbSenderApp.obj
 0002:0000c358       ??_R3CAtlModule@ATL@@8     000000018004a358     sbSenderApp.obj
 0002:0000c370       ??_R2CAtlModule@ATL@@8     000000018004a370     sbSenderApp.obj
 0002:0000c388       ??_R1A@?0A@EA@CAtlModule@ATL@@8 000000018004a388     sbSenderApp.obj
 0002:0000c3b0       ??_R17?0A@EA@_ATL_MODULE70@ATL@@8 000000018004a3b0     sbSenderApp.obj
 0002:0000c3d8       ??_R3_ATL_MODULE70@ATL@@8  000000018004a3d8     sbSenderApp.obj
 0002:0000c3f0       ??_R2_ATL_MODULE70@ATL@@8  000000018004a3f0     sbSenderApp.obj
 0002:0000c400       ??_R1A@?0A@EA@_ATL_MODULE70@ATL@@8 000000018004a400     sbSenderApp.obj
 0002:0000c428       ??_R4CComModule@ATL@@6B@   000000018004a428     sbSenderApp.obj
 0002:0000c450       ??_R3CComModule@ATL@@8     000000018004a450     sbSenderApp.obj
 0002:0000c468       ??_R2CComModule@ATL@@8     000000018004a468     sbSenderApp.obj
 0002:0000c490       ??_R1A@?0A@EA@CComModule@ATL@@8 000000018004a490     sbSenderApp.obj
 0002:0000c4b8       ??_R1A@?0A@EA@?$CAtlModuleT@VCComModule@ATL@@@ATL@@8 000000018004a4b8     sbSenderApp.obj
 0002:0000c4e0       ??_R3?$CAtlModuleT@VCComModule@ATL@@@ATL@@8 000000018004a4e0     sbSenderApp.obj
 0002:0000c4f8       ??_R2?$CAtlModuleT@VCComModule@ATL@@@ATL@@8 000000018004a4f8     sbSenderApp.obj
 0002:0000c518       ??_R4CRegObject@ATL@@6B@   000000018004a518     sbSenderApp.obj
 0002:0000c540       ??_R3CRegObject@ATL@@8     000000018004a540     sbSenderApp.obj
 0002:0000c558       ??_R2CRegObject@ATL@@8     000000018004a558     sbSenderApp.obj
 0002:0000c578       ??_R1A@?0A@EA@CRegObject@ATL@@8 000000018004a578     sbSenderApp.obj
 0002:0000c5a0       ??_R4CAppModule@WTL@@6B@   000000018004a5a0     sbSenderApp.obj
 0002:0000c5c8       ??_R3CAppModule@WTL@@8     000000018004a5c8     sbSenderApp.obj
 0002:0000c5e0       ??_R2CAppModule@WTL@@8     000000018004a5e0     sbSenderApp.obj
 0002:0000c610       ??_R1A@?0A@EA@CAppModule@WTL@@8 000000018004a610     sbSenderApp.obj
 0002:0000c638       ??_R4type_info@@6B@        000000018004a638     LIBCMT:typinfo.obj
 0002:0000c660       ??_R3type_info@@8          000000018004a660     LIBCMT:typinfo.obj
 0002:0000c678       ??_R2type_info@@8          000000018004a678     LIBCMT:typinfo.obj
 0002:0000c688       ??_R1A@?0A@EA@type_info@@8 000000018004a688     LIBCMT:typinfo.obj
 0002:0000c6b0       ??_R1A@?0A@EA@exception@std@@8 000000018004a6b0     LIBCMT:new.obj
 0002:0000c6d8       ??_R3exception@std@@8      000000018004a6d8     LIBCMT:new.obj
 0002:0000c6f0       ??_R2exception@std@@8      000000018004a6f0     LIBCMT:new.obj
 0002:0000c700       ??_R4bad_alloc@std@@6B@    000000018004a700     LIBCMT:new.obj
 0002:0000c728       ??_R3bad_alloc@std@@8      000000018004a728     LIBCMT:new.obj
 0002:0000c740       ??_R2bad_alloc@std@@8      000000018004a740     LIBCMT:new.obj
 0002:0000c758       ??_R1A@?0A@EA@bad_alloc@std@@8 000000018004a758     LIBCMT:new.obj
 0002:0000c780       ??_R4bad_exception@std@@6B@ 000000018004a780     LIBCMT:frame.obj
 0002:0000c7a8       ??_R3bad_exception@std@@8  000000018004a7a8     LIBCMT:frame.obj
 0002:0000c7c0       ??_R2bad_exception@std@@8  000000018004a7c0     LIBCMT:frame.obj
 0002:0000c7d8       ??_R1A@?0A@EA@bad_exception@std@@8 000000018004a7d8     LIBCMT:frame.obj
 0002:0000c800       ??_R4exception@std@@6B@    000000018004a800     LIBCMT:stdexcpt.obj
 0002:0000c828       ??_R4bad_cast@std@@6B@     000000018004a828     LIBCMT:stdexcpt.obj
 0002:0000c850       ??_R3bad_cast@std@@8       000000018004a850     LIBCMT:stdexcpt.obj
 0002:0000c868       ??_R2bad_cast@std@@8       000000018004a868     LIBCMT:stdexcpt.obj
 0002:0000c880       ??_R1A@?0A@EA@bad_cast@std@@8 000000018004a880     LIBCMT:stdexcpt.obj
 0002:0000c8a8       ??_R4bad_typeid@std@@6B@   000000018004a8a8     LIBCMT:stdexcpt.obj
 0002:0000c8d0       ??_R3bad_typeid@std@@8     000000018004a8d0     LIBCMT:stdexcpt.obj
 0002:0000c8e8       ??_R2bad_typeid@std@@8     000000018004a8e8     LIBCMT:stdexcpt.obj
 0002:0000c900       ??_R1A@?0A@EA@bad_typeid@std@@8 000000018004a900     LIBCMT:stdexcpt.obj
 0002:0000c928       ??_R4__non_rtti_object@std@@6B@ 000000018004a928     LIBCMT:stdexcpt.obj
 0002:0000c950       ??_R3__non_rtti_object@std@@8 000000018004a950     LIBCMT:stdexcpt.obj
 0002:0000c968       ??_R2__non_rtti_object@std@@8 000000018004a968     LIBCMT:stdexcpt.obj
 0002:0000c988       ??_R1A@?0A@EA@__non_rtti_object@std@@8 000000018004a988     LIBCMT:stdexcpt.obj
 0002:0000c9b0       ??_R4DNameNode@@6B@        000000018004a9b0     LIBCMT:undname.obj
 0002:0000c9d8       ??_R3DNameNode@@8          000000018004a9d8     LIBCMT:undname.obj
 0002:0000c9f0       ??_R2DNameNode@@8          000000018004a9f0     LIBCMT:undname.obj
 0002:0000ca00       ??_R1A@?0A@EA@DNameNode@@8 000000018004aa00     LIBCMT:undname.obj
 0002:0000ca28       ??_R4charNode@@6B@         000000018004aa28     LIBCMT:undname.obj
 0002:0000ca50       ??_R3charNode@@8           000000018004aa50     LIBCMT:undname.obj
 0002:0000ca68       ??_R2charNode@@8           000000018004aa68     LIBCMT:undname.obj
 0002:0000ca80       ??_R1A@?0A@EA@charNode@@8  000000018004aa80     LIBCMT:undname.obj
 0002:0000caa8       ??_R4pcharNode@@6B@        000000018004aaa8     LIBCMT:undname.obj
 0002:0000cad0       ??_R3pcharNode@@8          000000018004aad0     LIBCMT:undname.obj
 0002:0000cae8       ??_R2pcharNode@@8          000000018004aae8     LIBCMT:undname.obj
 0002:0000cb00       ??_R1A@?0A@EA@pcharNode@@8 000000018004ab00     LIBCMT:undname.obj
 0002:0000cb28       ??_R4pDNameNode@@6B@       000000018004ab28     LIBCMT:undname.obj
 0002:0000cb50       ??_R3pDNameNode@@8         000000018004ab50     LIBCMT:undname.obj
 0002:0000cb68       ??_R2pDNameNode@@8         000000018004ab68     LIBCMT:undname.obj
 0002:0000cb80       ??_R1A@?0A@EA@pDNameNode@@8 000000018004ab80     LIBCMT:undname.obj
 0002:0000cba8       ??_R4DNameStatusNode@@6B@  000000018004aba8     LIBCMT:undname.obj
 0002:0000cbd0       ??_R3DNameStatusNode@@8    000000018004abd0     LIBCMT:undname.obj
 0002:0000cbe8       ??_R2DNameStatusNode@@8    000000018004abe8     LIBCMT:undname.obj
 0002:0000cc00       ??_R1A@?0A@EA@DNameStatusNode@@8 000000018004ac00     LIBCMT:undname.obj
 0002:0000cc28       ??_R4pairNode@@6B@         000000018004ac28     LIBCMT:undname.obj
 0002:0000cc50       ??_R3pairNode@@8           000000018004ac50     LIBCMT:undname.obj
 0002:0000cc68       ??_R2pairNode@@8           000000018004ac68     LIBCMT:undname.obj
 0002:0000cc80       ??_R1A@?0A@EA@pairNode@@8  000000018004ac80     LIBCMT:undname.obj
 0002:0000cca8       ??_R4logic_error@std@@6B@  000000018004aca8     libcpmt:xthrow.obj
 0002:0000ccd0       ??_R3logic_error@std@@8    000000018004acd0     libcpmt:xthrow.obj
 0002:0000cce8       ??_R2logic_error@std@@8    000000018004ace8     libcpmt:xthrow.obj
 0002:0000cd00       ??_R1A@?0A@EA@logic_error@std@@8 000000018004ad00     libcpmt:xthrow.obj
 0002:0000cd28       ??_R4invalid_argument@std@@6B@ 000000018004ad28     libcpmt:xthrow.obj
 0002:0000cd50       ??_R3invalid_argument@std@@8 000000018004ad50     libcpmt:xthrow.obj
 0002:0000cd68       ??_R2invalid_argument@std@@8 000000018004ad68     libcpmt:xthrow.obj
 0002:0000cd88       ??_R1A@?0A@EA@invalid_argument@std@@8 000000018004ad88     libcpmt:xthrow.obj
 0002:0000cdb0       ??_R4length_error@std@@6B@ 000000018004adb0     libcpmt:xthrow.obj
 0002:0000cdd8       ??_R3length_error@std@@8   000000018004add8     libcpmt:xthrow.obj
 0002:0000cdf0       ??_R2length_error@std@@8   000000018004adf0     libcpmt:xthrow.obj
 0002:0000ce10       ??_R1A@?0A@EA@length_error@std@@8 000000018004ae10     libcpmt:xthrow.obj
 0002:0000ce38       ??_R4out_of_range@std@@6B@ 000000018004ae38     libcpmt:xthrow.obj
 0002:0000ce60       ??_R3out_of_range@std@@8   000000018004ae60     libcpmt:xthrow.obj
 0002:0000ce78       ??_R2out_of_range@std@@8   000000018004ae78     libcpmt:xthrow.obj
 0002:0000ce98       ??_R1A@?0A@EA@out_of_range@std@@8 000000018004ae98     libcpmt:xthrow.obj
 0002:0000cec0       ??_R4runtime_error@std@@6B@ 000000018004aec0     libcpmt:xthrow.obj
 0002:0000cee8       ??_R3runtime_error@std@@8  000000018004aee8     libcpmt:xthrow.obj
 0002:0000cf00       ??_R2runtime_error@std@@8  000000018004af00     libcpmt:xthrow.obj
 0002:0000cf18       ??_R1A@?0A@EA@runtime_error@std@@8 000000018004af18     libcpmt:xthrow.obj
 0002:0000cf40       ??_R4overflow_error@std@@6B@ 000000018004af40     libcpmt:xthrow.obj
 0002:0000cf68       ??_R3overflow_error@std@@8 000000018004af68     libcpmt:xthrow.obj
 0002:0000cf80       ??_R2overflow_error@std@@8 000000018004af80     libcpmt:xthrow.obj
 0002:0000cfa0       ??_R1A@?0A@EA@overflow_error@std@@8 000000018004afa0     libcpmt:xthrow.obj
 0002:0000cfc8       ??_R4bad_function_call@std@@6B@ 000000018004afc8     libcpmt:xthrow.obj
 0002:0000cff0       ??_R3bad_function_call@std@@8 000000018004aff0     libcpmt:xthrow.obj
 0002:0000d008       ??_R2bad_function_call@std@@8 000000018004b008     libcpmt:xthrow.obj
 0002:0000d020       ??_R1A@?0A@EA@bad_function_call@std@@8 000000018004b020     libcpmt:xthrow.obj
 0002:0000d048       ??_R4regex_error@std@@6B@  000000018004b048     libcpmt:xthrow.obj
 0002:0000d070       ??_R3regex_error@std@@8    000000018004b070     libcpmt:xthrow.obj
 0002:0000d088       ??_R2regex_error@std@@8    000000018004b088     libcpmt:xthrow.obj
 0002:0000d0a8       ??_R1A@?0A@EA@regex_error@std@@8 000000018004b0a8     libcpmt:xthrow.obj
 0002:0000d0d0       __rtc_iaa                  000000018004b0d0     LIBCMT:initsect.obj
 0002:0000d0d8       __rtc_izz                  000000018004b0d8     LIBCMT:initsect.obj
 0002:0000d0e0       __rtc_taa                  000000018004b0e0     LIBCMT:initsect.obj
 0002:0000d0e8       __rtc_tzz                  000000018004b0e8     LIBCMT:initsect.obj
 0002:00012448       _TI1H                      0000000180050448     BugSplatImp.obj
 0002:00012468       _CTA1H                     0000000180050468     BugSplatImp.obj
 0002:00012478       _CT??_R0H@84               0000000180050478     BugSplatImp.obj
 0002:000124a0       _TI1?AVCAtlException@ATL@@ 00000001800504a0     sbSenderApp.obj
 0002:000124c0       _CTA1?AVCAtlException@ATL@@ 00000001800504c0     sbSenderApp.obj
 0002:000124d0       _CT??_R0?AVCAtlException@ATL@@@84 00000001800504d0     sbSenderApp.obj
 0002:000124f8       _TI2?AVbad_alloc@std@@     00000001800504f8     LIBCMT:new.obj
 0002:00012518       _CTA2?AVbad_alloc@std@@    0000000180050518     LIBCMT:new.obj
 0002:00012530       _CT??_R0?AVbad_alloc@std@@@8??0bad_alloc@std@@QEAA@AEBV01@@Z24 0000000180050530     LIBCMT:new.obj
 0002:00012558       _CT??_R0?AVexception@std@@@8??0exception@std@@QEAA@AEBV01@@Z24 0000000180050558     LIBCMT:new.obj
 0002:00012580       _TI2?AVbad_exception@std@@ 0000000180050580     LIBCMT:frame.obj
 0002:000125a0       _CTA2?AVbad_exception@std@@ 00000001800505a0     LIBCMT:frame.obj
 0002:000125b8       _CT??_R0?AVbad_exception@std@@@8??0bad_exception@std@@QEAA@AEBV01@@Z24 00000001800505b8     LIBCMT:frame.obj
 0002:000125e0       _TI3?AVinvalid_argument@std@@ 00000001800505e0     libcpmt:xthrow.obj
 0002:00012600       _CTA3?AVinvalid_argument@std@@ 0000000180050600     libcpmt:xthrow.obj
 0002:00012620       _CT??_R0?AVinvalid_argument@std@@@8??0invalid_argument@std@@QEAA@AEBV01@@Z24 0000000180050620     libcpmt:xthrow.obj
 0002:00012648       _CT??_R0?AVlogic_error@std@@@8??0logic_error@std@@QEAA@AEBV01@@Z24 0000000180050648     libcpmt:xthrow.obj
 0002:00012670       _TI3?AVlength_error@std@@  0000000180050670     libcpmt:xthrow.obj
 0002:00012690       _CTA3?AVlength_error@std@@ 0000000180050690     libcpmt:xthrow.obj
 0002:000126b0       _CT??_R0?AVlength_error@std@@@8??0length_error@std@@QEAA@AEBV01@@Z24 00000001800506b0     libcpmt:xthrow.obj
 0002:000126d8       _TI3?AVout_of_range@std@@  00000001800506d8     libcpmt:xthrow.obj
 0002:000126f8       _CTA3?AVout_of_range@std@@ 00000001800506f8     libcpmt:xthrow.obj
 0002:00012718       _CT??_R0?AVout_of_range@std@@@8??0out_of_range@std@@QEAA@AEBV01@@Z24 0000000180050718     libcpmt:xthrow.obj
 0002:00012740       _TI3?AVoverflow_error@std@@ 0000000180050740     libcpmt:xthrow.obj
 0002:00012760       _CTA3?AVoverflow_error@std@@ 0000000180050760     libcpmt:xthrow.obj
 0002:00012780       _CT??_R0?AVoverflow_error@std@@@8??0overflow_error@std@@QEAA@AEBV01@@Z24 0000000180050780     libcpmt:xthrow.obj
 0002:000127a8       _CT??_R0?AVruntime_error@std@@@8??0runtime_error@std@@QEAA@AEBV01@@Z24 00000001800507a8     libcpmt:xthrow.obj
 0002:000127d0       _TI2?AVruntime_error@std@@ 00000001800507d0     libcpmt:xthrow.obj
 0002:000127f0       _CTA2?AVruntime_error@std@@ 00000001800507f0     libcpmt:xthrow.obj
 0002:00012808       _TI2?AVbad_function_call@std@@ 0000000180050808     libcpmt:xthrow.obj
 0002:00012828       _CTA2?AVbad_function_call@std@@ 0000000180050828     libcpmt:xthrow.obj
 0002:00012840       _CT??_R0?AVbad_function_call@std@@@8??0bad_function_call@std@@QEAA@AEBV01@@Z24 0000000180050840     libcpmt:xthrow.obj
 0002:00012868       _TI3?AVregex_error@std@@   0000000180050868     libcpmt:xthrow.obj
 0002:00012888       _CTA3?AVregex_error@std@@  0000000180050888     libcpmt:xthrow.obj
 0002:000128a8       _CT??_R0?AVregex_error@std@@@8??0regex_error@std@@QEAA@AEBV01@@Z32 00000001800508a8     libcpmt:xthrow.obj
 0002:000128d0       __pobjMapEntryFirst        00000001800508d0     sbSenderApp.obj
 0002:000128d8       __pobjMapEntryLast         00000001800508d8     sbSenderApp.obj
 0002:00013248       __IMPORT_DESCRIPTOR_SHLWAPI 0000000180051248     shlwapi:SHLWAPI.dll
 0002:0001325c       __IMPORT_DESCRIPTOR_KERNEL32 000000018005125c     kernel32:KERNEL32.dll
 0002:00013270       __IMPORT_DESCRIPTOR_USER32 0000000180051270     user32:USER32.dll
 0002:00013284       __IMPORT_DESCRIPTOR_ADVAPI32 0000000180051284     advapi32:ADVAPI32.dll
 0002:00013298       __IMPORT_DESCRIPTOR_ole32  0000000180051298     ole32:ole32.dll
 0002:000132ac       __IMPORT_DESCRIPTOR_OLEAUT32 00000001800512ac     oleaut32:OLEAUT32.dll
 0002:000132c0       __IMPORT_DESCRIPTOR_VERSION 00000001800512c0     version:VERSION.dll
 0002:000132d4       __IMPORT_DESCRIPTOR_RPCRT4 00000001800512d4     Rpcrt4:RPCRT4.dll
 0002:000132e8       __NULL_IMPORT_DESCRIPTOR   00000001800512e8     shlwapi:SHLWAPI.dll
 0003:00000000       ?rgInitData@WTL@@3PAHA     0000000180053000     BugSplatImp.obj
 0003:00000010       ?_atltmpDataNil@WTL@@3PEAUCStringData@1@EA 0000000180053010     BugSplatImp.obj
 0003:00000018       ?_atltmpPchNil@WTL@@3PEB_WEB 0000000180053018     BugSplatImp.obj
 0003:00000020       ?m_enableFilter@MiniDumper@@2_NA 0000000180053020     mdump.obj
 0003:00000024       ?m_waitCreateReportThreaded@MiniDumper@@2HA 0000000180053024     mdump.obj
 0003:00000028       ?m_waitSendReportThreaded@MiniDumper@@2HA 0000000180053028     mdump.obj
 0003:00000030       ?_Generic_object@?$_Error_objects@H@std@@2V_Generic_error_category@2@A 0000000180053030     mdump.obj
 0003:00000038       ?_Iostream_object@?$_Error_objects@H@std@@2V_Iostream_error_category@2@A 0000000180053038     mdump.obj
 0003:00000040       ?_System_object@?$_Error_objects@H@std@@2V_System_error_category@2@A 0000000180053040     mdump.obj
 0003:00000048       ?rcDefault@CWindow@ATL@@2UtagRECT@@A 0000000180053048     StdAfx.obj
 0003:00000060       __security_cookie          0000000180053060     LIBCMT:gs_cookie.obj
 0003:00000068       __security_cookie_complement 0000000180053068     LIBCMT:gs_cookie.obj
 0003:00000070       __abort_behavior           0000000180053070     LIBCMT:abort.obj
 0003:00000080       _fltused                   0000000180053080     LIBCMT:fpinit.obj
 0003:00000084       _ldused                    0000000180053084     LIBCMT:fpinit.obj
 0003:00000450       _cfltcvt_tab               0000000180053450     LIBCMT:cmiscdat.obj
 0003:000004a0       _mbctype                   00000001800534a0     LIBCMT:mbctype.obj
 0003:000005b0       _mbcasemap                 00000001800535b0     LIBCMT:mbctype.obj
 0003:000006b0       __initialmbcinfo           00000001800536b0     LIBCMT:mbctype.obj
 0003:000009d0       __ptmbcinfo                00000001800539d0     LIBCMT:mbctype.obj
 0003:000009d8       __isa_available            00000001800539d8     LIBCMT:cpu_disp.obj
 0003:000009dc       __isa_enabled              00000001800539dc     LIBCMT:cpu_disp.obj
 0003:000009e0       __flsindex                 00000001800539e0     LIBCMT:tidtable.obj
 0003:000009f0       __mb_cur_max               00000001800539f0     LIBCMT:nlsdata.obj
 0003:000009f4       __wclocalestr              00000001800539f4     LIBCMT:nlsdata.obj
 0003:00000a00       __lc_time_c                0000000180053a00     LIBCMT:nlsdata.obj
 0003:00000cc0       __ptlocinfo                0000000180053cc0     LIBCMT:nlsdata.obj
 0003:00000cd0       __initiallocinfo           0000000180053cd0     LIBCMT:nlsdata.obj
 0003:00000e28       __initiallocalestructinfo  0000000180053e28     LIBCMT:nlsdata.obj
 0003:00000e38       __globallocalestatus       0000000180053e38     LIBCMT:glstatus.obj
 0003:00000e40       _iob                       0000000180053e40     LIBCMT:_file.obj
 0003:00001220       _timezone                  0000000180054220     LIBCMT:timeset.obj
 0003:00001224       _daylight                  0000000180054224     LIBCMT:timeset.obj
 0003:00001228       _dstbias                   0000000180054228     LIBCMT:timeset.obj
 0003:000012b0       _tzname                    00000001800542b0     LIBCMT:timeset.obj
 0003:000012d0       __badioinfo                00000001800542d0     LIBCMT:ioinit.obj
 0003:00001340       __lconv_c                  0000000180054340     LIBCMT:lconv.obj
 0003:000013d8       __lconv_static_decimal     00000001800543d8     LIBCMT:lconv.obj
 0003:000013dc       __lconv_static_W_decimal   00000001800543dc     LIBCMT:lconv.obj
 0003:000013e0       __lconv                    00000001800543e0     LIBCMT:lconv.obj
 0003:000013e8       _pctype                    00000001800543e8     LIBCMT:ctype.obj
 0003:000013f0       _pwctype                   00000001800543f0     LIBCMT:ctype.obj
 0003:000013f8       __nullstring               00000001800543f8     LIBCMT:output.obj
 0003:00001400       __wnullstring              0000000180054400     LIBCMT:output.obj
 0003:00001408       _days                      0000000180054408     LIBCMT:days.obj
 0003:00001440       _lpdays                    0000000180054440     LIBCMT:days.obj
 0003:00001650       _matherr_flag              0000000180054650     LIBCMT:matherr.obj
 0003:00001660       _HUGE                      0000000180054660     LIBCMT:huge.obj
 0003:000016a0       _lookuptrailbytes          00000001800546a0     LIBCMT:read.obj
 0003:000017a0       _d_inf                     00000001800547a0     LIBCMT:util.obj
 0003:000017a8       _d_ind                     00000001800547a8     LIBCMT:util.obj
 0003:000017b0       _d_max                     00000001800547b0     LIBCMT:util.obj
 0003:000017b8       _d_min                     00000001800547b8     LIBCMT:util.obj
 0003:000017c0       _d_mzero                   00000001800547c0     LIBCMT:util.obj
 0003:000017d0       _pow10pos                  00000001800547d0     LIBCMT:constpow.obj
 0003:00001930       _pow10neg                  0000000180054930     LIBCMT:constpow.obj
 0003:00001a90       _confh                     0000000180054a90     LIBCMT:initcon.obj
 0003:00001a98       ??_R0H@8                   0000000180054a98     BugSplatImp.obj
 0003:00001ab0       ??_R0?AVMiniDmpSender@@@8  0000000180054ab0     BugSplatImp.obj
 0003:00001ad8       ??_R0?AVMiniDumper@@@8     0000000180054ad8     mdump.obj
 0003:00001b00       ??_R0?AVerror_category@std@@@8 0000000180054b00     mdump.obj
 0003:00001b30       ??_R0?AV_Generic_error_category@std@@@8 0000000180054b30     mdump.obj
 0003:00001b68       ??_R0?AV_Iostream_error_category@std@@@8 0000000180054b68     mdump.obj
 0003:00001ba0       ??_R0?AV_System_error_category@std@@@8 0000000180054ba0     mdump.obj
 0003:00001bd8       ??_R0?AVCAtlException@ATL@@@8 0000000180054bd8     sbSenderApp.obj
 0003:00001c00       ??_R0?AUIUnknown@@@8       0000000180054c00     sbSenderApp.obj
 0003:00001c20       ??_R0?AUIRegistrarBase@@@8 0000000180054c20     sbSenderApp.obj
 0003:00001c48       ??_R0?AVCAtlModule@ATL@@@8 0000000180054c48     sbSenderApp.obj
 0003:00001c70       ??_R0?AU_ATL_MODULE70@ATL@@@8 0000000180054c70     sbSenderApp.obj
 0003:00001c98       ??_R0?AVCComModule@ATL@@@8 0000000180054c98     sbSenderApp.obj
 0003:00001cc0       ??_R0?AV?$CAtlModuleT@VCComModule@ATL@@@ATL@@@8 0000000180054cc0     sbSenderApp.obj
 0003:00001d00       ??_R0?AVCRegObject@ATL@@@8 0000000180054d00     sbSenderApp.obj
 0003:00001d28       ??_R0?AVCAppModule@WTL@@@8 0000000180054d28     sbSenderApp.obj
 0003:00001d50       ??_R0?AVtype_info@@@8      0000000180054d50     LIBCMT:typinfo.obj
 0003:00001d70       ??_R0?AVbad_alloc@std@@@8  0000000180054d70     LIBCMT:new.obj
 0003:00001d98       ??_R0?AVexception@std@@@8  0000000180054d98     LIBCMT:new.obj
 0003:00001dc0       ??_R0?AVbad_exception@std@@@8 0000000180054dc0     LIBCMT:frame.obj
 0003:00001de8       ??_R0?AVbad_cast@std@@@8   0000000180054de8     LIBCMT:stdexcpt.obj
 0003:00001e10       ??_R0?AVbad_typeid@std@@@8 0000000180054e10     LIBCMT:stdexcpt.obj
 0003:00001e38       ??_R0?AV__non_rtti_object@std@@@8 0000000180054e38     LIBCMT:stdexcpt.obj
 0003:00001e68       ??_R0?AVDNameNode@@@8      0000000180054e68     LIBCMT:undname.obj
 0003:00001e88       ??_R0?AVcharNode@@@8       0000000180054e88     LIBCMT:undname.obj
 0003:00001ea8       ??_R0?AVpcharNode@@@8      0000000180054ea8     LIBCMT:undname.obj
 0003:00001ec8       ??_R0?AVpDNameNode@@@8     0000000180054ec8     LIBCMT:undname.obj
 0003:00001ef0       ??_R0?AVDNameStatusNode@@@8 0000000180054ef0     LIBCMT:undname.obj
 0003:00001f18       ??_R0?AVpairNode@@@8       0000000180054f18     LIBCMT:undname.obj
 0003:00001f38       ??_R0?AVinvalid_argument@std@@@8 0000000180054f38     libcpmt:xthrow.obj
 0003:00001f68       ??_R0?AVlogic_error@std@@@8 0000000180054f68     libcpmt:xthrow.obj
 0003:00001f90       ??_R0?AVlength_error@std@@@8 0000000180054f90     libcpmt:xthrow.obj
 0003:00001fb8       ??_R0?AVout_of_range@std@@@8 0000000180054fb8     libcpmt:xthrow.obj
 0003:00001fe0       ??_R0?AVoverflow_error@std@@@8 0000000180054fe0     libcpmt:xthrow.obj
 0003:00002010       ??_R0?AVruntime_error@std@@@8 0000000180055010     libcpmt:xthrow.obj
 0003:00002038       ??_R0?AVbad_function_call@std@@@8 0000000180055038     libcpmt:xthrow.obj
 0003:00002068       ??_R0?AVregex_error@std@@@8 0000000180055068     libcpmt:xthrow.obj
 0003:000020a0       ?DoFullMemoryDumpThenExit@BugSplatImp@@2_NA 00000001800550a0     BugSplatImp.obj
 0003:000020a4       ?MiniDumpType@BugSplatImp@@2W4_BS_MINIDUMP_TYPE@MiniDmpSender@@A 00000001800550a4     BugSplatImp.obj
 0003:000020b0       ?s_pThis@MiniDumper@@2PEAV1@EA 00000001800550b0     mdump.obj
 0003:000020b8       ?m_previousExceptionFilter@MiniDumper@@2P6AJPEAU_EXCEPTION_POINTERS@@@ZEA 00000001800550b8     mdump.obj
 0003:000020c0       ?m_exceptionCaught@MiniDumper@@2_NA 00000001800550c0     mdump.obj
 0003:000020c8       ?hLibKern32@@3PEAUHINSTANCE__@@EA 00000001800550c8     mdump.obj
 0003:000020d0       ?pexceptionhandler@@3PEAXEA 00000001800550d0     mdump.obj
 0003:000020e0       ?m_imp@MiniDumper@@1VBugSplatImp@@A 00000001800550e0     mdump.obj
 0003:000040e8       ?id@?$num_put@DV?$back_insert_iterator@V?$basic_string@DU?$char_traits@D@std@@V?$allocator@D@2@@std@@@std@@@std@@2V0locale@2@A 00000001800570e8     mdump.obj
 0003:000040f0       ?id@?$num_put@_WV?$back_insert_iterator@V?$basic_string@_WU?$char_traits@_W@std@@V?$allocator@_W@2@@std@@@std@@@std@@2V0locale@2@A 00000001800570f0     mdump.obj
 0003:00004840       ?id@?$numpunct@D@std@@2V0locale@2@A 0000000180057840     mdump.obj
 0003:00004848       ?id@?$numpunct@_W@std@@2V0locale@2@A 0000000180057848     mdump.obj
 0003:00004858       ?_pAtlModule@ATL@@3PEAVCAtlModule@1@EA 0000000180057858     sbSenderApp.obj
 0003:00004860       ?m_bInitFailed@CAtlBaseModule@ATL@@2_NA 0000000180057860     sbSenderApp.obj
 0003:00004868       ?m_libid@CAtlModule@ATL@@2U_GUID@@A 0000000180057868     sbSenderApp.obj
 0003:00004878       ?_pModule@ATL@@3PEAVCComModule@1@EA 0000000180057878     sbSenderApp.obj
 0003:00004880       ?_AtlRegisterPerUser@ATL@@3_NA 0000000180057880     sbSenderApp.obj
 0003:00004890       ?_AtlComModule@ATL@@3VCAtlComModule@1@A 0000000180057890     sbSenderApp.obj
 0003:000048d8       ?pfnRegDeleteKeyEx@?6??DeleteSubKey@CRegKey@ATL@@QEAAJPEB_W@Z@4P6AJPEAUHKEY__@@0KK@ZEA 00000001800578d8     sbSenderApp.obj
 0003:000048e0       ?bInitialized@?6??DeleteSubKey@CRegKey@ATL@@QEAAJPEB_W@Z@4_NA 00000001800578e0     sbSenderApp.obj
 0003:000048f0       ?map@?1??VTFromRegType@CRegParser@ATL@@KAHPEB_WAEAG@Z@4QBUtypemap@?1??123@KAH01@Z@B 00000001800578f0     sbSenderApp.obj
 0003:00004930       ??_B?1??VTFromRegType@CRegParser@ATL@@KAHPEB_WAEAG@Z@51 0000000180057930     sbSenderApp.obj
 0003:00004940       ?_Module@@3VCAppModule@WTL@@A 0000000180057940     sbSenderApp.obj
 0003:000049a8       __@@_PchSym_@00@UdddUhixUyfthkozgUyfthkozgmzgrevUcGEUivovzhvUhgwzucOlyq@1E3B88CEB657A623 00000001800579a8     StdAfx.obj
 0003:000049ac       ?WM_ATLGETHOST@ATL@@3IA    00000001800579ac     StdAfx.obj
 0003:000049b0       ?WM_ATLGETCONTROL@ATL@@3IA 00000001800579b0     StdAfx.obj
 0003:000049b8       ?_pPerfRegFunc@ATL@@3P6AJPEAUHINSTANCE__@@@ZEA 00000001800579b8     StdAfx.obj
 0003:000049c0       ?_pPerfUnRegFunc@ATL@@3P6AJXZEA 00000001800579c0     StdAfx.obj
 0003:000049c8       ?ATL_CREATE_OBJECT@CComApartment@ATL@@2IA 00000001800579c8     StdAfx.obj
 0003:000049d0       ?_pAtlAutoThreadModule@ATL@@3PEAUIAtlAutoThreadModule@1@EA 00000001800579d0     StdAfx.obj
 0003:000049d8       ?atlTraceGeneral@ATL@@3V?$CTraceCategoryEx@$00$0A@@1@A 00000001800579d8     StdAfx.obj
 0003:000049dc       ?atlTraceCOM@ATL@@3V?$CTraceCategoryEx@$01$0A@@1@A 00000001800579dc     StdAfx.obj
 0003:000049e0       ?atlTraceQI@ATL@@3V?$CTraceCategoryEx@$03$0A@@1@A 00000001800579e0     StdAfx.obj
 0003:000049e4       ?atlTraceRegistrar@ATL@@3V?$CTraceCategoryEx@$07$0A@@1@A 00000001800579e4     StdAfx.obj
 0003:000049e8       ?atlTraceRefcount@ATL@@3V?$CTraceCategoryEx@$0BA@$0A@@1@A 00000001800579e8     StdAfx.obj
 0003:000049ec       ?atlTraceWindowing@ATL@@3V?$CTraceCategoryEx@$0CA@$0A@@1@A 00000001800579ec     StdAfx.obj
 0003:000049f0       ?atlTraceControls@ATL@@3V?$CTraceCategoryEx@$0EA@$0A@@1@A 00000001800579f0     StdAfx.obj
 0003:000049f4       ?atlTraceHosting@ATL@@3V?$CTraceCategoryEx@$0IA@$0A@@1@A 00000001800579f4     StdAfx.obj
 0003:000049f8       ?atlTraceDBClient@ATL@@3V?$CTraceCategoryEx@$0BAA@$0A@@1@A 00000001800579f8     StdAfx.obj
 0003:000049fc       ?atlTraceDBProvider@ATL@@3V?$CTraceCategoryEx@$0CAA@$0A@@1@A 00000001800579fc     StdAfx.obj
 0003:00004a00       ?atlTraceSnapin@ATL@@3V?$CTraceCategoryEx@$0EAA@$0A@@1@A 0000000180057a00     StdAfx.obj
 0003:00004a04       ?atlTraceNotImpl@ATL@@3V?$CTraceCategoryEx@$0IAA@$0A@@1@A 0000000180057a04     StdAfx.obj
 0003:00004a08       ?atlTraceAllocation@ATL@@3V?$CTraceCategoryEx@$0BAAA@$0A@@1@A 0000000180057a08     StdAfx.obj
 0003:00004a0c       ?atlTraceException@ATL@@3V?$CTraceCategoryEx@$0CAAA@$0A@@1@A 0000000180057a0c     StdAfx.obj
 0003:00004a10       ?atlTraceTime@ATL@@3V?$CTraceCategoryEx@$0EAAA@$0A@@1@A 0000000180057a10     StdAfx.obj
 0003:00004a14       ?atlTraceCache@ATL@@3V?$CTraceCategoryEx@$0IAAA@$0A@@1@A 0000000180057a14     StdAfx.obj
 0003:00004a18       ?atlTraceStencil@ATL@@3V?$CTraceCategoryEx@$0BAAAA@$0A@@1@A 0000000180057a18     StdAfx.obj
 0003:00004a1c       ?atlTraceString@ATL@@3V?$CTraceCategoryEx@$0CAAAA@$0A@@1@A 0000000180057a1c     StdAfx.obj
 0003:00004a20       ?atlTraceMap@ATL@@3V?$CTraceCategoryEx@$0EAAAA@$0A@@1@A 0000000180057a20     StdAfx.obj
 0003:00004a24       ?atlTraceUtil@ATL@@3V?$CTraceCategoryEx@$0IAAAA@$0A@@1@A 0000000180057a24     StdAfx.obj
 0003:00004a28       ?atlTraceSecurity@ATL@@3V?$CTraceCategoryEx@$0BAAAAA@$0A@@1@A 0000000180057a28     StdAfx.obj
 0003:00004a2c       ?atlTraceSync@ATL@@3V?$CTraceCategoryEx@$0CAAAAA@$0A@@1@A 0000000180057a2c     StdAfx.obj
 0003:00004a30       ?atlTraceISAPI@ATL@@3V?$CTraceCategoryEx@$0EAAAAA@$0A@@1@A 0000000180057a30     StdAfx.obj
 0003:00004a40       ?_AtlWinModule@ATL@@3VCAtlWinModule@1@A 0000000180057a40     StdAfx.obj
 0003:00004a90       ?_AtlBaseModule@ATL@@3VCAtlBaseModule@1@A 0000000180057a90     atls:atlbase.obj
 0003:00004af0       __@@_PchSym_@00@UwwUexgllohUexHoryhUhsrkUzgonuxUhixUzgoUzgohUlyqBiUznwGEUhgwzucOlyq@84C1280690CF6209 0000000180057af0     atls:stdafx.obj
 0003:00004af8       _C_Exit_Done               0000000180057af8     LIBCMT:crt0dat.obj
 0003:00004afc       __argc                     0000000180057afc     LIBCMT:crt0dat.obj
 0003:00004b00       __argv                     0000000180057b00     LIBCMT:crt0dat.obj
 0003:00004b08       __wargv                    0000000180057b08     LIBCMT:crt0dat.obj
 0003:00004b10       _environ                   0000000180057b10     LIBCMT:crt0dat.obj
 0003:00004b18       _wenviron                  0000000180057b18     LIBCMT:crt0dat.obj
 0003:00004b20       _pgmptr                    0000000180057b20     LIBCMT:crt0dat.obj
 0003:00004b28       _wpgmptr                   0000000180057b28     LIBCMT:crt0dat.obj
 0003:00004b30       _umaskval                  0000000180057b30     LIBCMT:crt0dat.obj
 0003:00004b34       _exitflag                  0000000180057b34     LIBCMT:crt0dat.obj
 0003:00004b38       _C_Termination_Done        0000000180057b38     LIBCMT:crt0dat.obj
 0003:00004b40       __winitenv                 0000000180057b40     LIBCMT:crt0dat.obj
 0003:00004b48       __initenv                  0000000180057b48     LIBCMT:crt0dat.obj
 0003:00004b50       __pInvalidArgHandler       0000000180057b50     LIBCMT:invarg.obj
 0003:00004b94       __fastflag                 0000000180057b94     LIBCMT:fpinit.obj
 0003:00005114       ?nothrow@std@@3Unothrow_t@1@B 0000000180058114     LIBCMT:nothrow0.obj
 0003:00005120       _aenvptr                   0000000180058120     LIBCMT:dllcrt0.obj
 0003:00005128       _wenvptr                   0000000180058128     LIBCMT:dllcrt0.obj
 0003:00005130       ?__pInconsistency@@3P6AXXZEA 0000000180058130     LIBCMT:hooks.obj
 0003:00005370       __app_type                 0000000180058370     LIBCMT:crt0msg.obj
 0003:000059a8       _maxwait                   00000001800589a8     LIBCMT:crtheap.obj
 0003:000059b0       ?_pnhHeap@@3P6AH_K@ZEA     00000001800589b0     LIBCMT:handler.obj
 0003:000059b8       __pPurecall                00000001800589b8     LIBCMT:inithelp.obj
 0003:000059c8       __mbcodepage               00000001800589c8     LIBCMT:mbctype.obj
 0003:000059cc       __ismbcodepage             00000001800589cc     LIBCMT:mbctype.obj
 0003:000059d0       __mbulinfo                 00000001800589d0     LIBCMT:mbctype.obj
 0003:000059e0       __mblocalename             00000001800589e0     LIBCMT:mbctype.obj
 0003:000059f0       _stdbuf                    00000001800589f0     LIBCMT:_sftbuf.obj
 0003:00005a00       __favor                    0000000180058a00     LIBCMT:cpu_disp.obj
 0003:00005a08       ?g_OutOfMemoryExceptionCallback@@3P6APEAXXZEA 0000000180058a08     LIBCMT:frame.obj
 0003:00005a20       _cflush                    0000000180058a20     LIBCMT:_file.obj
 0003:00005af8       _crtheap                   0000000180058af8     LIBCMT:heapinit.obj
 0003:00005b00       _newmode                   0000000180058b00     LIBCMT:_newmode.obj
 0003:00005b10       __pioinfo                  0000000180058b10     LIBCMT:ioinit.obj
 0003:00005e18       __error_mode               0000000180058e18     LIBCMT:errmode.obj
 0003:00005e48       ?m_pGetParameter@UnDecorator@@0P6APEADJ@ZEA 0000000180058e48     LIBCMT:undname.obj
 0003:00005e50       ?pArgList@UnDecorator@@0PEAVReplicator@@EA 0000000180058e50     LIBCMT:undname.obj
 0003:00005e58       ?pZNameList@UnDecorator@@0PEAVReplicator@@EA 0000000180058e58     LIBCMT:undname.obj
 0003:00005e60       ?pTemplateArgList@UnDecorator@@0PEAVReplicator@@EA 0000000180058e60     LIBCMT:undname.obj
 0003:00005e68       ?gName@UnDecorator@@0PEBDEB 0000000180058e68     LIBCMT:undname.obj
 0003:00005e70       ?name@UnDecorator@@0PEBDEB 0000000180058e70     LIBCMT:undname.obj
 0003:00005e78       ?outputString@UnDecorator@@0PEADEA 0000000180058e78     LIBCMT:undname.obj
 0003:00005e80       ?maxStringLength@UnDecorator@@0HA 0000000180058e80     LIBCMT:undname.obj
 0003:00005e84       ?disableFlags@UnDecorator@@0KA 0000000180058e84     LIBCMT:undname.obj
 0003:00005e88       ?fExplicitTemplateParams@UnDecorator@@0_NA 0000000180058e88     LIBCMT:undname.obj
 0003:00005e89       ?fGetTemplateArgumentList@UnDecorator@@0_NA 0000000180058e89     LIBCMT:undname.obj
 0003:00005ec0       ?nodes@?1??make@DNameStatusNode@@SAPEAV2@W4DNameStatus@@@Z@4PAV2@A 0000000180058ec0     LIBCMT:undname.obj
 0003:00005f00       ??_B?1??make@DNameStatusNode@@SAPEAV1@W4DNameStatus@@@Z@51 0000000180058f00     LIBCMT:undname.obj
 0003:00005f04       __locale_changed           0000000180058f04     LIBCMT:wsetloca.obj
 0003:00005f08       __lconv_static_null        0000000180058f08     LIBCMT:lconv.obj
 0003:00005f0c       __lconv_static_W_null      0000000180058f0c     LIBCMT:lconv.obj
 0003:00005f18       _commode                   0000000180058f18     LIBCMT:ncommode.obj
 0003:00005f1c       _outputformat              0000000180058f1c     LIBCMT:outputformat.obj
 0003:00005f20       _fmode                     0000000180058f20     LIBCMT:txtmode.obj
 0003:00005f2c       __unguarded_readlc_active  0000000180058f2c     <common>
 0003:00005f30       __setlc_active             0000000180058f30     <common>
 0003:00005f34       _nhandle                   0000000180058f34     <common>
 0003:00005f38       __piob                     0000000180058f38     <common>
 0003:00005f40       _nstream                   0000000180058f40     <common>
 0003:00005f60       _bufin                     0000000180058f60     <common>
 0003:00006f60       _debugger_hook_dummy       0000000180059f60     <common>
 0003:00006f80       encodedKERNEL32Functions   0000000180059f80     <common>
 0003:00007088       _acmdln                    000000018005a088     <common>
 0003:00007090       __dyn_tls_init_callback    000000018005a090     <common>
 0003:00007098       __onexitend                000000018005a098     <common>
 0003:000070a0       __onexitbegin              000000018005a0a0     <common>
 0003:000070a8       __mbctype_initialized      000000018005a0a8     <common>
 0003:000070ac       __env_initialized          000000018005a0ac     <common>

 entry point at        0001:00010e00

 Static symbols

 0000:fff9f000       .debug$S                   0000000180000000     kernel32:KERNEL32.dll
 0000:fff9f000       .debug$S                   0000000180000000     Rpcrt4:RPCRT4.dll
 0000:fff9f000       .debug$S                   0000000180000000     Rpcrt4:RPCRT4.dll
 0000:fff9f000       .debug$S                   0000000180000000     Rpcrt4:RPCRT4.dll
 0002:fffc2000       $unwind$??0_LocaleUpdate@@QEAA@PEAUlocaleinfo_struct@@@Z 0000000180000000     LIBCMT:strtod.obj
 0004:fffa5000       $pdata$??0_LocaleUpdate@@QEAA@PEAUlocaleinfo_struct@@@Z 0000000180000000     LIBCMT:mbtowc.obj
 0004:fffa5000       $pdata$??_G_System_error_category@std@@UEAAPEAXI@Z 0000000180000000     libcpmt:xthrow.obj
 0002:fffc2000       $unwind$??_G_System_error_category@std@@UEAAPEAXI@Z 0000000180000000     libcpmt:xthrow.obj
 0004:fffa5000       $pdata$?default_error_condition@_System_error_category@std@@UEBA?AVerror_condition@2@H@Z 0000000180000000     libcpmt:xthrow.obj
 0002:fffc2000       $unwind$?default_error_condition@_System_error_category@std@@UEBA?AVerror_condition@2@H@Z 0000000180000000     libcpmt:xthrow.obj
 0004:fffa5000       $pdata$?message@_System_error_category@std@@UEBA?AV?$basic_string@DU?$char_traits@D@std@@V?$allocator@D@2@@2@H@Z 0000000180000000     libcpmt:xthrow.obj
 0002:fffc2000       $unwind$?message@_System_error_category@std@@UEBA?AV?$basic_string@DU?$char_traits@D@std@@V?$allocator@D@2@@2@H@Z 0000000180000000     libcpmt:xthrow.obj
 0004:fffa5000       $pdata$??_G_Iostream_error_category@std@@UEAAPEAXI@Z 0000000180000000     libcpmt:xthrow.obj
 0002:fffc2000       $unwind$??_G_Iostream_error_category@std@@UEAAPEAXI@Z 0000000180000000     libcpmt:xthrow.obj
 0004:fffa5000       $pdata$?message@_Iostream_error_category@std@@UEBA?AV?$basic_string@DU?$char_traits@D@std@@V?$allocator@D@2@@2@H@Z 0000000180000000     libcpmt:xthrow.obj
 0002:fffc2000       $unwind$?message@_Iostream_error_category@std@@UEBA?AV?$basic_string@DU?$char_traits@D@std@@V?$allocator@D@2@@2@H@Z 0000000180000000     libcpmt:xthrow.obj
 0004:fffa5000       $pdata$??_G_Generic_error_category@std@@UEAAPEAXI@Z 0000000180000000     libcpmt:xthrow.obj
 0002:fffc2000       $unwind$??_G_Generic_error_category@std@@UEAAPEAXI@Z 0000000180000000     libcpmt:xthrow.obj
 0004:fffa5000       $pdata$?message@_Generic_error_category@std@@UEBA?AV?$basic_string@DU?$char_traits@D@std@@V?$allocator@D@2@@2@H@Z 0000000180000000     libcpmt:xthrow.obj
 0002:fffc2000       $unwind$?message@_Generic_error_category@std@@UEBA?AV?$basic_string@DU?$char_traits@D@std@@V?$allocator@D@2@@2@H@Z 0000000180000000     libcpmt:xthrow.obj
 0004:fffa5000       $pdata$??_Gerror_category@std@@UEAAPEAXI@Z 0000000180000000     libcpmt:xthrow.obj
 0002:fffc2000       $unwind$??_Gerror_category@std@@UEAAPEAXI@Z 0000000180000000     libcpmt:xthrow.obj
 0004:fffa5000       $pdata$?equivalent@error_category@std@@UEBA_NHAEBVerror_condition@2@@Z 0000000180000000     libcpmt:xthrow.obj
 0002:fffc2000       $unwind$?equivalent@error_category@std@@UEBA_NHAEBVerror_condition@2@@Z 0000000180000000     libcpmt:xthrow.obj
 0002:fffc2000       $unwind$??0_LocaleUpdate@@QEAA@PEAUlocaleinfo_struct@@@Z 0000000180000000     LIBCMT:mbtowc.obj
 0004:fffa5000       $pdata$??0_LocaleUpdate@@QEAA@PEAUlocaleinfo_struct@@@Z 0000000180000000     LIBCMT:mbstowcs.obj
 0002:fffc2000       $unwind$??0_LocaleUpdate@@QEAA@PEAUlocaleinfo_struct@@@Z 0000000180000000     LIBCMT:mbstowcs.obj
 0004:fffa5000       $pdata$??0_LocaleUpdate@@QEAA@PEAUlocaleinfo_struct@@@Z 0000000180000000     LIBCMT:isctype.obj
 0002:fffc2000       $unwind$??0_LocaleUpdate@@QEAA@PEAUlocaleinfo_struct@@@Z 0000000180000000     LIBCMT:isctype.obj
 0002:fffc2000       $unwind$??0_LocaleUpdate@@QEAA@PEAUlocaleinfo_struct@@@Z 0000000180000000     LIBCMT:strtol.obj
 0004:fffa5000       $pdata$??0_LocaleUpdate@@QEAA@PEAUlocaleinfo_struct@@@Z 0000000180000000     LIBCMT:strtol.obj
 0004:fffa5000       $pdata$??0_LocaleUpdate@@QEAA@PEAUlocaleinfo_struct@@@Z 0000000180000000     LIBCMT:atodbl.obj
 0002:fffc2000       $unwind$??0_LocaleUpdate@@QEAA@PEAUlocaleinfo_struct@@@Z 0000000180000000     LIBCMT:atodbl.obj
 0002:fffc2000       $unwind$??0_LocaleUpdate@@QEAA@PEAUlocaleinfo_struct@@@Z 0000000180000000     LIBCMT:strtoq.obj
 0004:fffa5000       $pdata$??0_LocaleUpdate@@QEAA@PEAUlocaleinfo_struct@@@Z 0000000180000000     LIBCMT:strtoq.obj
 0004:fffa5000       $pdata$??0_LocaleUpdate@@QEAA@PEAUlocaleinfo_struct@@@Z 0000000180000000     LIBCMT:_ctype.obj
 0002:fffc2000       $unwind$??0_LocaleUpdate@@QEAA@PEAUlocaleinfo_struct@@@Z 0000000180000000     LIBCMT:_ctype.obj
 0002:fffc2000       $unwind$??0_LocaleUpdate@@QEAA@PEAUlocaleinfo_struct@@@Z 0000000180000000     LIBCMT:tolower.obj
 0004:fffa5000       $pdata$??0_LocaleUpdate@@QEAA@PEAUlocaleinfo_struct@@@Z 0000000180000000     LIBCMT:tolower.obj
 0002:fffc2000       $unwind$??0_LocaleUpdate@@QEAA@PEAUlocaleinfo_struct@@@Z 0000000180000000     LIBCMT:towlower.obj
 0004:fffa5000       $pdata$??0_LocaleUpdate@@QEAA@PEAUlocaleinfo_struct@@@Z 0000000180000000     LIBCMT:towlower.obj
 0002:fffc2000       $unwind$??0_LocaleUpdate@@QEAA@PEAUlocaleinfo_struct@@@Z 0000000180000000     LIBCMT:wcstod.obj
 0004:fffa5000       $pdata$??0_LocaleUpdate@@QEAA@PEAUlocaleinfo_struct@@@Z 0000000180000000     LIBCMT:wcstod.obj
 0004:fffa5000       $pdata$?_Xran@?$basic_string@DU?$char_traits@D@std@@V?$allocator@D@2@@std@@QEBAXXZ 0000000180000000     libcpmt:xthrow.obj
 0002:fffc2000       $unwind$?_Xran@?$basic_string@DU?$char_traits@D@std@@V?$allocator@D@2@@std@@QEBAXXZ 0000000180000000     libcpmt:xthrow.obj
 0004:fffa5000       $pdata$?_Xlen@?$basic_string@DU?$char_traits@D@std@@V?$allocator@D@2@@std@@QEBAXXZ 0000000180000000     libcpmt:xthrow.obj
 0002:fffc2000       $unwind$?_Xlen@?$basic_string@DU?$char_traits@D@std@@V?$allocator@D@2@@std@@QEBAXXZ 0000000180000000     libcpmt:xthrow.obj
 0004:fffa5000       $pdata$?_Tidy@?$basic_string@DU?$char_traits@D@std@@V?$allocator@D@2@@std@@QEAAX_N_K@Z 0000000180000000     libcpmt:xthrow.obj
 0002:fffc2000       $unwind$?_Tidy@?$basic_string@DU?$char_traits@D@std@@V?$allocator@D@2@@std@@QEAAX_N_K@Z 0000000180000000     libcpmt:xthrow.obj
 0004:fffa5000       $pdata$?_Grow@?$basic_string@DU?$char_traits@D@std@@V?$allocator@D@2@@std@@QEAA_N_K_N@Z 0000000180000000     libcpmt:xthrow.obj
 0002:fffc2000       $unwind$??0_LocaleUpdate@@QEAA@PEAUlocaleinfo_struct@@@Z 0000000180000000     LIBCMT:wcstoq.obj
 0004:fffa5000       $pdata$??0_LocaleUpdate@@QEAA@PEAUlocaleinfo_struct@@@Z 0000000180000000     LIBCMT:wcstoq.obj
 0002:fffc2000       $unwind$??0_LocaleUpdate@@QEAA@PEAUlocaleinfo_struct@@@Z 0000000180000000     LIBCMT:wctomb.obj
 0004:fffa5000       $pdata$??0_LocaleUpdate@@QEAA@PEAUlocaleinfo_struct@@@Z 0000000180000000     LIBCMT:wctomb.obj
 0002:fffc2000       $unwind$??0CComCriticalSection@ATL@@QEAA@XZ 0000000180000000     StdAfx.obj
 0004:fffa5000       $pdata$??0CComCriticalSection@ATL@@QEAA@XZ 0000000180000000     StdAfx.obj
 0002:fffc2000       $unwind$?Init@CComCriticalSection@ATL@@QEAAJXZ 0000000180000000     StdAfx.obj
 0004:fffa5000       $pdata$?Init@CComCriticalSection@ATL@@QEAAJXZ 0000000180000000     StdAfx.obj
 0002:fffc2000       $unwind$?Term@CComCriticalSection@ATL@@QEAAJXZ 0000000180000000     StdAfx.obj
 0004:fffa5000       $pdata$?Term@CComCriticalSection@ATL@@QEAAJXZ 0000000180000000     StdAfx.obj
 0002:fffc2000       $unwind$??0_ATL_COM_MODULE70@ATL@@QEAA@XZ 0000000180000000     StdAfx.obj
 0004:fffa5000       $pdata$??0_ATL_COM_MODULE70@ATL@@QEAA@XZ 0000000180000000     StdAfx.obj
 0004:fffa5000       $pdata$_invoke_watson_if_error 0000000180000000     LIBCMT:loctim64.obj
 0002:fffc2000       $unwind$?_Grow@?$basic_string@DU?$char_traits@D@std@@V?$allocator@D@2@@std@@QEAA_N_K_N@Z 0000000180000000     libcpmt:xthrow.obj
 0002:fffc2000       $unwind$_invoke_watson_if_error 0000000180000000     LIBCMT:loctim64.obj
 0004:fffa5000       $pdata$?catch$0@?0??_Copy@?$basic_string@DU?$char_traits@D@std@@V?$allocator@D@2@@std@@QEAAX_K0@Z@4HA 0000000180000000     libcpmt:xthrow.obj
 0002:fffc2000       $unwind$??0_LocaleUpdate@@QEAA@PEAUlocaleinfo_struct@@@Z 0000000180000000     LIBCMT:ismbbyte.obj
 0002:fffc2000       $unwind$?catch$0@?0??_Copy@?$basic_string@DU?$char_traits@D@std@@V?$allocator@D@2@@std@@QEAAX_K0@Z@4HA 0000000180000000     libcpmt:xthrow.obj
 0004:fffa5000       $pdata$??0_LocaleUpdate@@QEAA@PEAUlocaleinfo_struct@@@Z 0000000180000000     LIBCMT:ismbbyte.obj
 0004:fffa5000       $pdata$?catch$1@?0??_Copy@?$basic_string@DU?$char_traits@D@std@@V?$allocator@D@2@@std@@QEAAX_K0@Z@4HA 0000000180000000     libcpmt:xthrow.obj
 0004:fffa5000       $pdata$_invoke_watson_if_error 0000000180000000     LIBCMT:tzset.obj
 0002:fffc2000       $unwind$?catch$1@?0??_Copy@?$basic_string@DU?$char_traits@D@std@@V?$allocator@D@2@@std@@QEAAX_K0@Z@4HA 0000000180000000     libcpmt:xthrow.obj
 0002:fffc2000       $unwind$_invoke_watson_if_error 0000000180000000     LIBCMT:tzset.obj
 0002:fffc2000       $ip2state$?_Copy@?$basic_string@DU?$char_traits@D@std@@V?$allocator@D@2@@std@@QEAAX_K0@Z 0000000180000000     libcpmt:xthrow.obj
 0002:fffc2000       $unwind$??0_LocaleUpdate@@QEAA@PEAUlocaleinfo_struct@@@Z 0000000180000000     LIBCMT:mbctype.obj
 0002:fffc2000       $handlerMap$1$?_Copy@?$basic_string@DU?$char_traits@D@std@@V?$allocator@D@2@@std@@QEAAX_K0@Z 0000000180000000     libcpmt:xthrow.obj
 0002:fffc2000       $unwind$??0CAtlComModule@ATL@@QEAA@XZ 0000000180000000     StdAfx.obj
 0004:fffa5000       $pdata$??0CAtlComModule@ATL@@QEAA@XZ 0000000180000000     StdAfx.obj
 0002:fffc2000       $unwind$?Term@CAtlComModule@ATL@@QEAAXXZ 0000000180000000     StdAfx.obj
 0004:fffa5000       $pdata$?Term@CAtlComModule@ATL@@QEAAXXZ 0000000180000000     StdAfx.obj
 0004:fffa5000       $pdata$??0_LocaleUpdate@@QEAA@PEAUlocaleinfo_struct@@@Z 0000000180000000     LIBCMT:mbctype.obj
 0002:fffc2000       $handlerMap$0$?_Copy@?$basic_string@DU?$char_traits@D@std@@V?$allocator@D@2@@std@@QEAAX_K0@Z 0000000180000000     libcpmt:xthrow.obj
 0002:fffc2000       $unwind$??0_LocaleUpdate@@QEAA@PEAUlocaleinfo_struct@@@Z 0000000180000000     LIBCMT:mbschr.obj
 0002:fffc2000       $tryMap$?_Copy@?$basic_string@DU?$char_traits@D@std@@V?$allocator@D@2@@std@@QEAAX_K0@Z 0000000180000000     libcpmt:xthrow.obj
 0004:fffa5000       $pdata$??0_LocaleUpdate@@QEAA@PEAUlocaleinfo_struct@@@Z 0000000180000000     LIBCMT:mbschr.obj
 0002:fffc2000       $stateUnwindMap$?_Copy@?$basic_string@DU?$char_traits@D@std@@V?$allocator@D@2@@std@@QEAAX_K0@Z 0000000180000000     libcpmt:xthrow.obj
 0002:fffc2000       $unwind$??0_LocaleUpdate@@QEAA@PEAUlocaleinfo_struct@@@Z 0000000180000000     LIBCMT:mbsnbico.obj
 0002:fffc2000       $cppxdata$?_Copy@?$basic_string@DU?$char_traits@D@std@@V?$allocator@D@2@@std@@QEAAX_K0@Z 0000000180000000     libcpmt:xthrow.obj
 0004:fffa5000       $pdata$??0_LocaleUpdate@@QEAA@PEAUlocaleinfo_struct@@@Z 0000000180000000     LIBCMT:mbsnbico.obj
 0004:fffa5000       $pdata$?_Copy@?$basic_string@DU?$char_traits@D@std@@V?$allocator@D@2@@std@@QEAAX_K0@Z 0000000180000000     libcpmt:xthrow.obj
 0002:fffc2000       $unwind$_freea             0000000180000000     LIBCMT:a_cmp.obj
 0002:fffc2000       $unwind$?_Copy@?$basic_string@DU?$char_traits@D@std@@V?$allocator@D@2@@std@@QEAAX_K0@Z 0000000180000000     libcpmt:xthrow.obj
 0004:fffa5000       $pdata$?erase@?$basic_string@DU?$char_traits@D@std@@V?$allocator@D@2@@std@@QEAAAEAV12@_K0@Z 0000000180000000     libcpmt:xthrow.obj
 0002:fffc2000       _AtlComModule$initializer$ 0000000180000000     StdAfx.obj
 0004:fffa5000       $pdata$_freea              0000000180000000     LIBCMT:a_cmp.obj
 0002:fffc2000       $unwind$??0_LocaleUpdate@@QEAA@PEAUlocaleinfo_struct@@@Z 0000000180000000     LIBCMT:a_cmp.obj
 0004:fffa5000       $pdata$??0_LocaleUpdate@@QEAA@PEAUlocaleinfo_struct@@@Z 0000000180000000     LIBCMT:a_cmp.obj
 0002:fffc2000       $unwind$_freea             0000000180000000     LIBCMT:a_loc.obj
 0004:fffa5000       $pdata$_freea              0000000180000000     LIBCMT:a_loc.obj
 0004:fffa5000       $pdata$_invoke_watson_if_error 0000000180000000     LIBCMT:strdup.obj
 0002:fffc2000       $unwind$_invoke_watson_if_error 0000000180000000     LIBCMT:strdup.obj
 0002:fffc2000       $unwind$??0_LocaleUpdate@@QEAA@PEAUlocaleinfo_struct@@@Z 0000000180000000     LIBCMT:a_loc.obj
 0004:fffa5000       $pdata$??0_LocaleUpdate@@QEAA@PEAUlocaleinfo_struct@@@Z 0000000180000000     LIBCMT:a_loc.obj
 0002:fffc2000       $unwind$_freea             0000000180000000     LIBCMT:a_map.obj
 0004:fffa5000       $pdata$_freea              0000000180000000     LIBCMT:a_map.obj
 0002:fffc2000       $unwind$??0_LocaleUpdate@@QEAA@PEAUlocaleinfo_struct@@@Z 0000000180000000     LIBCMT:a_map.obj
 0004:fffa5000       $pdata$??0_LocaleUpdate@@QEAA@PEAUlocaleinfo_struct@@@Z 0000000180000000     LIBCMT:a_map.obj
 0002:fffc2000       $unwind$_freea             0000000180000000     LIBCMT:a_str.obj
 0004:fffa5000       $pdata$_freea              0000000180000000     LIBCMT:a_str.obj
 0002:fffc2000       $unwind$??0_LocaleUpdate@@QEAA@PEAUlocaleinfo_struct@@@Z 0000000180000000     LIBCMT:a_str.obj
 0004:fffa5000       $pdata$??0_LocaleUpdate@@QEAA@PEAUlocaleinfo_struct@@@Z 0000000180000000     LIBCMT:a_str.obj
 0002:fffc2000       $unwind$??0_LocaleUpdate@@QEAA@PEAUlocaleinfo_struct@@@Z 0000000180000000     LIBCMT:output.obj
 0004:fffa5000       $pdata$??0_LocaleUpdate@@QEAA@PEAUlocaleinfo_struct@@@Z 0000000180000000     LIBCMT:output.obj
 0002:fffc2000       $unwind$??0_LocaleUpdate@@QEAA@PEAUlocaleinfo_struct@@@Z 0000000180000000     LIBCMT:outputp.obj
 0004:fffa5000       $pdata$??0_LocaleUpdate@@QEAA@PEAUlocaleinfo_struct@@@Z 0000000180000000     LIBCMT:outputp.obj
 0002:fffc2000       $unwind$??0_LocaleUpdate@@QEAA@PEAUlocaleinfo_struct@@@Z 0000000180000000     LIBCMT:outputs.obj
 0004:fffa5000       $pdata$??0_LocaleUpdate@@QEAA@PEAUlocaleinfo_struct@@@Z 0000000180000000     LIBCMT:outputs.obj
 0002:fffc2000       $unwind$??0_LocaleUpdate@@QEAA@PEAUlocaleinfo_struct@@@Z 0000000180000000     LIBCMT:woutput.obj
 0004:fffa5000       $pdata$??0_LocaleUpdate@@QEAA@PEAUlocaleinfo_struct@@@Z 0000000180000000     LIBCMT:woutput.obj
 0002:fffc2000       $unwind$??0_LocaleUpdate@@QEAA@PEAUlocaleinfo_struct@@@Z 0000000180000000     LIBCMT:woutputp.obj
 0004:fffa5000       $pdata$??0_LocaleUpdate@@QEAA@PEAUlocaleinfo_struct@@@Z 0000000180000000     LIBCMT:woutputp.obj
 0002:fffc2000       $unwind$??0_LocaleUpdate@@QEAA@PEAUlocaleinfo_struct@@@Z 0000000180000000     LIBCMT:woutputs.obj
 0004:fffa5000       $pdata$??0_LocaleUpdate@@QEAA@PEAUlocaleinfo_struct@@@Z 0000000180000000     LIBCMT:woutputs.obj
 0002:fffc2000       $unwind$??0_LocaleUpdate@@QEAA@PEAUlocaleinfo_struct@@@Z 0000000180000000     LIBCMT:cprintfp.obj
 0004:fffa5000       $pdata$??0_LocaleUpdate@@QEAA@PEAUlocaleinfo_struct@@@Z 0000000180000000     LIBCMT:cprintfp.obj
 0002:fffc2000       $unwind$??0_LocaleUpdate@@QEAA@PEAUlocaleinfo_struct@@@Z 0000000180000000     LIBCMT:strnicmp.obj
 0004:fffa5000       $pdata$??0_LocaleUpdate@@QEAA@PEAUlocaleinfo_struct@@@Z 0000000180000000     LIBCMT:strnicmp.obj
 0002:fffc2000       $unwind$??0_LocaleUpdate@@QEAA@PEAUlocaleinfo_struct@@@Z 0000000180000000     LIBCMT:strnicol.obj
 0004:fffa5000       $pdata$??0_LocaleUpdate@@QEAA@PEAUlocaleinfo_struct@@@Z 0000000180000000     LIBCMT:strnicol.obj
 0002:fffc2000       $unwind$??0_LocaleUpdate@@QEAA@PEAUlocaleinfo_struct@@@Z 0000000180000000     LIBCMT:wcsicmp.obj
 0002:fffc2000       $unwind$?erase@?$basic_string@DU?$char_traits@D@std@@V?$allocator@D@2@@std@@QEAAAEAV12@_K0@Z 0000000180000000     libcpmt:xthrow.obj
 0004:fffa5000       $pdata$??0_LocaleUpdate@@QEAA@PEAUlocaleinfo_struct@@@Z 0000000180000000     LIBCMT:wcsicmp.obj
 0004:fffa5000       $pdata$?erase@?$basic_string@DU?$char_traits@D@std@@V?$allocator@D@2@@std@@QEAAAEAV12@_K@Z 0000000180000000     libcpmt:xthrow.obj
 0004:fffa5000       $pdata$_invoke_watson_if_error 0000000180000000     LIBCMT:setenv.obj
 0002:fffc2000       $unwind$?erase@?$basic_string@DU?$char_traits@D@std@@V?$allocator@D@2@@std@@QEAAAEAV12@_K@Z 0000000180000000     libcpmt:xthrow.obj
 0002:fffc2000       $unwind$_invoke_watson_if_error 0000000180000000     LIBCMT:setenv.obj
 0004:fffa5000       $pdata$?assign@?$basic_string@DU?$char_traits@D@std@@V?$allocator@D@2@@std@@QEAAAEAV12@PEBD@Z 0000000180000000     libcpmt:xthrow.obj
 0002:fffc2000       $unwind$??0_LocaleUpdate@@QEAA@PEAUlocaleinfo_struct@@@Z 0000000180000000     LIBCMT:wcsnicmp.obj
 0002:fffc2000       $unwind$?assign@?$basic_string@DU?$char_traits@D@std@@V?$allocator@D@2@@std@@QEAAAEAV12@PEBD@Z 0000000180000000     libcpmt:xthrow.obj
 0004:fffa5000       $pdata$??0_LocaleUpdate@@QEAA@PEAUlocaleinfo_struct@@@Z 0000000180000000     LIBCMT:wcsnicmp.obj
 0004:fffa5000       $pdata$?assign@?$basic_string@DU?$char_traits@D@std@@V?$allocator@D@2@@std@@QEAAAEAV12@PEBD_K@Z 0000000180000000     libcpmt:xthrow.obj
 0002:fffc2000       $unwind$??0_LocaleUpdate@@QEAA@PEAUlocaleinfo_struct@@@Z 0000000180000000     LIBCMT:wcsftime.obj
 0002:fffc2000       $unwind$?assign@?$basic_string@DU?$char_traits@D@std@@V?$allocator@D@2@@std@@QEAAAEAV12@PEBD_K@Z 0000000180000000     libcpmt:xthrow.obj
 0004:fffa5000       $pdata$??0_LocaleUpdate@@QEAA@PEAUlocaleinfo_struct@@@Z 0000000180000000     LIBCMT:wcsftime.obj
 0004:fffa5000       $pdata$?assign@?$basic_string@DU?$char_traits@D@std@@V?$allocator@D@2@@std@@QEAAAEAV12@AEBV12@_K1@Z 0000000180000000     libcpmt:xthrow.obj
 0004:fffa5000       $pdata$_invoke_watson_if_error 0000000180000000     LIBCMT:getenv.obj
 0002:fffc2000       $unwind$?assign@?$basic_string@DU?$char_traits@D@std@@V?$allocator@D@2@@std@@QEAAAEAV12@AEBV12@_K1@Z 0000000180000000     libcpmt:xthrow.obj
 0002:fffc2000       $unwind$_invoke_watson_if_error 0000000180000000     LIBCMT:getenv.obj
 0004:fffa5000       $pdata$??1?$basic_string@DU?$char_traits@D@std@@V?$allocator@D@2@@std@@QEAA@XZ 0000000180000000     libcpmt:xthrow.obj
 0004:fffa5000       $pdata$_invoke_watson_if_error 0000000180000000     LIBCMT:wsetloca.obj
 0002:fffc2000       $unwind$??1?$basic_string@DU?$char_traits@D@std@@V?$allocator@D@2@@std@@QEAA@XZ 0000000180000000     libcpmt:xthrow.obj
 0002:fffc2000       $unwind$_invoke_watson_if_error 0000000180000000     LIBCMT:wsetloca.obj
 0004:fffa5000       $pdata$??0?$basic_string@DU?$char_traits@D@std@@V?$allocator@D@2@@std@@QEAA@PEBD@Z 0000000180000000     libcpmt:xthrow.obj
 0002:fffc2000       $unwind$_invoke_watson_if_error 0000000180000000     LIBCMT:stdenvp.obj
 0002:fffc2000       $unwind$??0?$basic_string@DU?$char_traits@D@std@@V?$allocator@D@2@@std@@QEAA@PEBD@Z 0000000180000000     libcpmt:xthrow.obj
 0004:fffa5000       $pdata$_invoke_watson_if_error 0000000180000000     LIBCMT:stdenvp.obj
 0004:fffa5000       $pdata$?allocate@?$_Wrap_alloc@V?$allocator@D@std@@@std@@QEAAPEAD_K@Z 0000000180000000     libcpmt:xthrow.obj
 0002:fffc2000       $unwind$_invoke_watson_if_error 0000000180000000     LIBCMT:crt0msg.obj
 0002:fffc2000       $unwind$?allocate@?$_Wrap_alloc@V?$allocator@D@std@@@std@@QEAAPEAD_K@Z 0000000180000000     libcpmt:xthrow.obj
 0004:fffa5000       $pdata$_invoke_watson_if_error 0000000180000000     LIBCMT:crt0msg.obj
 0004:fffa5000       $pdata$?allocate@?$allocator@D@std@@QEAAPEAD_K@Z 0000000180000000     libcpmt:xthrow.obj
 0004:fffa5000       $pdata$_invoke_watson_if_error 0000000180000000     LIBCMT:winapinls.obj
 0002:fffc2000       $unwind$?allocate@?$allocator@D@std@@QEAAPEAD_K@Z 0000000180000000     libcpmt:xthrow.obj
 0002:fffc2000       $unwind$_invoke_watson_if_error 0000000180000000     LIBCMT:winapinls.obj
 0002:fffc2000       $unwind$??0_LocaleUpdate@@QEAA@PEAUlocaleinfo_struct@@@Z 0000000180000000     LIBCMT:cvt.obj
 0004:fffa5000       $pdata$??0_LocaleUpdate@@QEAA@PEAUlocaleinfo_struct@@@Z 0000000180000000     LIBCMT:cvt.obj
 0002:fffc2000       $unwind$_invoke_watson_if_error 0000000180000000     LIBCMT:cvt.obj
 0004:fffa5000       $pdata$_invoke_watson_if_error 0000000180000000     LIBCMT:cvt.obj
 0004:fffa5000       $pdata$_invoke_watson_if_error 0000000180000000     LIBCMT:inithelp.obj
 0002:fffc2000       $unwind$_invoke_watson_if_error 0000000180000000     LIBCMT:inithelp.obj
 0002:fffc2000       $unwind$__multtenpow12     0000000180000000     LIBCMT:x10fout.obj
 0004:fffa5000       $pdata$__multtenpow12      0000000180000000     LIBCMT:x10fout.obj
 0002:fffc2000       $unwind$__ld12mul          0000000180000000     LIBCMT:x10fout.obj
 0004:fffa5000       $pdata$__ld12mul           0000000180000000     LIBCMT:x10fout.obj
 0002:fffc2000       $unwind$_invoke_watson_if_error 0000000180000000     LIBCMT:x10fout.obj
 0004:fffa5000       $pdata$_invoke_watson_if_error 0000000180000000     LIBCMT:x10fout.obj
 0002:fffc2000       $unwind$__multtenpow12     0000000180000000     LIBCMT:wstrgtold.obj
 0004:fffa5000       $pdata$__multtenpow12      0000000180000000     LIBCMT:wstrgtold.obj
 0002:fffc2000       $unwind$__ld12mul          0000000180000000     LIBCMT:wstrgtold.obj
 0004:fffa5000       $pdata$__ld12mul           0000000180000000     LIBCMT:wstrgtold.obj
 0004:fffa5000       $pdata$_invoke_watson_if_error 0000000180000000     LIBCMT:getqloc.obj
 0002:fffc2000       $unwind$_invoke_watson_if_error 0000000180000000     LIBCMT:getqloc.obj
 0004:fffa5000       $pdata$?move@?$char_traits@D@std@@SAPEADPEADPEBD_K@Z 0000000180000000     libcpmt:xthrow.obj
 0002:fffc2000       $unwind$_invoke_watson_if_error 0000000180000000     LIBCMT:cfout.obj
 0002:fffc2000       $unwind$?move@?$char_traits@D@std@@SAPEADPEADPEBD_K@Z 0000000180000000     libcpmt:xthrow.obj
 0004:fffa5000       $pdata$_invoke_watson_if_error 0000000180000000     LIBCMT:cfout.obj
 0004:fffa5000       $pdata$?copy@?$char_traits@D@std@@SAPEADPEADPEBD_K@Z 0000000180000000     libcpmt:xthrow.obj
 0002:fffc2000       $unwind$??$_Allocate@D@std@@YAPEAD_KPEAD@Z 0000000180000000     libcpmt:xthrow.obj
 0002:fffc2000       $unwind$?copy@?$char_traits@D@std@@SAPEADPEADPEBD_K@Z 0000000180000000     libcpmt:xthrow.obj
 0004:fffa5000       $pdata$_invoke_watson_if_error 0000000180000000     LIBCMT:wopen.obj
 0004:fffa5000       $pdata$?length@?$char_traits@D@std@@SA_KPEBD@Z 0000000180000000     libcpmt:xthrow.obj
 0002:fffc2000       $unwind$_invoke_watson_if_error 0000000180000000     LIBCMT:wopen.obj
 0002:fffc2000       $unwind$?length@?$char_traits@D@std@@SA_KPEBD@Z 0000000180000000     libcpmt:xthrow.obj
 0004:fffa5000       $pdata$??$_Allocate@D@std@@YAPEAD_KPEAD@Z 0000000180000000     libcpmt:xthrow.obj
 0004:fffa5000       $pdata$??_Gbad_alloc@std@@UEAAPEAXI@Z 0000000180000000     libcpmt:xthrow.obj
 0002:fffc2000       ?_Generic_object$initializer$@?$_Error_objects@H@std@@2P6AXXZEA 0000000180000000     libcpmt:xthrow.obj
 0002:fffc2000       $unwind$??_Gbad_alloc@std@@UEAAPEAXI@Z 0000000180000000     libcpmt:xthrow.obj
 0002:fffc2000       ?_Iostream_object$initializer$@?$_Error_objects@H@std@@2P6AXXZEA 0000000180000000     libcpmt:xthrow.obj
 0004:fffa5000       $pdata$??0bad_alloc@std@@QEAA@AEBV01@@Z 0000000180000000     libcpmt:xthrow.obj
 0002:fffc2000       ?_System_object$initializer$@?$_Error_objects@H@std@@2P6AXXZEA 0000000180000000     libcpmt:xthrow.obj
 0002:fffc2000       $unwind$??0bad_alloc@std@@QEAA@AEBV01@@Z 0000000180000000     libcpmt:xthrow.obj
 0004:fffa5000       $pdata$?Unlock@?$CComCritSecLock@VCComCriticalSection@ATL@@@ATL@@QEAAXXZ 0000000180000000     atls:atlbase.obj
 0004:fffa5000       $pdata$??0bad_alloc@std@@QEAA@XZ 0000000180000000     libcpmt:xthrow.obj
 0002:fffc2000       $unwind$?Unlock@?$CComCritSecLock@VCComCriticalSection@ATL@@@ATL@@QEAAXXZ 0000000180000000     atls:atlbase.obj
 0002:fffc2000       $unwind$??0bad_alloc@std@@QEAA@XZ 0000000180000000     libcpmt:xthrow.obj
 0004:fffa5000       $pdata$?Lock@?$CComCritSecLock@VCComCriticalSection@ATL@@@ATL@@QEAAJXZ 0000000180000000     atls:atlbase.obj
 0002:fffc2000       $unwind$?Lock@?$CComCritSecLock@VCComCriticalSection@ATL@@@ATL@@QEAAJXZ 0000000180000000     atls:atlbase.obj
 0004:fffa5000       $pdata$??1?$CComCritSecLock@VCComCriticalSection@ATL@@@ATL@@QEAA@XZ 0000000180000000     atls:atlbase.obj
 0002:fffc2000       $unwind$??1?$CComCritSecLock@VCComCriticalSection@ATL@@@ATL@@QEAA@XZ 0000000180000000     atls:atlbase.obj
 0004:fffa5000       $pdata$??0?$CComCritSecLock@VCComCriticalSection@ATL@@@ATL@@QEAA@AEAVCComCriticalSection@1@_N@Z 0000000180000000     atls:atlbase.obj
 0001:fffff000       ?catch$1@?0??_Copy@?$basic_string@DU?$char_traits@D@std@@V?$allocator@D@2@@std@@QEAAX_K0@Z@4HA 0000000180000000 f   libcpmt:xthrow.obj
 0002:fffc2000       $unwind$??0?$CComCritSecLock@VCComCriticalSection@ATL@@@ATL@@QEAA@AEAVCComCriticalSection@1@_N@Z 0000000180000000     atls:atlbase.obj
 0004:fffa5000       $pdata$?Term@CComCriticalSection@ATL@@QEAAJXZ 0000000180000000     atls:atlbase.obj
 0002:fffc2000       $unwind$?Term@CComCriticalSection@ATL@@QEAAJXZ 0000000180000000     atls:atlbase.obj
 0004:fffa5000       $pdata$?Init@CComCriticalSection@ATL@@QEAAJXZ 0000000180000000     atls:atlbase.obj
 0002:fffc2000       $unwind$?Init@CComCriticalSection@ATL@@QEAAJXZ 0000000180000000     atls:atlbase.obj
 0004:fffa5000       $pdata$?Unlock@CComCriticalSection@ATL@@QEAAJXZ 0000000180000000     atls:atlbase.obj
 0002:fffc2000       $unwind$?Unlock@CComCriticalSection@ATL@@QEAAJXZ 0000000180000000     atls:atlbase.obj
 0004:fffa5000       $pdata$?Lock@CComCriticalSection@ATL@@QEAAJXZ 0000000180000000     atls:atlbase.obj
 0002:fffc2000       $unwind$?Lock@CComCriticalSection@ATL@@QEAAJXZ 0000000180000000     atls:atlbase.obj
 0004:fffa5000       $pdata$??0CComCriticalSection@ATL@@QEAA@XZ 0000000180000000     atls:atlbase.obj
 0002:fffc2000       $unwind$??0CComCriticalSection@ATL@@QEAA@XZ 0000000180000000     atls:atlbase.obj
 0004:fffa5000       $pdata$?AtlCrtErrorCheck@ATL@@YAHH@Z 0000000180000000     atls:atlbase.obj
 0002:fffc2000       $unwind$?AtlCrtErrorCheck@ATL@@YAHH@Z 0000000180000000     atls:atlbase.obj
 0004:fffa5000       $pdata$?AtlThrowImpl@ATL@@YAXJ@Z 0000000180000000     atls:atlbase.obj
 0002:fffc2000       $unwind$?AtlThrowImpl@ATL@@YAXJ@Z 0000000180000000     atls:atlbase.obj
 0002:fffc2000       ?_System_object$initializer$@?$_Error_objects@H@std@@2P6AXXZEA 0000000180000000     libcpmt:syserror.obj
 0000:fff9f000       .debug$S                   0000000180000000     oleaut32:OLEAUT32.dll
 0002:fffc2000       ?_Iostream_object$initializer$@?$_Error_objects@H@std@@2P6AXXZEA 0000000180000000     libcpmt:syserror.obj
 0000:fff9f000       .debug$S                   0000000180000000     oleaut32:OLEAUT32.dll
 0002:fffc2000       ?_Generic_object$initializer$@?$_Error_objects@H@std@@2P6AXXZEA 0000000180000000     libcpmt:syserror.obj
 0000:fff9f000       .debug$S                   0000000180000000     ole32:ole32.dll
 0004:fffa5000       $pdata$??$_Allocate@D@std@@YAPEAD_KPEAD@Z 0000000180000000     libcpmt:syserror.obj
 0000:fff9f000       .debug$S                   0000000180000000     ole32:ole32.dll
 0002:fffc2000       $unwind$??$_Allocate@D@std@@YAPEAD_KPEAD@Z 0000000180000000     libcpmt:syserror.obj
 0000:fff9f000       .debug$S                   0000000180000000     ole32:ole32.dll
 0004:fffa5000       $pdata$??_G_System_error_category@std@@UEAAPEAXI@Z 0000000180000000     libcpmt:syserror.obj
 0000:fff9f000       .debug$S                   0000000180000000     ole32:ole32.dll
 0002:fffc2000       $unwind$??_G_System_error_category@std@@UEAAPEAXI@Z 0000000180000000     libcpmt:syserror.obj
 0000:fff9f000       .debug$S                   0000000180000000     advapi32:ADVAPI32.dll
 0004:fffa5000       $pdata$?default_error_condition@_System_error_category@std@@UEBA?AVerror_condition@2@H@Z 0000000180000000     libcpmt:syserror.obj
 0000:fff9f000       .debug$S                   0000000180000000     advapi32:ADVAPI32.dll
 0002:fffc2000       $unwind$?default_error_condition@_System_error_category@std@@UEBA?AVerror_condition@2@H@Z 0000000180000000     libcpmt:syserror.obj
 0000:fff9f000       .debug$S                   0000000180000000     advapi32:ADVAPI32.dll
 0004:fffa5000       $pdata$?message@_System_error_category@std@@UEBA?AV?$basic_string@DU?$char_traits@D@std@@V?$allocator@D@2@@2@H@Z 0000000180000000     libcpmt:syserror.obj
 0000:fff9f000       .debug$S                   0000000180000000     advapi32:ADVAPI32.dll
 0000:fff9f000       .debug$S                   0000000180000000     advapi32:ADVAPI32.dll
 0000:fff9f000       .debug$S                   0000000180000000     advapi32:ADVAPI32.dll
 0000:fff9f000       .debug$S                   0000000180000000     advapi32:ADVAPI32.dll
 0002:fffc2000       $unwind$?message@_System_error_category@std@@UEBA?AV?$basic_string@DU?$char_traits@D@std@@V?$allocator@D@2@@2@H@Z 0000000180000000     libcpmt:syserror.obj
 0000:fff9f000       .debug$S                   0000000180000000     advapi32:ADVAPI32.dll
 0000:fff9f000       .debug$S                   0000000180000000     advapi32:ADVAPI32.dll
 0000:fff9f000       .debug$S                   0000000180000000     advapi32:ADVAPI32.dll
 0000:fff9f000       .debug$S                   0000000180000000     advapi32:ADVAPI32.dll
 0004:fffa5000       $pdata$??_G_Iostream_error_category@std@@UEAAPEAXI@Z 0000000180000000     libcpmt:syserror.obj
 0000:fff9f000       .debug$S                   0000000180000000     user32:USER32.dll
 0002:fffc2000       $unwind$??_G_Iostream_error_category@std@@UEAAPEAXI@Z 0000000180000000     libcpmt:syserror.obj
 0000:fff9f000       .debug$S                   0000000180000000     user32:USER32.dll
 0004:fffa5000       $pdata$?message@_Iostream_error_category@std@@UEBA?AV?$basic_string@DU?$char_traits@D@std@@V?$allocator@D@2@@2@H@Z 0000000180000000     libcpmt:syserror.obj
 0000:fff9f000       .debug$S                   0000000180000000     user32:USER32.dll
 0002:fffc2000       $unwind$?message@_Iostream_error_category@std@@UEBA?AV?$basic_string@DU?$char_traits@D@std@@V?$allocator@D@2@@2@H@Z 0000000180000000     libcpmt:syserror.obj
 0000:fff9f000       .debug$S                   0000000180000000     user32:USER32.dll
 0000:fff9f000       .debug$S                   0000000180000000     user32:USER32.dll
 0000:fff9f000       .debug$S                   0000000180000000     user32:USER32.dll
 0000:fff9f000       .debug$S                   0000000180000000     user32:USER32.dll
 0004:fffa5000       $pdata$??_G_Generic_error_category@std@@UEAAPEAXI@Z 0000000180000000     libcpmt:syserror.obj
 0000:fff9f000       .debug$S                   0000000180000000     user32:USER32.dll
 0002:fffc2000       $unwind$??_G_Generic_error_category@std@@UEAAPEAXI@Z 0000000180000000     libcpmt:syserror.obj
 0000:fff9f000       .debug$S                   0000000180000000     kernel32:KERNEL32.dll
 0004:fffa5000       $pdata$?message@_Generic_error_category@std@@UEBA?AV?$basic_string@DU?$char_traits@D@std@@V?$allocator@D@2@@2@H@Z 0000000180000000     libcpmt:syserror.obj
 0000:fff9f000       .debug$S                   0000000180000000     kernel32:KERNEL32.dll
 0002:fffc2000       $unwind$?message@_Generic_error_category@std@@UEBA?AV?$basic_string@DU?$char_traits@D@std@@V?$allocator@D@2@@2@H@Z 0000000180000000     libcpmt:syserror.obj
 0000:fff9f000       .debug$S                   0000000180000000     kernel32:KERNEL32.dll
 0000:fff9f000       .debug$S                   0000000180000000     kernel32:KERNEL32.dll
 0000:fff9f000       .debug$S                   0000000180000000     kernel32:KERNEL32.dll
 0000:fff9f000       .debug$S                   0000000180000000     kernel32:KERNEL32.dll
 0000:fff9f000       .debug$S                   0000000180000000     kernel32:KERNEL32.dll
 0000:fff9f000       .debug$S                   0000000180000000     kernel32:KERNEL32.dll
 0000:fff9f000       .debug$S                   0000000180000000     kernel32:KERNEL32.dll
 0004:fffa5000       $pdata$??_Gerror_category@std@@UEAAPEAXI@Z 0000000180000000     libcpmt:syserror.obj
 0000:fff9f000       .debug$S                   0000000180000000     kernel32:KERNEL32.dll
 0002:fffc2000       $unwind$??_Gerror_category@std@@UEAAPEAXI@Z 0000000180000000     libcpmt:syserror.obj
 0000:fff9f000       .debug$S                   0000000180000000     kernel32:KERNEL32.dll
 0004:fffa5000       $pdata$?equivalent@error_category@std@@UEBA_NHAEBVerror_condition@2@@Z 0000000180000000     libcpmt:syserror.obj
 0000:fff9f000       .debug$S                   0000000180000000     kernel32:KERNEL32.dll
 0002:fffc2000       $unwind$?equivalent@error_category@std@@UEBA_NHAEBVerror_condition@2@@Z 0000000180000000     libcpmt:syserror.obj
 0000:fff9f000       .debug$S                   0000000180000000     kernel32:KERNEL32.dll
 0004:fffa5000       $pdata$?_Xran@?$basic_string@DU?$char_traits@D@std@@V?$allocator@D@2@@std@@QEBAXXZ 0000000180000000     libcpmt:syserror.obj
 0000:fff9f000       .debug$S                   0000000180000000     kernel32:KERNEL32.dll
 0000:fff9f000       .debug$S                   0000000180000000     kernel32:KERNEL32.dll
 0000:fff9f000       .debug$S                   0000000180000000     kernel32:KERNEL32.dll
 0000:fff9f000       .debug$S                   0000000180000000     kernel32:KERNEL32.dll
 0002:fffc2000       $unwind$?_Xran@?$basic_string@DU?$char_traits@D@std@@V?$allocator@D@2@@std@@QEBAXXZ 0000000180000000     libcpmt:syserror.obj
 0000:fff9f000       .debug$S                   0000000180000000     kernel32:KERNEL32.dll
 0004:fffa5000       $pdata$?_Xlen@?$basic_string@DU?$char_traits@D@std@@V?$allocator@D@2@@std@@QEBAXXZ 0000000180000000     libcpmt:syserror.obj
 0000:fff9f000       .debug$S                   0000000180000000     kernel32:KERNEL32.dll
 0002:fffc2000       $unwind$?_Xlen@?$basic_string@DU?$char_traits@D@std@@V?$allocator@D@2@@std@@QEBAXXZ 0000000180000000     libcpmt:syserror.obj
 0000:fff9f000       .debug$S                   0000000180000000     kernel32:KERNEL32.dll
 0004:fffa5000       $pdata$?_Tidy@?$basic_string@DU?$char_traits@D@std@@V?$allocator@D@2@@std@@QEAAX_N_K@Z 0000000180000000     libcpmt:syserror.obj
 0000:fff9f000       .debug$S                   0000000180000000     kernel32:KERNEL32.dll
 0002:fffc2000       $unwind$?_Tidy@?$basic_string@DU?$char_traits@D@std@@V?$allocator@D@2@@std@@QEAAX_N_K@Z 0000000180000000     libcpmt:syserror.obj
 0000:fff9f000       .debug$S                   0000000180000000     kernel32:KERNEL32.dll
 0004:fffa5000       $pdata$?_Grow@?$basic_string@DU?$char_traits@D@std@@V?$allocator@D@2@@std@@QEAA_N_K_N@Z 0000000180000000     libcpmt:syserror.obj
 0000:fff9f000       .debug$S                   0000000180000000     kernel32:KERNEL32.dll
 0002:fffc2000       $unwind$?_Grow@?$basic_string@DU?$char_traits@D@std@@V?$allocator@D@2@@std@@QEAA_N_K_N@Z 0000000180000000     libcpmt:syserror.obj
 0000:fff9f000       .debug$S                   0000000180000000     kernel32:KERNEL32.dll
 0004:fffa5000       $pdata$?catch$0@?0??_Copy@?$basic_string@DU?$char_traits@D@std@@V?$allocator@D@2@@std@@QEAAX_K0@Z@4HA 0000000180000000     libcpmt:syserror.obj
 0000:fff9f000       .debug$S                   0000000180000000     kernel32:KERNEL32.dll
 0000:fff9f000       .debug$S                   0000000180000000     kernel32:KERNEL32.dll
 0000:fff9f000       .debug$S                   0000000180000000     kernel32:KERNEL32.dll
 0000:fff9f000       .debug$S                   0000000180000000     kernel32:KERNEL32.dll
 0002:fffc2000       $unwind$?catch$0@?0??_Copy@?$basic_string@DU?$char_traits@D@std@@V?$allocator@D@2@@std@@QEAAX_K0@Z@4HA 0000000180000000     libcpmt:syserror.obj
 0000:fff9f000       .debug$S                   0000000180000000     kernel32:KERNEL32.dll
 0000:fff9f000       .debug$S                   0000000180000000     kernel32:KERNEL32.dll
 0000:fff9f000       .debug$S                   0000000180000000     kernel32:KERNEL32.dll
 0000:fff9f000       .debug$S                   0000000180000000     kernel32:KERNEL32.dll
 0004:fffa5000       $pdata$?catch$1@?0??_Copy@?$basic_string@DU?$char_traits@D@std@@V?$allocator@D@2@@std@@QEAAX_K0@Z@4HA 0000000180000000     libcpmt:syserror.obj
 0000:fff9f000       .debug$S                   0000000180000000     kernel32:KERNEL32.dll
 0002:fffc2000       $unwind$?catch$1@?0??_Copy@?$basic_string@DU?$char_traits@D@std@@V?$allocator@D@2@@std@@QEAAX_K0@Z@4HA 0000000180000000     libcpmt:syserror.obj
 0000:fff9f000       .debug$S                   0000000180000000     kernel32:KERNEL32.dll
 0000:fff9f000       .debug$S                   0000000180000000     kernel32:KERNEL32.dll
 0000:fff9f000       .debug$S                   0000000180000000     kernel32:KERNEL32.dll
 0000:fff9f000       .debug$S                   0000000180000000     kernel32:KERNEL32.dll
 0002:fffc2000       $ip2state$?_Copy@?$basic_string@DU?$char_traits@D@std@@V?$allocator@D@2@@std@@QEAAX_K0@Z 0000000180000000     libcpmt:syserror.obj
 0000:fff9f000       .debug$S                   0000000180000000     kernel32:KERNEL32.dll
 0002:fffc2000       $handlerMap$1$?_Copy@?$basic_string@DU?$char_traits@D@std@@V?$allocator@D@2@@std@@QEAAX_K0@Z 0000000180000000     libcpmt:syserror.obj
 0000:fff9f000       .debug$S                   0000000180000000     kernel32:KERNEL32.dll
 0002:fffc2000       $handlerMap$0$?_Copy@?$basic_string@DU?$char_traits@D@std@@V?$allocator@D@2@@std@@QEAAX_K0@Z 0000000180000000     libcpmt:syserror.obj
 0000:fff9f000       .debug$S                   0000000180000000     kernel32:KERNEL32.dll
 0000:fff9f000       .debug$S                   0000000180000000     kernel32:KERNEL32.dll
 0000:fff9f000       .debug$S                   0000000180000000     kernel32:KERNEL32.dll
 0000:fff9f000       .debug$S                   0000000180000000     kernel32:KERNEL32.dll
 0002:fffc2000       $tryMap$?_Copy@?$basic_string@DU?$char_traits@D@std@@V?$allocator@D@2@@std@@QEAAX_K0@Z 0000000180000000     libcpmt:syserror.obj
 0000:fff9f000       .debug$S                   0000000180000000     kernel32:KERNEL32.dll
 0000:fff9f000       .debug$S                   0000000180000000     kernel32:KERNEL32.dll
 0000:fff9f000       .debug$S                   0000000180000000     kernel32:KERNEL32.dll
 0000:fff9f000       .debug$S                   0000000180000000     kernel32:KERNEL32.dll
 0002:fffc2000       $stateUnwindMap$?_Copy@?$basic_string@DU?$char_traits@D@std@@V?$allocator@D@2@@std@@QEAAX_K0@Z 0000000180000000     libcpmt:syserror.obj
 0000:fff9f000       .debug$S                   0000000180000000     kernel32:KERNEL32.dll
 0000:fff9f000       .debug$S                   0000000180000000     kernel32:KERNEL32.dll
 0000:fff9f000       .debug$S                   0000000180000000     kernel32:KERNEL32.dll
 0000:fff9f000       .debug$S                   0000000180000000     kernel32:KERNEL32.dll
 0002:fffc2000       $cppxdata$?_Copy@?$basic_string@DU?$char_traits@D@std@@V?$allocator@D@2@@std@@QEAAX_K0@Z 0000000180000000     libcpmt:syserror.obj
 0000:fff9f000       .debug$S                   0000000180000000     kernel32:KERNEL32.dll
 0000:fff9f000       .debug$S                   0000000180000000     kernel32:KERNEL32.dll
 0000:fff9f000       .debug$S                   0000000180000000     kernel32:KERNEL32.dll
 0000:fff9f000       .debug$S                   0000000180000000     kernel32:KERNEL32.dll
 0004:fffa5000       $pdata$?_Copy@?$basic_string@DU?$char_traits@D@std@@V?$allocator@D@2@@std@@QEAAX_K0@Z 0000000180000000     libcpmt:syserror.obj
 0004:fffa5000       $pdata$??0_LocaleUpdate@@QEAA@PEAUlocaleinfo_struct@@@Z 0000000180000000     LIBCMT:strtod.obj
 0000:fff9f000       .debug$S                   0000000180000000     kernel32:KERNEL32.dll
 0000:fff9f000       .debug$S                   0000000180000000     kernel32:KERNEL32.dll
 0000:fff9f000       .debug$S                   0000000180000000     kernel32:KERNEL32.dll
 0000:fff9f000       .debug$S                   0000000180000000     kernel32:KERNEL32.dll
 0000:fff9f000       .debug$S                   0000000180000000     kernel32:KERNEL32.dll
 0002:fffc2000       $unwind$?_Copy@?$basic_string@DU?$char_traits@D@std@@V?$allocator@D@2@@std@@QEAAX_K0@Z 0000000180000000     libcpmt:syserror.obj
 0000:fff9f000       .debug$S                   0000000180000000     kernel32:KERNEL32.dll
 0004:fffa5000       $pdata$?erase@?$basic_string@DU?$char_traits@D@std@@V?$allocator@D@2@@std@@QEAAAEAV12@_K0@Z 0000000180000000     libcpmt:syserror.obj
 0000:fff9f000       .debug$S                   0000000180000000     kernel32:KERNEL32.dll
 0002:fffc2000       $unwind$?erase@?$basic_string@DU?$char_traits@D@std@@V?$allocator@D@2@@std@@QEAAAEAV12@_K0@Z 0000000180000000     libcpmt:syserror.obj
 0000:fff9f000       .debug$S                   0000000180000000     kernel32:KERNEL32.dll
 0004:fffa5000       $pdata$?erase@?$basic_string@DU?$char_traits@D@std@@V?$allocator@D@2@@std@@QEAAAEAV12@_K@Z 0000000180000000     libcpmt:syserror.obj
 0000:fff9f000       .debug$S                   0000000180000000     kernel32:KERNEL32.dll
 0002:fffc2000       $unwind$?erase@?$basic_string@DU?$char_traits@D@std@@V?$allocator@D@2@@std@@QEAAAEAV12@_K@Z 0000000180000000     libcpmt:syserror.obj
 0000:fff9f000       .debug$S                   0000000180000000     kernel32:KERNEL32.dll
 0004:fffa5000       $pdata$?assign@?$basic_string@DU?$char_traits@D@std@@V?$allocator@D@2@@std@@QEAAAEAV12@PEBD@Z 0000000180000000     libcpmt:syserror.obj
 0000:fff9f000       .debug$S                   0000000180000000     kernel32:KERNEL32.dll
 0002:fffc2000       $unwind$?assign@?$basic_string@DU?$char_traits@D@std@@V?$allocator@D@2@@std@@QEAAAEAV12@PEBD@Z 0000000180000000     libcpmt:syserror.obj
 0000:fff9f000       .debug$S                   0000000180000000     kernel32:KERNEL32.dll
 0004:fffa5000       $pdata$?assign@?$basic_string@DU?$char_traits@D@std@@V?$allocator@D@2@@std@@QEAAAEAV12@PEBD_K@Z 0000000180000000     libcpmt:syserror.obj
 0000:fff9f000       .debug$S                   0000000180000000     kernel32:KERNEL32.dll
 0002:fffc2000       $unwind$?assign@?$basic_string@DU?$char_traits@D@std@@V?$allocator@D@2@@std@@QEAAAEAV12@PEBD_K@Z 0000000180000000     libcpmt:syserror.obj
 0000:fff9f000       .debug$S                   0000000180000000     kernel32:KERNEL32.dll
 0004:fffa5000       $pdata$?assign@?$basic_string@DU?$char_traits@D@std@@V?$allocator@D@2@@std@@QEAAAEAV12@AEBV12@_K1@Z 0000000180000000     libcpmt:syserror.obj
 0000:fff9f000       .debug$S                   0000000180000000     kernel32:KERNEL32.dll
 0002:fffc2000       $unwind$?assign@?$basic_string@DU?$char_traits@D@std@@V?$allocator@D@2@@std@@QEAAAEAV12@AEBV12@_K1@Z 0000000180000000     libcpmt:syserror.obj
 0000:fff9f000       .debug$S                   0000000180000000     kernel32:KERNEL32.dll
 0004:fffa5000       $pdata$??1?$basic_string@DU?$char_traits@D@std@@V?$allocator@D@2@@std@@QEAA@XZ 0000000180000000     libcpmt:syserror.obj
 0000:fff9f000       .debug$S                   0000000180000000     kernel32:KERNEL32.dll
 0002:fffc2000       $unwind$??1?$basic_string@DU?$char_traits@D@std@@V?$allocator@D@2@@std@@QEAA@XZ 0000000180000000     libcpmt:syserror.obj
 0000:fff9f000       .debug$S                   0000000180000000     kernel32:KERNEL32.dll
 0004:fffa5000       $pdata$??0?$basic_string@DU?$char_traits@D@std@@V?$allocator@D@2@@std@@QEAA@PEBD@Z 0000000180000000     libcpmt:syserror.obj
 0000:fff9f000       .debug$S                   0000000180000000     kernel32:KERNEL32.dll
 0002:fffc2000       $unwind$??0?$basic_string@DU?$char_traits@D@std@@V?$allocator@D@2@@std@@QEAA@PEBD@Z 0000000180000000     libcpmt:syserror.obj
 0000:fff9f000       .debug$S                   0000000180000000     kernel32:KERNEL32.dll
 0004:fffa5000       $pdata$?allocate@?$_Wrap_alloc@V?$allocator@D@std@@@std@@QEAAPEAD_K@Z 0000000180000000     libcpmt:syserror.obj
 0000:fff9f000       .debug$S                   0000000180000000     kernel32:KERNEL32.dll
 0002:fffc2000       $unwind$?allocate@?$_Wrap_alloc@V?$allocator@D@std@@@std@@QEAAPEAD_K@Z 0000000180000000     libcpmt:syserror.obj
 0000:fff9f000       .debug$S                   0000000180000000     kernel32:KERNEL32.dll
 0004:fffa5000       $pdata$?allocate@?$allocator@D@std@@QEAAPEAD_K@Z 0000000180000000     libcpmt:syserror.obj
 0000:fff9f000       .debug$S                   0000000180000000     kernel32:KERNEL32.dll
 0002:fffc2000       $unwind$?allocate@?$allocator@D@std@@QEAAPEAD_K@Z 0000000180000000     libcpmt:syserror.obj
 0000:fff9f000       .debug$S                   0000000180000000     kernel32:KERNEL32.dll
 0004:fffa5000       $pdata$?move@?$char_traits@D@std@@SAPEADPEADPEBD_K@Z 0000000180000000     libcpmt:syserror.obj
 0000:fff9f000       .debug$S                   0000000180000000     kernel32:KERNEL32.dll
 0002:fffc2000       $unwind$?move@?$char_traits@D@std@@SAPEADPEADPEBD_K@Z 0000000180000000     libcpmt:syserror.obj
 0000:fff9f000       .debug$S                   0000000180000000     kernel32:KERNEL32.dll
 0004:fffa5000       $pdata$?copy@?$char_traits@D@std@@SAPEADPEADPEBD_K@Z 0000000180000000     libcpmt:syserror.obj
 0000:fff9f000       .debug$S                   0000000180000000     kernel32:KERNEL32.dll
 0002:fffc2000       $unwind$?copy@?$char_traits@D@std@@SAPEADPEADPEBD_K@Z 0000000180000000     libcpmt:syserror.obj
 0000:fff9f000       .debug$S                   0000000180000000     kernel32:KERNEL32.dll
 0000:fff9f000       .debug$S                   0000000180000000     kernel32:KERNEL32.dll
 0000:fff9f000       .debug$S                   0000000180000000     kernel32:KERNEL32.dll
 0000:fff9f000       .debug$S                   0000000180000000     kernel32:KERNEL32.dll
 0000:fff9f000       .debug$S                   0000000180000000     kernel32:KERNEL32.dll
 0000:fff9f000       .debug$S                   0000000180000000     kernel32:KERNEL32.dll
 0004:fffa5000       $pdata$?length@?$char_traits@D@std@@SA_KPEBD@Z 0000000180000000     libcpmt:syserror.obj
 0000:fff9f000       .debug$S                   0000000180000000     kernel32:KERNEL32.dll
 0002:fffc2000       $unwind$?length@?$char_traits@D@std@@SA_KPEBD@Z 0000000180000000     libcpmt:syserror.obj
 0000:fff9f000       .debug$S                   0000000180000000     kernel32:KERNEL32.dll
 0000:fff9f000       .debug$S                   0000000180000000     kernel32:KERNEL32.dll
 0000:fff9f000       .debug$S                   0000000180000000     kernel32:KERNEL32.dll
 0000:fff9f000       .debug$S                   0000000180000000     kernel32:KERNEL32.dll
 0000:fff9f000       .debug$S                   0000000180000000     kernel32:KERNEL32.dll
 0001:fffff000       ?catch$1@?0??_Copy@?$basic_string@DU?$char_traits@D@std@@V?$allocator@D@2@@std@@QEAAX_K0@Z@4HA 0000000180000000 f   libcpmt:syserror.obj
 0000:fff9f000       .debug$S                   0000000180000000     kernel32:KERNEL32.dll
 0000:fff9f000       .debug$S                   0000000180000000     kernel32:KERNEL32.dll
 0000:fff9f000       .debug$S                   0000000180000000     kernel32:KERNEL32.dll
 0000:fff9f000       .debug$S                   0000000180000000     kernel32:KERNEL32.dll
 0000:fff9f000       .debug$S                   0000000180000000     kernel32:KERNEL32.dll
 0000:fff9f000       .debug$S                   0000000180000000     kernel32:KERNEL32.dll
 0000:fff9f000       .debug$S                   0000000180000000     kernel32:KERNEL32.dll
 0000:fff9f000       .debug$S                   0000000180000000     kernel32:KERNEL32.dll
 0000:fff9f000       .debug$S                   0000000180000000     kernel32:KERNEL32.dll
 0000:fff9f000       .debug$S                   0000000180000000     kernel32:KERNEL32.dll
 0000:fff9f000       .debug$S                   0000000180000000     kernel32:KERNEL32.dll
 0000:fff9f000       .debug$S                   0000000180000000     kernel32:KERNEL32.dll
 0000:fff9f000       .debug$S                   0000000180000000     kernel32:KERNEL32.dll
 0000:fff9f000       .debug$S                   0000000180000000     kernel32:KERNEL32.dll
 0000:fff9f000       .debug$S                   0000000180000000     kernel32:KERNEL32.dll
 0000:fff9f000       .debug$S                   0000000180000000     kernel32:KERNEL32.dll
 0000:fff9f000       .debug$S                   0000000180000000     kernel32:KERNEL32.dll
 0000:fff9f000       .debug$S                   0000000180000000     kernel32:KERNEL32.dll
 0000:fff9f000       .debug$S                   0000000180000000     kernel32:KERNEL32.dll
 0000:fff9f000       .debug$S                   0000000180000000     kernel32:KERNEL32.dll
 0000:fff9f000       .debug$S                   0000000180000000     kernel32:KERNEL32.dll
 0000:fff9f000       .debug$S                   0000000180000000     version:VERSION.dll
 0000:fff9f000       .debug$S                   0000000180000000     shlwapi:SHLWAPI.dll
 0000:fff9f000       .debug$S                   0000000180000000     shlwapi:SHLWAPI.dll
 0000:fff9f000       .debug$S                   0000000180000000     shlwapi:SHLWAPI.dll
 0000:fff9f000       .debug$S                   0000000180000000     shlwapi:SHLWAPI.dll
 0000:fff9f000       .debug$S                   0000000180000000     version:VERSION.dll
 0002:fffc2000       $unwind$_invoke_watson_if_error 0000000180000000     LIBCMT:typname.obj
 0004:fffa5000       $pdata$_invoke_watson_if_error 0000000180000000     LIBCMT:typname.obj
 0004:fffa5000       $pdata$??_EMiniDmpSender@@UEAAPEAXI@Z 0000000180000000     mdump.obj
 0002:fffc2000       $unwind$??_EMiniDmpSender@@UEAAPEAXI@Z 0000000180000000     mdump.obj
 0004:fffa5000       $pdata$??_GMiniDmpSender@@UEAAPEAXI@Z 0000000180000000     mdump.obj
 0002:fffc2000       $unwind$??_GMiniDmpSender@@UEAAPEAXI@Z 0000000180000000     mdump.obj
 0001:fffff000       ?catch$1@?0??_Copy@?$basic_string@DU?$char_traits@D@std@@V?$allocator@D@2@@std@@QEAAX_K0@Z@4HA 0000000180000000 f   sbSender.obj
 0004:fffa5000       $pdata$?createReportAndExit@MiniDmpSender@@QEAAXXZ 0000000180000000     mdump.obj
 0002:fffc2000       $unwind$?createReportAndExit@MiniDmpSender@@QEAAXXZ 0000000180000000     mdump.obj
 0004:fffa5000       $pdata$?_LoadString@CString@WTL@@KAHIPEA_WI@Z 0000000180000000     mdump.obj
 0002:fffc2000       $unwind$?_LoadString@CString@WTL@@KAHIPEA_WI@Z 0000000180000000     mdump.obj
 0004:fffa5000       $pdata$?SafeStrlen@CString@WTL@@KAHPEB_W@Z 0000000180000000     mdump.obj
 0002:fffc2000       $unwind$?SafeStrlen@CString@WTL@@KAHPEB_W@Z 0000000180000000     mdump.obj
 0004:fffa5000       $pdata$?Release@CString@WTL@@KAXPEAUCStringData@2@@Z 0000000180000000     mdump.obj
 0002:fffc2000       $unwind$?Release@CString@WTL@@KAXPEAUCStringData@2@@Z 0000000180000000     mdump.obj
 0004:fffa5000       $pdata$?Release@CString@WTL@@IEAAXXZ 0000000180000000     mdump.obj
 0002:fffc2000       $unwind$?Release@CString@WTL@@IEAAXXZ 0000000180000000     mdump.obj
 0002:fffc2000       $unwind$?createReportAndExit@MiniDmpSender@@QEAAXXZ 0000000180000000     sbSender.obj
 0004:fffa5000       $pdata$?createReportAndExit@MiniDmpSender@@QEAAXXZ 0000000180000000     sbSender.obj
 0002:fffc2000       $unwind$??_GMiniDmpSender@@UEAAPEAXI@Z 0000000180000000     sbSender.obj
 0004:fffa5000       $pdata$??_GMiniDmpSender@@UEAAPEAXI@Z 0000000180000000     sbSender.obj
 0002:fffc2000       $unwind$??_EMiniDmpSender@@UEAAPEAXI@Z 0000000180000000     sbSender.obj
 0004:fffa5000       $pdata$??_EMiniDmpSender@@UEAAPEAXI@Z 0000000180000000     sbSender.obj
 0002:fffc2000       $unwind$?length@?$char_traits@D@std@@SA_KPEBD@Z 0000000180000000     sbSender.obj
 0004:fffa5000       $pdata$?length@?$char_traits@D@std@@SA_KPEBD@Z 0000000180000000     sbSender.obj
 0002:fffc2000       $unwind$?copy@?$char_traits@D@std@@SAPEADPEADPEBD_K@Z 0000000180000000     sbSender.obj
 0004:fffa5000       $pdata$?copy@?$char_traits@D@std@@SAPEADPEADPEBD_K@Z 0000000180000000     sbSender.obj
 0002:fffc2000       $unwind$?move@?$char_traits@D@std@@SAPEADPEADPEBD_K@Z 0000000180000000     sbSender.obj
 0004:fffa5000       $pdata$?move@?$char_traits@D@std@@SAPEADPEADPEBD_K@Z 0000000180000000     sbSender.obj
 0002:fffc2000       $unwind$?allocate@?$allocator@D@std@@QEAAPEAD_K@Z 0000000180000000     sbSender.obj
 0004:fffa5000       $pdata$?allocate@?$allocator@D@std@@QEAAPEAD_K@Z 0000000180000000     sbSender.obj
 0002:fffc2000       $unwind$?allocate@?$_Wrap_alloc@V?$allocator@D@std@@@std@@QEAAPEAD_K@Z 0000000180000000     sbSender.obj
 0004:fffa5000       $pdata$?allocate@?$_Wrap_alloc@V?$allocator@D@std@@@std@@QEAAPEAD_K@Z 0000000180000000     sbSender.obj
 0002:fffc2000       $unwind$??0?$basic_string@DU?$char_traits@D@std@@V?$allocator@D@2@@std@@QEAA@PEBD@Z 0000000180000000     sbSender.obj
 0004:fffa5000       $pdata$??0?$basic_string@DU?$char_traits@D@std@@V?$allocator@D@2@@std@@QEAA@PEBD@Z 0000000180000000     sbSender.obj
 0002:fffc2000       $unwind$??1?$basic_string@DU?$char_traits@D@std@@V?$allocator@D@2@@std@@QEAA@XZ 0000000180000000     sbSender.obj
 0004:fffa5000       $pdata$??1?$basic_string@DU?$char_traits@D@std@@V?$allocator@D@2@@std@@QEAA@XZ 0000000180000000     sbSender.obj
 0002:fffc2000       $unwind$?assign@?$basic_string@DU?$char_traits@D@std@@V?$allocator@D@2@@std@@QEAAAEAV12@AEBV12@_K1@Z 0000000180000000     sbSender.obj
 0004:fffa5000       $pdata$?assign@?$basic_string@DU?$char_traits@D@std@@V?$allocator@D@2@@std@@QEAAAEAV12@AEBV12@_K1@Z 0000000180000000     sbSender.obj
 0002:fffc2000       $unwind$?assign@?$basic_string@DU?$char_traits@D@std@@V?$allocator@D@2@@std@@QEAAAEAV12@PEBD_K@Z 0000000180000000     sbSender.obj
 0004:fffa5000       $pdata$?assign@?$basic_string@DU?$char_traits@D@std@@V?$allocator@D@2@@std@@QEAAAEAV12@PEBD_K@Z 0000000180000000     sbSender.obj
 0002:fffc2000       $unwind$?assign@?$basic_string@DU?$char_traits@D@std@@V?$allocator@D@2@@std@@QEAAAEAV12@PEBD@Z 0000000180000000     sbSender.obj
 0004:fffa5000       $pdata$?assign@?$basic_string@DU?$char_traits@D@std@@V?$allocator@D@2@@std@@QEAAAEAV12@PEBD@Z 0000000180000000     sbSender.obj
 0002:fffc2000       $unwind$?erase@?$basic_string@DU?$char_traits@D@std@@V?$allocator@D@2@@std@@QEAAAEAV12@_K@Z 0000000180000000     sbSender.obj
 0004:fffa5000       $pdata$?erase@?$basic_string@DU?$char_traits@D@std@@V?$allocator@D@2@@std@@QEAAAEAV12@_K@Z 0000000180000000     sbSender.obj
 0002:fffc2000       $unwind$?erase@?$basic_string@DU?$char_traits@D@std@@V?$allocator@D@2@@std@@QEAAAEAV12@_K0@Z 0000000180000000     sbSender.obj
 0004:fffa5000       $pdata$?erase@?$basic_string@DU?$char_traits@D@std@@V?$allocator@D@2@@std@@QEAAAEAV12@_K0@Z 0000000180000000     sbSender.obj
 0002:fffc2000       $unwind$?_Copy@?$basic_string@DU?$char_traits@D@std@@V?$allocator@D@2@@std@@QEAAX_K0@Z 0000000180000000     sbSender.obj
 0004:fffa5000       $pdata$?_Copy@?$basic_string@DU?$char_traits@D@std@@V?$allocator@D@2@@std@@QEAAX_K0@Z 0000000180000000     sbSender.obj
 0002:fffc2000       $cppxdata$?_Copy@?$basic_string@DU?$char_traits@D@std@@V?$allocator@D@2@@std@@QEAAX_K0@Z 0000000180000000     sbSender.obj
 0002:fffc2000       $stateUnwindMap$?_Copy@?$basic_string@DU?$char_traits@D@std@@V?$allocator@D@2@@std@@QEAAX_K0@Z 0000000180000000     sbSender.obj
 0002:fffc2000       $tryMap$?_Copy@?$basic_string@DU?$char_traits@D@std@@V?$allocator@D@2@@std@@QEAAX_K0@Z 0000000180000000     sbSender.obj
 0002:fffc2000       $handlerMap$0$?_Copy@?$basic_string@DU?$char_traits@D@std@@V?$allocator@D@2@@std@@QEAAX_K0@Z 0000000180000000     sbSender.obj
 0002:fffc2000       $handlerMap$1$?_Copy@?$basic_string@DU?$char_traits@D@std@@V?$allocator@D@2@@std@@QEAAX_K0@Z 0000000180000000     sbSender.obj
 0002:fffc2000       $ip2state$?_Copy@?$basic_string@DU?$char_traits@D@std@@V?$allocator@D@2@@std@@QEAAX_K0@Z 0000000180000000     sbSender.obj
 0002:fffc2000       $unwind$?catch$1@?0??_Copy@?$basic_string@DU?$char_traits@D@std@@V?$allocator@D@2@@std@@QEAAX_K0@Z@4HA 0000000180000000     sbSender.obj
 0004:fffa5000       $pdata$?catch$1@?0??_Copy@?$basic_string@DU?$char_traits@D@std@@V?$allocator@D@2@@std@@QEAAX_K0@Z@4HA 0000000180000000     sbSender.obj
 0002:fffc2000       $unwind$?catch$0@?0??_Copy@?$basic_string@DU?$char_traits@D@std@@V?$allocator@D@2@@std@@QEAAX_K0@Z@4HA 0000000180000000     sbSender.obj
 0004:fffa5000       $pdata$?catch$0@?0??_Copy@?$basic_string@DU?$char_traits@D@std@@V?$allocator@D@2@@std@@QEAAX_K0@Z@4HA 0000000180000000     sbSender.obj
 0002:fffc2000       $unwind$?_Grow@?$basic_string@DU?$char_traits@D@std@@V?$allocator@D@2@@std@@QEAA_N_K_N@Z 0000000180000000     sbSender.obj
 0004:fffa5000       $pdata$?_Grow@?$basic_string@DU?$char_traits@D@std@@V?$allocator@D@2@@std@@QEAA_N_K_N@Z 0000000180000000     sbSender.obj
 0002:fffc2000       $unwind$?_Tidy@?$basic_string@DU?$char_traits@D@std@@V?$allocator@D@2@@std@@QEAAX_N_K@Z 0000000180000000     sbSender.obj
 0004:fffa5000       $pdata$?_Tidy@?$basic_string@DU?$char_traits@D@std@@V?$allocator@D@2@@std@@QEAAX_N_K@Z 0000000180000000     sbSender.obj
 0002:fffc2000       $unwind$?_Xlen@?$basic_string@DU?$char_traits@D@std@@V?$allocator@D@2@@std@@QEBAXXZ 0000000180000000     sbSender.obj
 0004:fffa5000       $pdata$?_Xlen@?$basic_string@DU?$char_traits@D@std@@V?$allocator@D@2@@std@@QEBAXXZ 0000000180000000     sbSender.obj
 0002:fffc2000       $unwind$?_Xran@?$basic_string@DU?$char_traits@D@std@@V?$allocator@D@2@@std@@QEBAXXZ 0000000180000000     sbSender.obj
 0004:fffa5000       $pdata$?_Xran@?$basic_string@DU?$char_traits@D@std@@V?$allocator@D@2@@std@@QEBAXXZ 0000000180000000     sbSender.obj
 0002:fffc2000       $unwind$?equivalent@error_category@std@@UEBA_NHAEBVerror_condition@2@@Z 0000000180000000     sbSender.obj
 0004:fffa5000       $pdata$?equivalent@error_category@std@@UEBA_NHAEBVerror_condition@2@@Z 0000000180000000     sbSender.obj
 0002:fffc2000       $unwind$??_Gerror_category@std@@UEAAPEAXI@Z 0000000180000000     sbSender.obj
 0004:fffa5000       $pdata$??_Gerror_category@std@@UEAAPEAXI@Z 0000000180000000     sbSender.obj
 0002:fffc2000       $unwind$?message@_Generic_error_category@std@@UEBA?AV?$basic_string@DU?$char_traits@D@std@@V?$allocator@D@2@@2@H@Z 0000000180000000     sbSender.obj
 0004:fffa5000       $pdata$?message@_Generic_error_category@std@@UEBA?AV?$basic_string@DU?$char_traits@D@std@@V?$allocator@D@2@@2@H@Z 0000000180000000     sbSender.obj
 0002:fffc2000       $unwind$??_G_Generic_error_category@std@@UEAAPEAXI@Z 0000000180000000     sbSender.obj
 0004:fffa5000       $pdata$??_G_Generic_error_category@std@@UEAAPEAXI@Z 0000000180000000     sbSender.obj
 0002:fffc2000       $unwind$?message@_Iostream_error_category@std@@UEBA?AV?$basic_string@DU?$char_traits@D@std@@V?$allocator@D@2@@2@H@Z 0000000180000000     sbSender.obj
 0004:fffa5000       $pdata$?message@_Iostream_error_category@std@@UEBA?AV?$basic_string@DU?$char_traits@D@std@@V?$allocator@D@2@@2@H@Z 0000000180000000     sbSender.obj
 0002:fffc2000       $unwind$??_G_Iostream_error_category@std@@UEAAPEAXI@Z 0000000180000000     sbSender.obj
 0004:fffa5000       $pdata$??_G_Iostream_error_category@std@@UEAAPEAXI@Z 0000000180000000     sbSender.obj
 0002:fffc2000       $unwind$?message@_System_error_category@std@@UEBA?AV?$basic_string@DU?$char_traits@D@std@@V?$allocator@D@2@@2@H@Z 0000000180000000     sbSender.obj
 0004:fffa5000       $pdata$?message@_System_error_category@std@@UEBA?AV?$basic_string@DU?$char_traits@D@std@@V?$allocator@D@2@@2@H@Z 0000000180000000     sbSender.obj
 0002:fffc2000       $unwind$?default_error_condition@_System_error_category@std@@UEBA?AVerror_condition@2@H@Z 0000000180000000     sbSender.obj
 0004:fffa5000       $pdata$?default_error_condition@_System_error_category@std@@UEBA?AVerror_condition@2@H@Z 0000000180000000     sbSender.obj
 0002:fffc2000       $unwind$??_G_System_error_category@std@@UEAAPEAXI@Z 0000000180000000     sbSender.obj
 0004:fffa5000       $pdata$??_G_System_error_category@std@@UEAAPEAXI@Z 0000000180000000     sbSender.obj
 0002:fffc2000       $unwind$??$_Allocate@D@std@@YAPEAD_KPEAD@Z 0000000180000000     sbSender.obj
 0004:fffa5000       $pdata$??$_Allocate@D@std@@YAPEAD_KPEAD@Z 0000000180000000     sbSender.obj
 0004:fffa5000       $pdata$?AllocBeforeWrite@CString@WTL@@IEAAHH@Z 0000000180000000     mdump.obj
 0002:fffc2000       $unwind$?AllocBeforeWrite@CString@WTL@@IEAAHH@Z 0000000180000000     mdump.obj
 0002:fffc2000       ?_Generic_object$initializer$@?$_Error_objects@H@std@@2P6AXXZEA 0000000180000000     sbSender.obj
 0002:fffc2000       ?_Iostream_object$initializer$@?$_Error_objects@H@std@@2P6AXXZEA 0000000180000000     sbSender.obj
 0002:fffc2000       ?_System_object$initializer$@?$_Error_objects@H@std@@2P6AXXZEA 0000000180000000     sbSender.obj
 0004:fffa5000       $pdata$?CopyBeforeWrite@CString@WTL@@IEAAXXZ 0000000180000000     mdump.obj
 0002:fffc2000       $unwind$?CopyBeforeWrite@CString@WTL@@IEAAXXZ 0000000180000000     mdump.obj
 0004:fffa5000       $pdata$?ConcatInPlace@CString@WTL@@IEAAXHPEB_W@Z 0000000180000000     mdump.obj
 0002:fffc2000       $unwind$?ConcatInPlace@CString@WTL@@IEAAXHPEB_W@Z 0000000180000000     mdump.obj
 0004:fffa5000       $pdata$?ConcatCopy@CString@WTL@@IEAAHHPEB_WH0@Z 0000000180000000     mdump.obj
 0002:fffc2000       $unwind$?ConcatCopy@CString@WTL@@IEAAHHPEB_WH0@Z 0000000180000000     mdump.obj
 0004:fffa5000       $pdata$?AssignCopy@CString@WTL@@IEAAXHPEB_W@Z 0000000180000000     mdump.obj
 0002:fffc2000       $unwind$?AssignCopy@CString@WTL@@IEAAXHPEB_W@Z 0000000180000000     mdump.obj
 0004:fffa5000       $pdata$?catch$0@?0??AllocBuffer@CString@WTL@@IEAAHH@Z@4HA 0000000180000000     mdump.obj
 0002:fffc2000       $unwind$?catch$0@?0??AllocBuffer@CString@WTL@@IEAAHH@Z@4HA 0000000180000000     mdump.obj
 0002:fffc2000       $ip2state$?AllocBuffer@CString@WTL@@IEAAHH@Z 0000000180000000     mdump.obj
 0001:fffff000       ?catch$0@?0??AllocBuffer@CString@WTL@@IEAAHH@Z@4HA 0000000180000000 f   mdump.obj
 0002:fffc2000       $handlerMap$0$?AllocBuffer@CString@WTL@@IEAAHH@Z 0000000180000000     mdump.obj
 0002:fffc2000       $tryMap$?AllocBuffer@CString@WTL@@IEAAHH@Z 0000000180000000     mdump.obj
 0002:fffc2000       $stateUnwindMap$?AllocBuffer@CString@WTL@@IEAAHH@Z 0000000180000000     mdump.obj
 0002:fffc2000       $cppxdata$?AllocBuffer@CString@WTL@@IEAAHH@Z 0000000180000000     mdump.obj
 0004:fffa5000       $pdata$?AllocBuffer@CString@WTL@@IEAAHH@Z 0000000180000000     mdump.obj
 0002:fffc2000       $unwind$?AllocBuffer@CString@WTL@@IEAAHH@Z 0000000180000000     mdump.obj
 0004:fffa5000       $pdata$??1CString@WTL@@QEAA@XZ 0000000180000000     mdump.obj
 0002:fffc2000       $unwind$??1CString@WTL@@QEAA@XZ 0000000180000000     mdump.obj
 0004:fffa5000       $pdata$?ReleaseBuffer@CString@WTL@@QEAAXH@Z 0000000180000000     mdump.obj
 0002:fffc2000       $unwind$?ReleaseBuffer@CString@WTL@@QEAAXH@Z 0000000180000000     mdump.obj
 0004:fffa5000       $pdata$?GetBuffer@CString@WTL@@QEAAPEA_WH@Z 0000000180000000     mdump.obj
 0002:fffc2000       $unwind$?GetBuffer@CString@WTL@@QEAAPEA_WH@Z 0000000180000000     mdump.obj
 0004:fffa5000       $pdata$?LoadStringW@CString@WTL@@QEAAHI@Z 0000000180000000     mdump.obj
 0002:fffc2000       $unwind$?LoadStringW@CString@WTL@@QEAAHI@Z 0000000180000000     mdump.obj
 0004:fffa5000       $pdata$??YCString@WTL@@QEAAAEAV01@PEB_W@Z 0000000180000000     mdump.obj
 0002:fffc2000       $unwind$??YCString@WTL@@QEAAAEAV01@PEB_W@Z 0000000180000000     mdump.obj
 0004:fffa5000       $pdata$??4CString@WTL@@QEAAAEAV01@PEB_W@Z 0000000180000000     mdump.obj
 0002:fffc2000       $unwind$??4CString@WTL@@QEAAAEAV01@PEB_W@Z 0000000180000000     mdump.obj
 0004:fffa5000       $pdata$??4CString@WTL@@QEAAAEAV01@AEBV01@@Z 0000000180000000     mdump.obj
 0002:fffc2000       $unwind$??4CString@WTL@@QEAAAEAV01@AEBV01@@Z 0000000180000000     mdump.obj
 0004:fffa5000       $pdata$??0CString@WTL@@QEAA@PEB_W@Z 0000000180000000     mdump.obj
 0002:fffc2000       $unwind$??0CString@WTL@@QEAA@PEB_W@Z 0000000180000000     mdump.obj
 0004:fffa5000       $pdata$??0CString@WTL@@QEAA@AEBV01@@Z 0000000180000000     mdump.obj
 0002:fffc2000       $unwind$??0CString@WTL@@QEAA@AEBV01@@Z 0000000180000000     mdump.obj
 0001:fffff00d       __catch$?_Copy@?$basic_string@DU?$char_traits@D@std@@V?$allocator@D@2@@std@@QEAAX_K0@Z$0 000000018000000d f   libcpmt:syserror.obj
 0001:fffff00d       __catch$?_Copy@?$basic_string@DU?$char_traits@D@std@@V?$allocator@D@2@@std@@QEAAX_K0@Z$0 000000018000000d f   libcpmt:xthrow.obj
 0001:fffff00d       __catch$?AllocBuffer@CString@WTL@@IEAAHH@Z$0 000000018000000d f   mdump.obj
 0001:fffff00d       __catch$?_Copy@?$basic_string@DU?$char_traits@D@std@@V?$allocator@D@2@@std@@QEAAX_K0@Z$0 000000018000000d f   sbSender.obj
 0001:fffff043       ?catch$0@?0??_Copy@?$basic_string@DU?$char_traits@D@std@@V?$allocator@D@2@@std@@QEAAX_K0@Z@4HA 0000000180000043 f   libcpmt:xthrow.obj
 0001:fffff043       ?catch$0@?0??_Copy@?$basic_string@DU?$char_traits@D@std@@V?$allocator@D@2@@std@@QEAAX_K0@Z@4HA 0000000180000043 f   libcpmt:syserror.obj
 0001:fffff043       ?catch$0@?0??_Copy@?$basic_string@DU?$char_traits@D@std@@V?$allocator@D@2@@std@@QEAAX_K0@Z@4HA 0000000180000043 f   sbSender.obj
 0001:fffff051       __catch$?_Copy@?$basic_string@DU?$char_traits@D@std@@V?$allocator@D@2@@std@@QEAAX_K0@Z$1 0000000180000051 f   libcpmt:xthrow.obj
 0001:fffff051       __catch$?_Copy@?$basic_string@DU?$char_traits@D@std@@V?$allocator@D@2@@std@@QEAAX_K0@Z$1 0000000180000051 f   libcpmt:syserror.obj
 0001:fffff051       __catch$?_Copy@?$basic_string@DU?$char_traits@D@std@@V?$allocator@D@2@@std@@QEAAX_K0@Z$1 0000000180000051 f   sbSender.obj
 0001:00000000       ??__E?_Generic_object@?$_Error_objects@H@std@@2V_Generic_error_category@2@A@@YAXXZ 0000000180001000 f   mdump.obj
 0001:0000000c       ??__E?_Iostream_object@?$_Error_objects@H@std@@2V_Iostream_error_category@2@A@@YAXXZ 000000018000100c f   mdump.obj
 0001:00000018       ??__E?_System_object@?$_Error_objects@H@std@@2V_System_error_category@2@A@@YAXXZ 0000000180001018 f   mdump.obj
 0001:00000024       ??__E?m_imp@MiniDumper@@1VBugSplatImp@@A@@YAXXZ 0000000180001024 f   mdump.obj
 0001:00000030       ??__E?_Generic_object@?$_Error_objects@H@std@@2V_Generic_error_category@2@A@@YAXXZ 0000000180001030 f   sbSender.obj
 0001:0000003c       ??__E?_Iostream_object@?$_Error_objects@H@std@@2V_Iostream_error_category@2@A@@YAXXZ 000000018000103c f   sbSender.obj
 0001:00000048       ??__E?_System_object@?$_Error_objects@H@std@@2V_System_error_category@2@A@@YAXXZ 0000000180001048 f   sbSender.obj
 0001:00000054       ??__E_AtlComModule@ATL@@YAXXZ 0000000180001054 f   sbSenderApp.obj
 0001:00000074       ??__E_Module@@YAXXZ        0000000180001074 f   sbSenderApp.obj
 0001:000000b0       ??__E_AtlComModule@ATL@@YAXXZ 00000001800010b0 f   StdAfx.obj
 0001:000000d0       ??__E_AtlWinModule@ATL@@YAXXZ 00000001800010d0 f   StdAfx.obj
 0001:000000f0       ??__E_AtlBaseModule@ATL@@YAXXZ 00000001800010f0 f   atls:atlbase.obj
 0001:00000110       ??__E?_Generic_object@?$_Error_objects@H@std@@2V_Generic_error_category@2@A@@YAXXZ 0000000180001110 f   libcpmt:xthrow.obj
 0001:0000011c       ??__E?_Iostream_object@?$_Error_objects@H@std@@2V_Iostream_error_category@2@A@@YAXXZ 000000018000111c f   libcpmt:xthrow.obj
 0001:00000128       ??__E?_System_object@?$_Error_objects@H@std@@2V_System_error_category@2@A@@YAXXZ 0000000180001128 f   libcpmt:xthrow.obj
 0001:00000134       ??__E?_Generic_object@?$_Error_objects@H@std@@2V_Generic_error_category@2@A@@YAXXZ 0000000180001134 f   libcpmt:syserror.obj
 0001:00000140       ??__E?_Iostream_object@?$_Error_objects@H@std@@2V_Iostream_error_category@2@A@@YAXXZ 0000000180001140 f   libcpmt:syserror.obj
 0001:0000014c       ??__E?_System_object@?$_Error_objects@H@std@@2V_System_error_category@2@A@@YAXXZ 000000018000114c f   libcpmt:syserror.obj
 0001:00005964       localtime_s                0000000180006964 f   mdump.obj
 0001:0000596c       time                       000000018000696c f   mdump.obj
 0001:0000a8b4       ?ArrayUnwindFilter@@YAHPEAU_EXCEPTION_POINTERS@@@Z 000000018000b8b4 f   LIBCMT:ehvecdtr.obj
 0001:0000ae8c       _initterm                  000000018000be8c f   LIBCMT:crt0dat.obj
 0001:0000af40       doexit                     000000018000bf40 f   LIBCMT:crt0dat.obj
 0001:0000b100       $$000000                   000000018000c100     LIBCMT:memcpy.obj
 0001:0000b1f0       MoveSmall                  000000018000c1f0     LIBCMT:memcpy.obj
 0001:0000b680       $$000000                   000000018000c680     LIBCMT:memset.obj
 0001:0000b825       MsetTab                    000000018000c825     LIBCMT:memset.obj
 0001:0000bbec       ?_CatchTryBlock@@YAPEBU_s_TryBlockMapEntry@@PEBU_s_FuncInfo@@H@Z 000000018000cbec f   LIBCMT:trnsctrl.obj
 0001:0000c4e0       $$000000                   000000018000d4e0     LIBCMT:amdsecgs.obj
 0001:0000c8cc       _onexit_nolock             000000018000d8cc f   LIBCMT:onexit.obj
 0001:0000d060       $$000000                   000000018000e060     LIBCMT:strlen.obj
 0001:0000d888       ?_W_expandtime@@YAHPEAUlocaleinfo_struct@@_WPEBUtm@@PEAPEA_WPEA_KPEAU__lc_time_data@@I@Z 000000018000e888 f   LIBCMT:wcsftime.obj
 0001:0000def4       ?_W_store_num@@YAXHHPEAPEA_WPEA_KI@Z 000000018000eef4 f   LIBCMT:wcsftime.obj
 0001:0000dfec       ?_W_store_number@@YAXHPEAPEA_WPEA_K@Z 000000018000efec f   LIBCMT:wcsftime.obj
 0001:0000e060       ?_W_store_str@@YAXPEA_WPEAPEA_WPEA_K@Z 000000018000f060 f   LIBCMT:wcsftime.obj
 0001:0000e088       ?_W_store_winword@@YAHPEAUlocaleinfo_struct@@HPEBUtm@@PEAPEA_WPEA_KPEAU__lc_time_data@@@Z 000000018000f088 f   LIBCMT:wcsftime.obj
 0001:0000f4b8       _callthreadstartex         00000001800104b8 f   LIBCMT:threadex.obj
 0001:0000f4e4       _createThread              00000001800104e4 f   LIBCMT:threadex.obj
 0001:0000f5a0       _initMTAoncurrentthread    00000001800105a0 f   LIBCMT:threadex.obj
 0001:0000f618       _threadstartex             0000000180010618 f   LIBCMT:threadex.obj
 0001:0000f71c       _uninitMTAoncurrentthread  000000018001071c f   LIBCMT:threadex.obj
 0001:0000f7dc       ctrlevent_capture          00000001800107dc f   LIBCMT:winsig.obj
 0001:0000faa4       siglookup                  0000000180010aa4 f   LIBCMT:winsig.obj
 0001:00010384       infinity_with_flags        0000000180011384 f   LIBCMT:hypot.obj
 0001:000103d4       raise_fpsw_flags           00000001800113d4 f   LIBCMT:hypot.obj
 0001:00010408       scaleDouble_1              0000000180011408 f   LIBCMT:hypot.obj
 0001:00010c40       $$000000                   0000000180011c40     LIBCMT:chkstk.obj
 0001:00010e40       __DllMainCRTStartup        0000000180011e40 f   LIBCMT:dllcrt0.obj
 0001:000114e4       __IsPackagedAppHelper      00000001800124e4 f   LIBCMT:winapisupp.obj
 0001:000129b8       ?CPtoLocaleName@@YAPEB_WH@Z 00000001800139b8 f   LIBCMT:mbctype.obj
 0001:000129f4       ?getSystemCP@@YAHH@Z       00000001800139f4 f   LIBCMT:mbctype.obj
 0001:00012a74       ?setSBCS@@YAXPEAUthreadmbcinfostruct@@@Z 0000000180013a74 f   LIBCMT:mbctype.obj
 0001:00012b04       ?setSBUpLow@@YAXPEAUthreadmbcinfostruct@@@Z 0000000180013b04 f   LIBCMT:mbctype.obj
 0001:00013a24       ?CatchIt@@YAXPEAUEHExceptionRecord@@PEA_KPEAU_CONTEXT@@PEAU_xDISPATCHER_CONTEXT@@PEBU_s_FuncInfo@@PEBU_s_HandlerType@@PEBU_s_CatchableType@@PEBU_s_TryBlockMapEntry@@H1EE@Z 0000000180014a24 f   LIBCMT:frame.obj
 0001:00013ae8       ?ExFilterRethrow@@YAHPEAU_EXCEPTION_POINTERS@@PEAUEHExceptionRecord@@PEAH@Z 0000000180014ae8 f   LIBCMT:frame.obj
 0001:00013b74       ?FindHandler@@YAXPEAUEHExceptionRecord@@PEA_KPEAU_CONTEXT@@PEAU_xDISPATCHER_CONTEXT@@PEBU_s_FuncInfo@@EH1@Z 0000000180014b74 f   LIBCMT:frame.obj
 0001:00014028       ?FindHandlerForForeignException@@YAXPEAUEHExceptionRecord@@PEA_KPEAU_CONTEXT@@PEAU_xDISPATCHER_CONTEXT@@PEBU_s_FuncInfo@@HH1@Z 0000000180015028 f   LIBCMT:frame.obj
 0001:00014290       ?IsInExceptionSpec@@YAEPEAUEHExceptionRecord@@PEBU_s_ESTypeList@@@Z 0000000180015290 f   LIBCMT:frame.obj
 0001:00014368       ?Is_bad_exception_allowed@@YAEPEBU_s_ESTypeList@@@Z 0000000180015368 f   LIBCMT:frame.obj
 0001:000143f0       ?__RethrowException@@YAXPEAUEHExceptionRecord@@@Z 00000001800153f0 f   LIBCMT:frame.obj
 0001:00015580       $$000000                   0000000180016580     LIBCMT:strcmp.obj
 0001:00015db0       ?wcstoxl@@YAKPEB_WPEAPEB_WHH@Z 0000000180016db0 f   LIBCMT:wcstol.obj
 0001:00015fc0       ?wcstoxq@@YA_KPEAUlocaleinfo_struct@@PEB_WPEAPEB_WHH@Z 0000000180016fc0 f   LIBCMT:wcstoq.obj
 0001:000176d8       write_char                 00000001800186d8 f   LIBCMT:woutput.obj
 0001:00017710       write_multi_char           0000000180018710 f   LIBCMT:woutput.obj
 0001:00017764       write_string               0000000180018764 f   LIBCMT:woutput.obj
 0001:000184c0       $$000000                   00000001800194c0     LIBCMT:jmpuwind.obj
 0001:00018778       _isindst_nolock            0000000180019778 f   LIBCMT:tzset.obj
 0001:00018a94       _tzset_nolock              0000000180019a94 f   LIBCMT:tzset.obj
 0001:00018ef8       cvtdate                    0000000180019ef8 f   LIBCMT:tzset.obj
 0001:000198bc       __crtEnumLocalesProc       000000018001a8bc f   LIBCMT:winapinls.obj
 0001:00019ea8       flsall                     000000018001aea8 f   LIBCMT:fflush.obj
 0001:0001a170       xcptlookup                 000000018001b170 f   LIBCMT:winxfltr.obj
 0001:0001a7bc       _call_matherr              000000018001b7bc f   LIBCMT:libm_error.obj
 0001:0001a824       _exception_enabled         000000018001b824 f   LIBCMT:libm_error.obj
 0001:0001afd0       _cftoe2_l                  000000018001bfd0 f   LIBCMT:cvt.obj
 0001:0001b2d8       _cftof2_l                  000000018001c2d8 f   LIBCMT:cvt.obj
 0001:0001b7e4       _shift                     000000018001c7e4 f   LIBCMT:cvt.obj
 0001:0001bde0       parse_cmdline              000000018001cde0 f   LIBCMT:stdargv.obj
 0001:0001c748       ?__crtGetLocaleInfoA_stat@@YAHPEAUlocaleinfo_struct@@PEB_WKPEADH@Z 000000018001d748 f   LIBCMT:a_loc.obj
 0001:0001c91c       ?__crtLCMapStringA_stat@@YAHPEAUlocaleinfo_struct@@PEB_WKPEBDHPEADHHH@Z 000000018001d91c f   LIBCMT:a_map.obj
 0001:0001cc08       ?strncnt@@YAHPEBDH@Z       000000018001dc08 f   LIBCMT:a_map.obj
 0001:0001ccbc       ?__crtGetStringTypeA_stat@@YAHPEAUlocaleinfo_struct@@KPEBDHPEAGHH@Z 000000018001dcbc f   LIBCMT:a_str.obj
 0001:0001cf40       $$000000                   000000018001df40     LIBCMT:handlers.obj
 0001:00023b9c       ?und_memcpy@@YAXPEADPEBDI@Z 0000000180024b9c f   LIBCMT:undname.obj
 0001:00023bb8       ?und_strlen@@YAIPEBD@Z     0000000180024bb8 f   LIBCMT:undname.obj
 0001:00023bcc       ?und_strncmp@@YAIPEBD0I@Z  0000000180024bcc f   LIBCMT:undname.obj
 0001:00024718       _copytlocinfo_nolock       0000000180025718 f   LIBCMT:wsetloca.obj
 0001:0002505c       _wsetlocale_get_all        000000018002605c f   LIBCMT:wsetloca.obj
 0001:00025230       _wsetlocale_nolock         0000000180026230 f   LIBCMT:wsetloca.obj
 0001:0002549c       _wsetlocale_set_cat        000000018002649c f   LIBCMT:wsetloca.obj
 0001:000257ac       sync_legacy_variables_lk   00000001800267ac f   LIBCMT:wsetloca.obj
 0001:00025de8       fix_grouping               0000000180026de8 f   LIBCMT:initmon.obj
 0001:00026158       fix_grouping               0000000180027158 f   LIBCMT:initnum.obj
 0001:00026630       _get_lc_time               0000000180027630 f   LIBCMT:inittime.obj
 0001:00027d14       write_char                 0000000180028d14 f   LIBCMT:woutputs.obj
 0001:00027d4c       write_multi_char           0000000180028d4c f   LIBCMT:woutputs.obj
 0001:00027da0       write_string               0000000180028da0 f   LIBCMT:woutputs.obj
 0001:00029140       write_char                 000000018002a140 f   LIBCMT:woutputp.obj
 0001:00029178       write_multi_char           000000018002a178 f   LIBCMT:woutputp.obj
 0001:000291cc       write_string               000000018002a1cc f   LIBCMT:woutputp.obj
 0001:0002a294       write_char                 000000018002b294 f   LIBCMT:output.obj
 0001:0002a2dc       write_multi_char           000000018002b2dc f   LIBCMT:output.obj
 0001:0002a330       write_string               000000018002b330 f   LIBCMT:output.obj
 0001:0002ae6c       __createFile               000000018002be6c f   LIBCMT:wopen.obj
 0001:0002bd64       _dupenv_s_helper           000000018002cd64 f   LIBCMT:getenv.obj
 0001:0002bedc       _getenv_s_helper           000000018002cedc f   LIBCMT:getenv.obj
 0001:0002ccb0       $$000000                   000000018002dcb0     LIBCMT:fpsr.obj
 0001:0002cf48       _get_fname                 000000018002df48 f   LIBCMT:fpexcept.obj
 0001:0002e7d8       ?x_ismbbtype_l@@YAHPEAUlocaleinfo_struct@@IHH@Z 000000018002f7d8 f   LIBCMT:ismbbyte.obj
 0001:000310d0       $$000000                   00000001800320d0     LIBCMT:memcmp.obj
 0001:00031220       GetLocaleNameFromDefault   0000000180032220 f   LIBCMT:getqloc.obj
 0001:000312b0       GetLocaleNameFromLangCountry 00000001800322b0 f   LIBCMT:getqloc.obj
 0001:00031360       GetLocaleNameFromLanguage  0000000180032360 f   LIBCMT:getqloc.obj
 0001:000313e8       GetPrimaryLen              00000001800323e8 f   LIBCMT:getqloc.obj
 0001:00031418       LangCountryEnumProcEx      0000000180032418 f   LIBCMT:getqloc.obj
 0001:000317a4       LanguageEnumProcEx         00000001800327a4 f   LIBCMT:getqloc.obj
 0001:00031884       ProcessCodePage            0000000180032884 f   LIBCMT:getqloc.obj
 0001:00031938       TestDefaultCountry         0000000180032938 f   LIBCMT:getqloc.obj
 0001:000319a0       TestDefaultLanguage        00000001800329a0 f   LIBCMT:getqloc.obj
 0001:00031a10       TranslateName              0000000180032a10 f   LIBCMT:getqloc.obj
 0001:00031d38       CountryEnumProc            0000000180032d38 f   LIBCMT:getqloc_downlevel.obj
 0001:00031e24       GetLcidFromCountry         0000000180032e24 f   LIBCMT:getqloc_downlevel.obj
 0001:00031e7c       GetLcidFromDefault         0000000180032e7c f   LIBCMT:getqloc_downlevel.obj
 0001:00031ea0       GetLcidFromLangCountry     0000000180032ea0 f   LIBCMT:getqloc_downlevel.obj
 0001:00031f54       GetLcidFromLanguage        0000000180032f54 f   LIBCMT:getqloc_downlevel.obj
 0001:00031fe8       GetPrimaryLen              0000000180032fe8 f   LIBCMT:getqloc_downlevel.obj
 0001:00032010       LangCountryEnumProc        0000000180033010 f   LIBCMT:getqloc_downlevel.obj
 0001:00032240       LanguageEnumProc           0000000180033240 f   LIBCMT:getqloc_downlevel.obj
 0001:0003233c       LcidFromHexString          000000018003333c f   LIBCMT:getqloc_downlevel.obj
 0001:0003238c       ProcessCodePage            000000018003338c f   LIBCMT:getqloc_downlevel.obj
 0001:0003243c       TestDefaultCountry         000000018003343c f   LIBCMT:getqloc_downlevel.obj
 0001:00032464       TestDefaultLanguage        0000000180033464 f   LIBCMT:getqloc_downlevel.obj
 0001:0003250c       TranslateName              000000018003350c f   LIBCMT:getqloc_downlevel.obj
 0001:00033268       write_char                 0000000180034268 f   LIBCMT:outputs.obj
 0001:000332b0       write_multi_char           00000001800342b0 f   LIBCMT:outputs.obj
 0001:00033304       write_string               0000000180034304 f   LIBCMT:outputs.obj
 0001:00034478       write_char                 0000000180035478 f   LIBCMT:cprintfp.obj
 0001:0003449c       write_multi_char           000000018003549c f   LIBCMT:cprintfp.obj
 0001:000344e8       write_string               00000001800354e8 f   LIBCMT:cprintfp.obj
 0001:00035a00       ?strtoxq@@YA_KPEAUlocaleinfo_struct@@PEBDPEAPEBDHH@Z 0000000180036a00 f   LIBCMT:strtoq.obj
 0001:00035e0c       ?strtoxl@@YAKPEAUlocaleinfo_struct@@PEBDPEAPEBDHH@Z 0000000180036e0c f   LIBCMT:strtol.obj
 0001:00037edc       x64tow_s                   0000000180038edc f   LIBCMT:xtows.obj
 0001:00037ff0       xtow_s                     0000000180038ff0 f   LIBCMT:xtows.obj
 0001:00039468       write_char                 000000018003a468 f   LIBCMT:outputp.obj
 0001:000394b0       write_multi_char           000000018003a4b0 f   LIBCMT:outputp.obj
 0001:00039504       write_string               000000018003a504 f   LIBCMT:outputp.obj
 0001:00039b04       copy_environ               000000018003ab04 f   LIBCMT:setenv.obj
 0001:00039b8c       findenv                    000000018003ab8c f   LIBCMT:setenv.obj
 0001:00039d28       ?__crtCompareStringA_stat@@YAHPEAUlocaleinfo_struct@@PEB_WKPEBDH2HH@Z 000000018003ad28 f   LIBCMT:a_cmp.obj
 0001:0003a090       ?strncnt@@YAHPEBDH@Z       000000018003b090 f   LIBCMT:a_cmp.obj
 0001:0003ae30       ?dtor$0@?0???HWTL@@YA?AVCString@0@AEBV10@0@Z@4HA 000000018003be30 f   BugSplatImp.obj
 0001:0003ae56       ?catch$0@?0??AllocBuffer@CString@WTL@@IEAAHH@Z@4HA 000000018003be56 f   BugSplatImp.obj
 0001:0003ae63       __catch$?AllocBuffer@CString@WTL@@IEAAHH@Z$0 000000018003be63 f   BugSplatImp.obj
 0001:0003ae71       ?dtor$0@?0??CreateMiniDump@BugSplatImp@@QEAAHPEAUHINSTANCE__@@KPEAXKPEAU_EXCEPTION_POINTERS@@PEB_WPEA_WK@Z@4HA 000000018003be71 f   BugSplatImp.obj
 0001:0003ae7d       ?dtor$0@?0??GetReducedGuid@BugSplatImp@@QEAAXPEA_WK@Z@4HA 000000018003be7d f   BugSplatImp.obj
 0001:0003ae89       ?dtor$0@?0??Left@CString@WTL@@QEBA?AV12@H@Z@4HA 000000018003be89 f   BugSplatImp.obj
 0001:0003aeaf       ?dtor$0@?0??Mid@CString@WTL@@QEBA?AV12@HH@Z@4HA 000000018003beaf f   BugSplatImp.obj
 0001:0003aed5       ?dtor$0@?0??ReduceGuidString@BugSplatImp@@QEAAXPEA_WK@Z@4HA 000000018003bed5 f   BugSplatImp.obj
 0001:0003aee1       ?dtor$1@?0??ReduceGuidString@BugSplatImp@@QEAAXPEA_WK@Z@4HA 000000018003bee1 f   BugSplatImp.obj
 0001:0003aeed       ?dtor$2@?0??ReduceGuidString@BugSplatImp@@QEAAXPEA_WK@Z@4HA 000000018003beed f   BugSplatImp.obj
 0001:0003aef9       ?dtor$3@?0??ReduceGuidString@BugSplatImp@@QEAAXPEA_WK@Z@4HA 000000018003bef9 f   BugSplatImp.obj
 0001:0003af05       ?dtor$4@?0??ReduceGuidString@BugSplatImp@@QEAAXPEA_WK@Z@4HA 000000018003bf05 f   BugSplatImp.obj
 0001:0003af11       ?catch$0@?0???$_Uninit_move@PEAVCString@WTL@@PEAV12@V?$allocator@VCString@WTL@@@std@@V12@@std@@YAPEAVCString@WTL@@PEAV12@00AEAU?$_Wrap_alloc@V?$allocator@VCString@WTL@@@std@@@0@0U_Nonscalar_ptr_iterator_tag@0@@Z@4HA 000000018003bf11 f   mdump.obj
 0001:0003af1f       __catch$??$_Uninit_move@PEAVCString@WTL@@PEAV12@V?$allocator@VCString@WTL@@@std@@V12@@std@@YAPEAVCString@WTL@@PEAV12@00AEAU?$_Wrap_alloc@V?$allocator@VCString@WTL@@@std@@@0@0U_Nonscalar_ptr_iterator_tag@0@@Z$0 000000018003bf1f f   mdump.obj
 0001:0003af5b       ?dtor$0@?0???$construct@VCString@WTL@@V12@@?$allocator@VCString@WTL@@@std@@QEAAXPEAVCString@WTL@@$$QEAV23@@Z@4HA 000000018003bf5b f   mdump.obj
 0001:0003af77       ?dtor$0@?0???0MiniDumper@@QEAA@XZ@4HA 000000018003bf77 f   mdump.obj
 0001:0003af87       ?dtor$1@?0???0MiniDumper@@QEAA@XZ@4HA 000000018003bf87 f   mdump.obj
 0001:0003af97       ?dtor$2@?0???0MiniDumper@@QEAA@XZ@4HA 000000018003bf97 f   mdump.obj
 0001:0003afa7       ?dtor$3@?0???0MiniDumper@@QEAA@XZ@4HA 000000018003bfa7 f   mdump.obj
 0001:0003afb7       ?dtor$4@?0???0MiniDumper@@QEAA@XZ@4HA 000000018003bfb7 f   mdump.obj
 0001:0003afc7       ?dtor$5@?0???0MiniDumper@@QEAA@XZ@4HA 000000018003bfc7 f   mdump.obj
 0001:0003afd7       ?dtor$6@?0???0MiniDumper@@QEAA@XZ@4HA 000000018003bfd7 f   mdump.obj
 0001:0003afe7       ?dtor$7@?0???0MiniDumper@@QEAA@XZ@4HA 000000018003bfe7 f   mdump.obj
 0001:0003aff7       ?dtor$8@?0???0MiniDumper@@QEAA@XZ@4HA 000000018003bff7 f   mdump.obj
 0001:0003b007       ?dtor$9@?0???0MiniDumper@@QEAA@XZ@4HA 000000018003c007 f   mdump.obj
 0001:0003b017       ?dtor$10@?0???0MiniDumper@@QEAA@XZ@4HA 000000018003c017 f   mdump.obj
 0001:0003b027       ?dtor$11@?0???0MiniDumper@@QEAA@XZ@4HA 000000018003c027 f   mdump.obj
 0001:0003b037       ?dtor$12@?0???0MiniDumper@@QEAA@XZ@4HA 000000018003c037 f   mdump.obj
 0001:0003b04a       ?dtor$0@?0???0TotalUptimeAndCrashCalculator@@QEAA@PEB_W00@Z@4HA 000000018003c04a f   mdump.obj
 0001:0003b056       ?dtor$1@?0???0TotalUptimeAndCrashCalculator@@QEAA@PEB_W00@Z@4HA 000000018003c056 f   mdump.obj
 0001:0003b066       ?dtor$2@?0???0TotalUptimeAndCrashCalculator@@QEAA@PEB_W00@Z@4HA 000000018003c066 f   mdump.obj
 0001:0003b076       ?dtor$3@?0???0TotalUptimeAndCrashCalculator@@QEAA@PEB_W00@Z@4HA 000000018003c076 f   mdump.obj
 0001:0003b086       ?dtor$4@?0???0TotalUptimeAndCrashCalculator@@QEAA@PEB_W00@Z@4HA 000000018003c086 f   mdump.obj
 0001:0003b096       ?dtor$5@?0???0TotalUptimeAndCrashCalculator@@QEAA@PEB_W00@Z@4HA 000000018003c096 f   mdump.obj
 0001:0003b0a6       ?dtor$6@?0???0TotalUptimeAndCrashCalculator@@QEAA@PEB_W00@Z@4HA 000000018003c0a6 f   mdump.obj
 0001:0003b0b2       ?dtor$0@?0???1MiniDumper@@UEAA@XZ@4HA 000000018003c0b2 f   mdump.obj
 0001:0003b0c2       ?dtor$1@?0???1MiniDumper@@UEAA@XZ@4HA 000000018003c0c2 f   mdump.obj
 0001:0003b0d2       ?dtor$2@?0???1MiniDumper@@UEAA@XZ@4HA 000000018003c0d2 f   mdump.obj
 0001:0003b0e2       ?dtor$3@?0???1MiniDumper@@UEAA@XZ@4HA 000000018003c0e2 f   mdump.obj
 0001:0003b0f2       ?dtor$4@?0???1MiniDumper@@UEAA@XZ@4HA 000000018003c0f2 f   mdump.obj
 0001:0003b102       ?dtor$5@?0???1MiniDumper@@UEAA@XZ@4HA 000000018003c102 f   mdump.obj
 0001:0003b112       ?dtor$6@?0???1MiniDumper@@UEAA@XZ@4HA 000000018003c112 f   mdump.obj
 0001:0003b122       ?dtor$7@?0???1MiniDumper@@UEAA@XZ@4HA 000000018003c122 f   mdump.obj
 0001:0003b132       ?dtor$8@?0???1MiniDumper@@UEAA@XZ@4HA 000000018003c132 f   mdump.obj
 0001:0003b142       ?dtor$9@?0???1MiniDumper@@UEAA@XZ@4HA 000000018003c142 f   mdump.obj
 0001:0003b152       ?dtor$10@?0???1MiniDumper@@UEAA@XZ@4HA 000000018003c152 f   mdump.obj
 0001:0003b162       ?dtor$11@?0???1MiniDumper@@UEAA@XZ@4HA 000000018003c162 f   mdump.obj
 0001:0003b172       ?dtor$12@?0???1MiniDumper@@UEAA@XZ@4HA 000000018003c172 f   mdump.obj
 0001:0003b185       ?dtor$0@?0???1TotalUptimeAndCrashCalculator@@QEAA@XZ@4HA 000000018003c185 f   mdump.obj
 0001:0003b191       ?dtor$1@?0???1TotalUptimeAndCrashCalculator@@QEAA@XZ@4HA 000000018003c191 f   mdump.obj
 0001:0003b1a1       ?dtor$2@?0???1TotalUptimeAndCrashCalculator@@QEAA@XZ@4HA 000000018003c1a1 f   mdump.obj
 0001:0003b1b1       ?dtor$3@?0???1TotalUptimeAndCrashCalculator@@QEAA@XZ@4HA 000000018003c1b1 f   mdump.obj
 0001:0003b1c1       ?dtor$4@?0???1TotalUptimeAndCrashCalculator@@QEAA@XZ@4HA 000000018003c1c1 f   mdump.obj
 0001:0003b1d1       ?dtor$5@?0???1TotalUptimeAndCrashCalculator@@QEAA@XZ@4HA 000000018003c1d1 f   mdump.obj
 0001:0003b1e1       ?catch$0@?0??AtlMessageBox@WTL@@YAHPEAUHWND__@@V_U_STRINGorID@ATL@@1I@Z@4HA 000000018003c1e1 f   mdump.obj
 0001:0003b1ee       __catch$?AtlMessageBox@WTL@@YAHPEAUHWND__@@V_U_STRINGorID@ATL@@1I@Z$0 000000018003c1ee f   mdump.obj
 0001:0003b1fc       ?catch$1@?0??AtlMessageBox@WTL@@YAHPEAUHWND__@@V_U_STRINGorID@ATL@@1I@Z@4HA 000000018003c1fc f   mdump.obj
 0001:0003b209       __catch$?AtlMessageBox@WTL@@YAHPEAUHWND__@@V_U_STRINGorID@ATL@@1I@Z$2 000000018003c209 f   mdump.obj
